ARM GAS  C:\Users\Ade0n\AppData\Local\Temp\cc0UjuQa.s 			page 1


   1              		.syntax unified
   2              		.cpu cortex-m0
   3              		.fpu softvfp
   4              		.eabi_attribute 20, 1
   5              		.eabi_attribute 21, 1
   6              		.eabi_attribute 23, 3
   7              		.eabi_attribute 24, 1
   8              		.eabi_attribute 25, 1
   9              		.eabi_attribute 26, 1
  10              		.eabi_attribute 30, 1
  11              		.eabi_attribute 34, 0
  12              		.eabi_attribute 18, 4
  13              		.thumb
  14              		.syntax unified
  15              		.file	"cyfitter_cfg.c"
  16              		.text
  17              	.Ltext0:
  18              		.cfi_sections	.debug_frame
  19              		.section	.text.cfg_write_bytes32,"ax",%progbits
  20              		.align	2
  21              		.code	16
  22              		.thumb_func
  23              		.type	cfg_write_bytes32, %function
  24              	cfg_write_bytes32:
  25              	.LFB5:
  26              		.file 1 "Generated_Source\\PSoC4\\cyfitter_cfg.c"
   1:Generated_Source\PSoC4/cyfitter_cfg.c **** 
   2:Generated_Source\PSoC4/cyfitter_cfg.c **** /*******************************************************************************
   3:Generated_Source\PSoC4/cyfitter_cfg.c **** * File Name: cyfitter_cfg.c
   4:Generated_Source\PSoC4/cyfitter_cfg.c **** * 
   5:Generated_Source\PSoC4/cyfitter_cfg.c **** * PSoC Creator  4.4
   6:Generated_Source\PSoC4/cyfitter_cfg.c **** *
   7:Generated_Source\PSoC4/cyfitter_cfg.c **** * Description:
   8:Generated_Source\PSoC4/cyfitter_cfg.c **** * This file contains device initialization code.
   9:Generated_Source\PSoC4/cyfitter_cfg.c **** * Except for the user defined sections in CyClockStartupError(), this file should not be modified.
  10:Generated_Source\PSoC4/cyfitter_cfg.c **** * This file is automatically generated by PSoC Creator.
  11:Generated_Source\PSoC4/cyfitter_cfg.c **** *
  12:Generated_Source\PSoC4/cyfitter_cfg.c **** ********************************************************************************
  13:Generated_Source\PSoC4/cyfitter_cfg.c **** * Copyright (c) 2007-2020 Cypress Semiconductor.  All rights reserved.
  14:Generated_Source\PSoC4/cyfitter_cfg.c **** * You may use this file only in accordance with the license, terms, conditions, 
  15:Generated_Source\PSoC4/cyfitter_cfg.c **** * disclaimers, and limitations in the end user license agreement accompanying 
  16:Generated_Source\PSoC4/cyfitter_cfg.c **** * the software package with which this file was provided.
  17:Generated_Source\PSoC4/cyfitter_cfg.c **** ********************************************************************************/
  18:Generated_Source\PSoC4/cyfitter_cfg.c **** 
  19:Generated_Source\PSoC4/cyfitter_cfg.c **** #include <string.h>
  20:Generated_Source\PSoC4/cyfitter_cfg.c **** #include "cytypes.h"
  21:Generated_Source\PSoC4/cyfitter_cfg.c **** #include "cydevice_trm.h"
  22:Generated_Source\PSoC4/cyfitter_cfg.c **** #include "cyfitter.h"
  23:Generated_Source\PSoC4/cyfitter_cfg.c **** #include "CyLib.h"
  24:Generated_Source\PSoC4/cyfitter_cfg.c **** #include "CyLFClk.h"
  25:Generated_Source\PSoC4/cyfitter_cfg.c **** #include "cyfitter_cfg.h"
  26:Generated_Source\PSoC4/cyfitter_cfg.c **** #include "cyapicallbacks.h"
  27:Generated_Source\PSoC4/cyfitter_cfg.c **** 
  28:Generated_Source\PSoC4/cyfitter_cfg.c **** 
  29:Generated_Source\PSoC4/cyfitter_cfg.c **** #if defined(__GNUC__) || defined(__ARMCC_VERSION)
  30:Generated_Source\PSoC4/cyfitter_cfg.c ****     #define CYPACKED 
  31:Generated_Source\PSoC4/cyfitter_cfg.c ****     #define CYPACKED_ATTR __attribute__ ((packed))
ARM GAS  C:\Users\Ade0n\AppData\Local\Temp\cc0UjuQa.s 			page 2


  32:Generated_Source\PSoC4/cyfitter_cfg.c ****     #define CYALIGNED __attribute__ ((aligned))
  33:Generated_Source\PSoC4/cyfitter_cfg.c ****     #define CY_CFG_UNUSED __attribute__ ((unused))
  34:Generated_Source\PSoC4/cyfitter_cfg.c ****     #ifndef CY_CFG_SECTION
  35:Generated_Source\PSoC4/cyfitter_cfg.c ****         #define CY_CFG_SECTION __attribute__ ((section(".psocinit")))
  36:Generated_Source\PSoC4/cyfitter_cfg.c ****     #endif
  37:Generated_Source\PSoC4/cyfitter_cfg.c ****     
  38:Generated_Source\PSoC4/cyfitter_cfg.c ****     #if defined(__ARMCC_VERSION)
  39:Generated_Source\PSoC4/cyfitter_cfg.c ****         #define CY_CFG_MEMORY_BARRIER() __memory_changed()
  40:Generated_Source\PSoC4/cyfitter_cfg.c ****     #else
  41:Generated_Source\PSoC4/cyfitter_cfg.c ****         #define CY_CFG_MEMORY_BARRIER() __sync_synchronize()
  42:Generated_Source\PSoC4/cyfitter_cfg.c ****     #endif
  43:Generated_Source\PSoC4/cyfitter_cfg.c ****     
  44:Generated_Source\PSoC4/cyfitter_cfg.c **** #elif defined(__ICCARM__)
  45:Generated_Source\PSoC4/cyfitter_cfg.c ****     #include <intrinsics.h>
  46:Generated_Source\PSoC4/cyfitter_cfg.c **** 
  47:Generated_Source\PSoC4/cyfitter_cfg.c ****     #define CYPACKED __packed
  48:Generated_Source\PSoC4/cyfitter_cfg.c ****     #define CYPACKED_ATTR 
  49:Generated_Source\PSoC4/cyfitter_cfg.c ****     #define CYALIGNED _Pragma("data_alignment=4")
  50:Generated_Source\PSoC4/cyfitter_cfg.c ****     #define CY_CFG_UNUSED _Pragma("diag_suppress=Pe177")
  51:Generated_Source\PSoC4/cyfitter_cfg.c ****     #define CY_CFG_SECTION _Pragma("location=\".psocinit\"")
  52:Generated_Source\PSoC4/cyfitter_cfg.c ****     
  53:Generated_Source\PSoC4/cyfitter_cfg.c ****     #define CY_CFG_MEMORY_BARRIER() __DMB()
  54:Generated_Source\PSoC4/cyfitter_cfg.c ****     
  55:Generated_Source\PSoC4/cyfitter_cfg.c **** #else
  56:Generated_Source\PSoC4/cyfitter_cfg.c ****     #error Unsupported toolchain
  57:Generated_Source\PSoC4/cyfitter_cfg.c **** #endif
  58:Generated_Source\PSoC4/cyfitter_cfg.c **** 
  59:Generated_Source\PSoC4/cyfitter_cfg.c **** #ifndef CYCODE
  60:Generated_Source\PSoC4/cyfitter_cfg.c ****     #define CYCODE
  61:Generated_Source\PSoC4/cyfitter_cfg.c **** #endif
  62:Generated_Source\PSoC4/cyfitter_cfg.c **** #ifndef CYDATA
  63:Generated_Source\PSoC4/cyfitter_cfg.c ****     #define CYDATA
  64:Generated_Source\PSoC4/cyfitter_cfg.c **** #endif
  65:Generated_Source\PSoC4/cyfitter_cfg.c **** #ifndef CYFAR
  66:Generated_Source\PSoC4/cyfitter_cfg.c ****     #define CYFAR
  67:Generated_Source\PSoC4/cyfitter_cfg.c **** #endif
  68:Generated_Source\PSoC4/cyfitter_cfg.c **** #ifndef CYXDATA
  69:Generated_Source\PSoC4/cyfitter_cfg.c ****     #define CYXDATA
  70:Generated_Source\PSoC4/cyfitter_cfg.c **** #endif
  71:Generated_Source\PSoC4/cyfitter_cfg.c **** 
  72:Generated_Source\PSoC4/cyfitter_cfg.c **** 
  73:Generated_Source\PSoC4/cyfitter_cfg.c **** CY_CFG_UNUSED
  74:Generated_Source\PSoC4/cyfitter_cfg.c **** static void CYMEMZERO(void *s, size_t n);
  75:Generated_Source\PSoC4/cyfitter_cfg.c **** CY_CFG_UNUSED
  76:Generated_Source\PSoC4/cyfitter_cfg.c **** static void CYMEMZERO(void *s, size_t n)
  77:Generated_Source\PSoC4/cyfitter_cfg.c **** {
  78:Generated_Source\PSoC4/cyfitter_cfg.c **** 	(void)memset(s, 0, n);
  79:Generated_Source\PSoC4/cyfitter_cfg.c **** }
  80:Generated_Source\PSoC4/cyfitter_cfg.c **** CY_CFG_UNUSED
  81:Generated_Source\PSoC4/cyfitter_cfg.c **** static void CYCONFIGCPY(void *dest, const void *src, size_t n);
  82:Generated_Source\PSoC4/cyfitter_cfg.c **** CY_CFG_UNUSED
  83:Generated_Source\PSoC4/cyfitter_cfg.c **** static void CYCONFIGCPY(void *dest, const void *src, size_t n)
  84:Generated_Source\PSoC4/cyfitter_cfg.c **** {
  85:Generated_Source\PSoC4/cyfitter_cfg.c **** 	(void)memcpy(dest, src, n);
  86:Generated_Source\PSoC4/cyfitter_cfg.c **** }
  87:Generated_Source\PSoC4/cyfitter_cfg.c **** CY_CFG_UNUSED
  88:Generated_Source\PSoC4/cyfitter_cfg.c **** static void CYCONFIGCPYCODE(void *dest, const void *src, size_t n);
ARM GAS  C:\Users\Ade0n\AppData\Local\Temp\cc0UjuQa.s 			page 3


  89:Generated_Source\PSoC4/cyfitter_cfg.c **** CY_CFG_UNUSED
  90:Generated_Source\PSoC4/cyfitter_cfg.c **** static void CYCONFIGCPYCODE(void *dest, const void *src, size_t n)
  91:Generated_Source\PSoC4/cyfitter_cfg.c **** {
  92:Generated_Source\PSoC4/cyfitter_cfg.c **** 	(void)memcpy(dest, src, n);
  93:Generated_Source\PSoC4/cyfitter_cfg.c **** }
  94:Generated_Source\PSoC4/cyfitter_cfg.c **** 
  95:Generated_Source\PSoC4/cyfitter_cfg.c **** 
  96:Generated_Source\PSoC4/cyfitter_cfg.c **** 
  97:Generated_Source\PSoC4/cyfitter_cfg.c **** 
  98:Generated_Source\PSoC4/cyfitter_cfg.c **** /* Clock startup error codes                                                   */
  99:Generated_Source\PSoC4/cyfitter_cfg.c **** #define CYCLOCKSTART_NO_ERROR    0u
 100:Generated_Source\PSoC4/cyfitter_cfg.c **** #define CYCLOCKSTART_XTAL_ERROR  1u
 101:Generated_Source\PSoC4/cyfitter_cfg.c **** #define CYCLOCKSTART_32KHZ_ERROR 2u
 102:Generated_Source\PSoC4/cyfitter_cfg.c **** #define CYCLOCKSTART_PLL_ERROR   3u
 103:Generated_Source\PSoC4/cyfitter_cfg.c **** #define CYCLOCKSTART_FLL_ERROR   4u
 104:Generated_Source\PSoC4/cyfitter_cfg.c **** #define CYCLOCKSTART_WCO_ERROR   5u
 105:Generated_Source\PSoC4/cyfitter_cfg.c **** 
 106:Generated_Source\PSoC4/cyfitter_cfg.c **** 
 107:Generated_Source\PSoC4/cyfitter_cfg.c **** #ifdef CY_NEED_CYCLOCKSTARTUPERROR
 108:Generated_Source\PSoC4/cyfitter_cfg.c **** /*******************************************************************************
 109:Generated_Source\PSoC4/cyfitter_cfg.c **** * Function Name: CyClockStartupError
 110:Generated_Source\PSoC4/cyfitter_cfg.c **** ********************************************************************************
 111:Generated_Source\PSoC4/cyfitter_cfg.c **** * Summary:
 112:Generated_Source\PSoC4/cyfitter_cfg.c **** *  If an error is encountered during clock configuration (crystal startup error,
 113:Generated_Source\PSoC4/cyfitter_cfg.c **** *  PLL lock error, etc.), the system will end up here.  Unless reimplemented by
 114:Generated_Source\PSoC4/cyfitter_cfg.c **** *  the customer, this function will stop in an infinite loop.
 115:Generated_Source\PSoC4/cyfitter_cfg.c **** *
 116:Generated_Source\PSoC4/cyfitter_cfg.c **** * Parameters:
 117:Generated_Source\PSoC4/cyfitter_cfg.c **** *   void
 118:Generated_Source\PSoC4/cyfitter_cfg.c **** *
 119:Generated_Source\PSoC4/cyfitter_cfg.c **** * Return:
 120:Generated_Source\PSoC4/cyfitter_cfg.c **** *   void
 121:Generated_Source\PSoC4/cyfitter_cfg.c **** *
 122:Generated_Source\PSoC4/cyfitter_cfg.c **** *******************************************************************************/
 123:Generated_Source\PSoC4/cyfitter_cfg.c **** CY_CFG_UNUSED
 124:Generated_Source\PSoC4/cyfitter_cfg.c **** static void CyClockStartupError(uint8 errorCode);
 125:Generated_Source\PSoC4/cyfitter_cfg.c **** CY_CFG_UNUSED
 126:Generated_Source\PSoC4/cyfitter_cfg.c **** static void CyClockStartupError(uint8 errorCode)
 127:Generated_Source\PSoC4/cyfitter_cfg.c **** {
 128:Generated_Source\PSoC4/cyfitter_cfg.c ****     /* To remove the compiler warning if errorCode not used.                */
 129:Generated_Source\PSoC4/cyfitter_cfg.c ****     errorCode = errorCode;
 130:Generated_Source\PSoC4/cyfitter_cfg.c **** 
 131:Generated_Source\PSoC4/cyfitter_cfg.c ****     /* If we have a clock startup error (bad MHz crystal, PLL lock, etc.),  */
 132:Generated_Source\PSoC4/cyfitter_cfg.c ****     /* we will end up here to allow the customer to implement something to  */
 133:Generated_Source\PSoC4/cyfitter_cfg.c ****     /* deal with the clock condition.                                       */
 134:Generated_Source\PSoC4/cyfitter_cfg.c **** 
 135:Generated_Source\PSoC4/cyfitter_cfg.c **** #ifdef CY_CFG_CLOCK_STARTUP_ERROR_CALLBACK
 136:Generated_Source\PSoC4/cyfitter_cfg.c ****     CY_CFG_Clock_Startup_ErrorCallback();
 137:Generated_Source\PSoC4/cyfitter_cfg.c **** #else
 138:Generated_Source\PSoC4/cyfitter_cfg.c ****     /*  If not using CY_CFG_CLOCK_STARTUP_ERROR_CALLBACK, place your clock startup code here. */
 139:Generated_Source\PSoC4/cyfitter_cfg.c ****     /* `#START CyClockStartupError` */
 140:Generated_Source\PSoC4/cyfitter_cfg.c **** 
 141:Generated_Source\PSoC4/cyfitter_cfg.c **** 
 142:Generated_Source\PSoC4/cyfitter_cfg.c **** 
 143:Generated_Source\PSoC4/cyfitter_cfg.c ****     /* `#END` */
 144:Generated_Source\PSoC4/cyfitter_cfg.c **** 
 145:Generated_Source\PSoC4/cyfitter_cfg.c ****     while(1) {}
ARM GAS  C:\Users\Ade0n\AppData\Local\Temp\cc0UjuQa.s 			page 4


 146:Generated_Source\PSoC4/cyfitter_cfg.c **** #endif /* CY_CFG_CLOCK_STARTUP_ERROR_CALLBACK */
 147:Generated_Source\PSoC4/cyfitter_cfg.c **** }
 148:Generated_Source\PSoC4/cyfitter_cfg.c **** #endif
 149:Generated_Source\PSoC4/cyfitter_cfg.c **** 
 150:Generated_Source\PSoC4/cyfitter_cfg.c **** #define CY_CFG_BASE_ADDR_COUNT 10u
 151:Generated_Source\PSoC4/cyfitter_cfg.c **** CYPACKED typedef struct
 152:Generated_Source\PSoC4/cyfitter_cfg.c **** {
 153:Generated_Source\PSoC4/cyfitter_cfg.c **** 	uint8 offset;
 154:Generated_Source\PSoC4/cyfitter_cfg.c **** 	uint8 value;
 155:Generated_Source\PSoC4/cyfitter_cfg.c **** } CYPACKED_ATTR cy_cfg_addrvalue_t;
 156:Generated_Source\PSoC4/cyfitter_cfg.c **** 
 157:Generated_Source\PSoC4/cyfitter_cfg.c **** 
 158:Generated_Source\PSoC4/cyfitter_cfg.c **** 
 159:Generated_Source\PSoC4/cyfitter_cfg.c **** /*******************************************************************************
 160:Generated_Source\PSoC4/cyfitter_cfg.c **** * Function Name: cfg_write_bytes32
 161:Generated_Source\PSoC4/cyfitter_cfg.c **** ********************************************************************************
 162:Generated_Source\PSoC4/cyfitter_cfg.c **** * Summary:
 163:Generated_Source\PSoC4/cyfitter_cfg.c **** *  This function is used for setting up the chip configuration areas that
 164:Generated_Source\PSoC4/cyfitter_cfg.c **** *  contain relatively sparse data.
 165:Generated_Source\PSoC4/cyfitter_cfg.c **** *
 166:Generated_Source\PSoC4/cyfitter_cfg.c **** * Parameters:
 167:Generated_Source\PSoC4/cyfitter_cfg.c **** *   void
 168:Generated_Source\PSoC4/cyfitter_cfg.c **** *
 169:Generated_Source\PSoC4/cyfitter_cfg.c **** * Return:
 170:Generated_Source\PSoC4/cyfitter_cfg.c **** *   void
 171:Generated_Source\PSoC4/cyfitter_cfg.c **** *
 172:Generated_Source\PSoC4/cyfitter_cfg.c **** *******************************************************************************/
 173:Generated_Source\PSoC4/cyfitter_cfg.c **** static void cfg_write_bytes32(const uint32 addr_table[], const cy_cfg_addrvalue_t data_table[]);
 174:Generated_Source\PSoC4/cyfitter_cfg.c **** static void cfg_write_bytes32(const uint32 addr_table[], const cy_cfg_addrvalue_t data_table[])
 175:Generated_Source\PSoC4/cyfitter_cfg.c **** {
  27              		.loc 1 175 0
  28              		.cfi_startproc
  29              		@ args = 0, pretend = 0, frame = 0
  30              		@ frame_needed = 0, uses_anonymous_args = 0
  31              	.LVL0:
  32 0000 F0B5     		push	{r4, r5, r6, r7, lr}
  33              		.cfi_def_cfa_offset 20
  34              		.cfi_offset 4, -20
  35              		.cfi_offset 5, -16
  36              		.cfi_offset 6, -12
  37              		.cfi_offset 7, -8
  38              		.cfi_offset 14, -4
  39              	.LVL1:
 176:Generated_Source\PSoC4/cyfitter_cfg.c **** 	/* For 32-bit little-endian architectures */
 177:Generated_Source\PSoC4/cyfitter_cfg.c **** 	uint32 i, j = 0u;
  40              		.loc 1 177 0
  41 0002 0025     		movs	r5, #0
 178:Generated_Source\PSoC4/cyfitter_cfg.c **** 	for (i = 0u; i < CY_CFG_BASE_ADDR_COUNT; i++)
  42              		.loc 1 178 0
  43 0004 0027     		movs	r7, #0
  44 0006 11E0     		b	.L2
  45              	.LVL2:
  46              	.L5:
  47              	.LBB2:
 179:Generated_Source\PSoC4/cyfitter_cfg.c **** 	{
 180:Generated_Source\PSoC4/cyfitter_cfg.c **** 		uint32 baseAddr = addr_table[i];
  48              		.loc 1 180 0
ARM GAS  C:\Users\Ade0n\AppData\Local\Temp\cc0UjuQa.s 			page 5


  49 0008 BB00     		lsls	r3, r7, #2
  50 000a C658     		ldr	r6, [r0, r3]
  51              	.LVL3:
 181:Generated_Source\PSoC4/cyfitter_cfg.c **** 		uint8 count = (uint8)baseAddr;
  52              		.loc 1 181 0
  53 000c F3B2     		uxtb	r3, r6
  54              	.LVL4:
 182:Generated_Source\PSoC4/cyfitter_cfg.c **** 		baseAddr &= 0xFFFFFF00u;
  55              		.loc 1 182 0
  56 000e FF22     		movs	r2, #255
  57 0010 9643     		bics	r6, r2
  58              	.LVL5:
 183:Generated_Source\PSoC4/cyfitter_cfg.c **** 		while (count != 0u)
  59              		.loc 1 183 0
  60 0012 08E0     		b	.L3
  61              	.L4:
 184:Generated_Source\PSoC4/cyfitter_cfg.c **** 		{
 185:Generated_Source\PSoC4/cyfitter_cfg.c **** 			CY_SET_REG8((void *)(baseAddr + data_table[j].offset), data_table[j].value);
  62              		.loc 1 185 0
  63 0014 6A00     		lsls	r2, r5, #1
  64 0016 8A18     		adds	r2, r1, r2
  65 0018 1478     		ldrb	r4, [r2]
  66 001a A419     		adds	r4, r4, r6
  67 001c 5278     		ldrb	r2, [r2, #1]
  68 001e 2270     		strb	r2, [r4]
 186:Generated_Source\PSoC4/cyfitter_cfg.c **** 			j++;
  69              		.loc 1 186 0
  70 0020 0135     		adds	r5, r5, #1
  71              	.LVL6:
 187:Generated_Source\PSoC4/cyfitter_cfg.c **** 			count--;
  72              		.loc 1 187 0
  73 0022 013B     		subs	r3, r3, #1
  74              	.LVL7:
  75 0024 DBB2     		uxtb	r3, r3
  76              	.LVL8:
  77              	.L3:
 183:Generated_Source\PSoC4/cyfitter_cfg.c **** 		{
  78              		.loc 1 183 0
  79 0026 002B     		cmp	r3, #0
  80 0028 F4D1     		bne	.L4
  81              	.LBE2:
 178:Generated_Source\PSoC4/cyfitter_cfg.c **** 	{
  82              		.loc 1 178 0 discriminator 2
  83 002a 0137     		adds	r7, r7, #1
  84              	.LVL9:
  85              	.L2:
 178:Generated_Source\PSoC4/cyfitter_cfg.c **** 	{
  86              		.loc 1 178 0 is_stmt 0 discriminator 1
  87 002c 092F     		cmp	r7, #9
  88 002e EBD9     		bls	.L5
 188:Generated_Source\PSoC4/cyfitter_cfg.c **** 		}
 189:Generated_Source\PSoC4/cyfitter_cfg.c **** 	}
 190:Generated_Source\PSoC4/cyfitter_cfg.c **** }
  89              		.loc 1 190 0 is_stmt 1
  90              		@ sp needed
  91              	.LVL10:
  92              	.LVL11:
ARM GAS  C:\Users\Ade0n\AppData\Local\Temp\cc0UjuQa.s 			page 6


  93 0030 F0BD     		pop	{r4, r5, r6, r7, pc}
  94              		.cfi_endproc
  95              	.LFE5:
  96              		.size	cfg_write_bytes32, .-cfg_write_bytes32
  97 0032 C046     		.section	.text.AnalogSetDefault,"ax",%progbits
  98              		.align	2
  99              		.code	16
 100              		.thumb_func
 101              		.type	AnalogSetDefault, %function
 102              	AnalogSetDefault:
 103              	.LFB7:
 191:Generated_Source\PSoC4/cyfitter_cfg.c **** 
 192:Generated_Source\PSoC4/cyfitter_cfg.c **** 
 193:Generated_Source\PSoC4/cyfitter_cfg.c **** /*******************************************************************************
 194:Generated_Source\PSoC4/cyfitter_cfg.c **** * Function Name: ClockSetup
 195:Generated_Source\PSoC4/cyfitter_cfg.c **** ********************************************************************************
 196:Generated_Source\PSoC4/cyfitter_cfg.c **** *
 197:Generated_Source\PSoC4/cyfitter_cfg.c **** * Summary:
 198:Generated_Source\PSoC4/cyfitter_cfg.c **** *   Performs the initialization of all of the clocks in the device based on the
 199:Generated_Source\PSoC4/cyfitter_cfg.c **** *   settings in the Clock tab of the DWR.  This includes enabling the requested
 200:Generated_Source\PSoC4/cyfitter_cfg.c **** *   clocks and setting the necessary dividers to produce the desired frequency. 
 201:Generated_Source\PSoC4/cyfitter_cfg.c **** *
 202:Generated_Source\PSoC4/cyfitter_cfg.c **** * Parameters:
 203:Generated_Source\PSoC4/cyfitter_cfg.c **** *   void
 204:Generated_Source\PSoC4/cyfitter_cfg.c **** *
 205:Generated_Source\PSoC4/cyfitter_cfg.c **** * Return:
 206:Generated_Source\PSoC4/cyfitter_cfg.c **** *   void
 207:Generated_Source\PSoC4/cyfitter_cfg.c **** *
 208:Generated_Source\PSoC4/cyfitter_cfg.c **** *******************************************************************************/
 209:Generated_Source\PSoC4/cyfitter_cfg.c **** static void ClockSetup(void);
 210:Generated_Source\PSoC4/cyfitter_cfg.c **** CY_CFG_SECTION
 211:Generated_Source\PSoC4/cyfitter_cfg.c **** static void ClockSetup(void)
 212:Generated_Source\PSoC4/cyfitter_cfg.c **** {
 213:Generated_Source\PSoC4/cyfitter_cfg.c **** 
 214:Generated_Source\PSoC4/cyfitter_cfg.c **** 	/* Set Flash Cycles based on max possible frequency in case a glitch occurs during ClockSetup(). *
 215:Generated_Source\PSoC4/cyfitter_cfg.c **** 	CY_SET_REG32((void CYXDATA *)(CYREG_CPUSS_FLASH_CTL), (0x0012u));
 216:Generated_Source\PSoC4/cyfitter_cfg.c **** 
 217:Generated_Source\PSoC4/cyfitter_cfg.c **** 	/* Start the WCO */
 218:Generated_Source\PSoC4/cyfitter_cfg.c **** 	CySysClkWcoStart();
 219:Generated_Source\PSoC4/cyfitter_cfg.c **** 	CyDelayCycles(12000000u); /* WCO may take up to 500ms to start */
 220:Generated_Source\PSoC4/cyfitter_cfg.c **** 	(void)CySysClkWcoSetPowerMode(CY_SYS_CLK_WCO_LPM);    /* Switch to the low power mode */
 221:Generated_Source\PSoC4/cyfitter_cfg.c **** 
 222:Generated_Source\PSoC4/cyfitter_cfg.c **** 	/* Setup and trim IMO based on desired frequency. */
 223:Generated_Source\PSoC4/cyfitter_cfg.c **** 	CySysClkWriteImoFreq(48u);
 224:Generated_Source\PSoC4/cyfitter_cfg.c **** 	/* CYDEV_CLK_ILO_CONFIG Starting address: CYDEV_CLK_ILO_CONFIG */
 225:Generated_Source\PSoC4/cyfitter_cfg.c **** 	CY_SET_REG32((void *)(CYREG_CLK_ILO_CONFIG), 0x80000006u);
 226:Generated_Source\PSoC4/cyfitter_cfg.c **** 
 227:Generated_Source\PSoC4/cyfitter_cfg.c **** 	/* CYDEV_WDT_CONFIG Starting address: CYDEV_WDT_CONFIG */
 228:Generated_Source\PSoC4/cyfitter_cfg.c **** 	CY_SET_REG32((void *)(CYREG_WDT_CONFIG), 0x40000000u);
 229:Generated_Source\PSoC4/cyfitter_cfg.c **** 
 230:Generated_Source\PSoC4/cyfitter_cfg.c **** 
 231:Generated_Source\PSoC4/cyfitter_cfg.c **** 	/* Enable fast start mode for XO */
 232:Generated_Source\PSoC4/cyfitter_cfg.c **** 	CY_SET_REG32((void*)CYREG_BLE_BLERD_BB_XO, CY_GET_REG32((void*)CYREG_BLE_BLERD_BB_XO) | (uint32)0x
 233:Generated_Source\PSoC4/cyfitter_cfg.c **** 	CY_SET_REG32((void *)(CYREG_BLE_BLERD_BB_XO_CAPTRIM), 0x00003E2Du);
 234:Generated_Source\PSoC4/cyfitter_cfg.c **** 	/*Set XTAL(ECO) divider*/
 235:Generated_Source\PSoC4/cyfitter_cfg.c **** 	CY_SET_REG32((void *)(CYREG_BLE_BLESS_XTAL_CLK_DIV_CONFIG), 0x00000000u);
 236:Generated_Source\PSoC4/cyfitter_cfg.c **** 	/* Disable Crystal Stable Interrupt before enabling ECO */
ARM GAS  C:\Users\Ade0n\AppData\Local\Temp\cc0UjuQa.s 			page 7


 237:Generated_Source\PSoC4/cyfitter_cfg.c **** 	CY_SET_REG32((void*)CYREG_BLE_BLESS_LL_DSM_CTRL, CY_GET_REG32((void*)CYREG_BLE_BLESS_LL_DSM_CTRL) 
 238:Generated_Source\PSoC4/cyfitter_cfg.c **** 	/* Start the ECO and do not check status since it is not needed for HFCLK */
 239:Generated_Source\PSoC4/cyfitter_cfg.c **** 	(void)CySysClkEcoStart(2000u);
 240:Generated_Source\PSoC4/cyfitter_cfg.c **** 	CyDelayUs(1500u); /* Wait to stabilize */
 241:Generated_Source\PSoC4/cyfitter_cfg.c **** 
 242:Generated_Source\PSoC4/cyfitter_cfg.c **** 	/* Setup phase aligned clocks */
 243:Generated_Source\PSoC4/cyfitter_cfg.c **** 	CY_SET_REG32((void *)CYREG_PERI_DIV_16_CTL0, 0x00000100u);
 244:Generated_Source\PSoC4/cyfitter_cfg.c **** 	CY_SET_REG32((void *)CYREG_PERI_DIV_CMD, 0x8000FF40u);
 245:Generated_Source\PSoC4/cyfitter_cfg.c **** 	CY_SET_REG32((void *)CYREG_PERI_DIV_16_CTL1, 0x00000300u);
 246:Generated_Source\PSoC4/cyfitter_cfg.c **** 	CY_SET_REG32((void *)CYREG_PERI_DIV_CMD, 0x8000FF41u);
 247:Generated_Source\PSoC4/cyfitter_cfg.c **** 	CY_SET_REG32((void *)CYREG_PERI_DIV_16_CTL3, 0x00BB7F00u);
 248:Generated_Source\PSoC4/cyfitter_cfg.c **** 	CY_SET_REG32((void *)CYREG_PERI_DIV_CMD, 0x8000FF43u);
 249:Generated_Source\PSoC4/cyfitter_cfg.c **** 	CY_SET_REG32((void *)CYREG_PERI_DIV_16_CTL2, 0x00002200u);
 250:Generated_Source\PSoC4/cyfitter_cfg.c **** 	CY_SET_REG32((void *)CYREG_PERI_DIV_CMD, 0x8000FF42u);
 251:Generated_Source\PSoC4/cyfitter_cfg.c **** 
 252:Generated_Source\PSoC4/cyfitter_cfg.c **** 	/* CYDEV_CLK_IMO_CONFIG Starting address: CYDEV_CLK_IMO_CONFIG */
 253:Generated_Source\PSoC4/cyfitter_cfg.c **** 	CY_SET_REG32((void *)(CYREG_CLK_IMO_CONFIG), 0x80000000u);
 254:Generated_Source\PSoC4/cyfitter_cfg.c **** 
 255:Generated_Source\PSoC4/cyfitter_cfg.c **** 	/* CYDEV_CLK_SELECT Starting address: CYDEV_CLK_SELECT */
 256:Generated_Source\PSoC4/cyfitter_cfg.c **** 	CY_SET_REG32((void *)(CYREG_CLK_SELECT), 0x00040000u);
 257:Generated_Source\PSoC4/cyfitter_cfg.c **** 
 258:Generated_Source\PSoC4/cyfitter_cfg.c **** 	/* CYDEV_PERI_PCLK_CTL11 Starting address: CYDEV_PERI_PCLK_CTL11 */
 259:Generated_Source\PSoC4/cyfitter_cfg.c **** 	CY_SET_REG32((void *)(CYREG_PERI_PCLK_CTL11), 0x00000040u);
 260:Generated_Source\PSoC4/cyfitter_cfg.c **** 
 261:Generated_Source\PSoC4/cyfitter_cfg.c **** 	/* CYDEV_PERI_PCLK_CTL8 Starting address: CYDEV_PERI_PCLK_CTL8 */
 262:Generated_Source\PSoC4/cyfitter_cfg.c **** 	CY_SET_REG32((void *)(CYREG_PERI_PCLK_CTL8), 0x00000041u);
 263:Generated_Source\PSoC4/cyfitter_cfg.c **** 
 264:Generated_Source\PSoC4/cyfitter_cfg.c **** 	/* CYDEV_PERI_PCLK_CTL7 Starting address: CYDEV_PERI_PCLK_CTL7 */
 265:Generated_Source\PSoC4/cyfitter_cfg.c **** 	CY_SET_REG32((void *)(CYREG_PERI_PCLK_CTL7), 0x00000043u);
 266:Generated_Source\PSoC4/cyfitter_cfg.c **** 
 267:Generated_Source\PSoC4/cyfitter_cfg.c **** 	/* CYDEV_PERI_PCLK_CTL1 Starting address: CYDEV_PERI_PCLK_CTL1 */
 268:Generated_Source\PSoC4/cyfitter_cfg.c **** 	CY_SET_REG32((void *)(CYREG_PERI_PCLK_CTL1), 0x00000042u);
 269:Generated_Source\PSoC4/cyfitter_cfg.c **** 
 270:Generated_Source\PSoC4/cyfitter_cfg.c **** 	(void)CyIntSetVector(8u, &CySysWdtIsr);
 271:Generated_Source\PSoC4/cyfitter_cfg.c **** 	CyIntEnable(8u);
 272:Generated_Source\PSoC4/cyfitter_cfg.c **** 	CY_SET_REG32((void *)(CYREG_WDT_CONFIG), 0x40000000u);
 273:Generated_Source\PSoC4/cyfitter_cfg.c **** }
 274:Generated_Source\PSoC4/cyfitter_cfg.c **** 
 275:Generated_Source\PSoC4/cyfitter_cfg.c **** 
 276:Generated_Source\PSoC4/cyfitter_cfg.c **** /* Analog API Functions */
 277:Generated_Source\PSoC4/cyfitter_cfg.c **** 
 278:Generated_Source\PSoC4/cyfitter_cfg.c **** 
 279:Generated_Source\PSoC4/cyfitter_cfg.c **** /*******************************************************************************
 280:Generated_Source\PSoC4/cyfitter_cfg.c **** * Function Name: AnalogSetDefault
 281:Generated_Source\PSoC4/cyfitter_cfg.c **** ********************************************************************************
 282:Generated_Source\PSoC4/cyfitter_cfg.c **** *
 283:Generated_Source\PSoC4/cyfitter_cfg.c **** * Summary:
 284:Generated_Source\PSoC4/cyfitter_cfg.c **** *  Sets up the analog portions of the chip to default values based on chip
 285:Generated_Source\PSoC4/cyfitter_cfg.c **** *  configuration options from the project.
 286:Generated_Source\PSoC4/cyfitter_cfg.c **** *
 287:Generated_Source\PSoC4/cyfitter_cfg.c **** * Parameters:
 288:Generated_Source\PSoC4/cyfitter_cfg.c **** *  void
 289:Generated_Source\PSoC4/cyfitter_cfg.c **** *
 290:Generated_Source\PSoC4/cyfitter_cfg.c **** * Return:
 291:Generated_Source\PSoC4/cyfitter_cfg.c **** *  void
 292:Generated_Source\PSoC4/cyfitter_cfg.c **** *
 293:Generated_Source\PSoC4/cyfitter_cfg.c **** *******************************************************************************/
ARM GAS  C:\Users\Ade0n\AppData\Local\Temp\cc0UjuQa.s 			page 8


 294:Generated_Source\PSoC4/cyfitter_cfg.c **** static void AnalogSetDefault(void);
 295:Generated_Source\PSoC4/cyfitter_cfg.c **** static void AnalogSetDefault(void)
 296:Generated_Source\PSoC4/cyfitter_cfg.c **** {
 104              		.loc 1 296 0
 105              		.cfi_startproc
 106              		@ args = 0, pretend = 0, frame = 0
 107              		@ frame_needed = 0, uses_anonymous_args = 0
 108              		@ link register save eliminated.
 297:Generated_Source\PSoC4/cyfitter_cfg.c **** 	CY_SET_XTND_REG32((void CYFAR *)CYREG_CTBM0_DFT_CTRL, 0x00000003u);
 109              		.loc 1 297 0
 110 0000 0323     		movs	r3, #3
 111 0002 044A     		ldr	r2, .L7
 112 0004 1360     		str	r3, [r2]
 298:Generated_Source\PSoC4/cyfitter_cfg.c **** 	CY_SET_XTND_REG32((void CYFAR *)CYREG_CTBM1_DFT_CTRL, 0x00000003u);
 113              		.loc 1 298 0
 114 0006 044A     		ldr	r2, .L7+4
 115 0008 1360     		str	r3, [r2]
 299:Generated_Source\PSoC4/cyfitter_cfg.c **** 	CY_SET_XTND_REG32((void CYFAR *)CYREG_PASS_DSAB_DSAB_CTRL, 0x00000000u);
 116              		.loc 1 299 0
 117 000a 0022     		movs	r2, #0
 118 000c 034B     		ldr	r3, .L7+8
 119 000e 1A60     		str	r2, [r3]
 300:Generated_Source\PSoC4/cyfitter_cfg.c **** }
 120              		.loc 1 300 0
 121              		@ sp needed
 122 0010 7047     		bx	lr
 123              	.L8:
 124 0012 C046     		.align	2
 125              	.L7:
 126 0014 30003040 		.word	1076887600
 127 0018 30003140 		.word	1076953136
 128 001c 000E3F40 		.word	1077874176
 129              		.cfi_endproc
 130              	.LFE7:
 131              		.size	AnalogSetDefault, .-AnalogSetDefault
 132              		.section	.text.CYMEMZERO,"ax",%progbits
 133              		.align	2
 134              		.code	16
 135              		.thumb_func
 136              		.type	CYMEMZERO, %function
 137              	CYMEMZERO:
 138              	.LFB2:
  77:Generated_Source\PSoC4/cyfitter_cfg.c **** 	(void)memset(s, 0, n);
 139              		.loc 1 77 0
 140              		.cfi_startproc
 141              		@ args = 0, pretend = 0, frame = 0
 142              		@ frame_needed = 0, uses_anonymous_args = 0
 143              	.LVL12:
 144 0000 10B5     		push	{r4, lr}
 145              		.cfi_def_cfa_offset 8
 146              		.cfi_offset 4, -8
 147              		.cfi_offset 14, -4
 148 0002 0A00     		movs	r2, r1
  78:Generated_Source\PSoC4/cyfitter_cfg.c **** }
 149              		.loc 1 78 0
 150 0004 0021     		movs	r1, #0
 151              	.LVL13:
ARM GAS  C:\Users\Ade0n\AppData\Local\Temp\cc0UjuQa.s 			page 9


 152 0006 FFF7FEFF 		bl	memset
 153              	.LVL14:
  79:Generated_Source\PSoC4/cyfitter_cfg.c **** CY_CFG_UNUSED
 154              		.loc 1 79 0
 155              		@ sp needed
 156 000a 10BD     		pop	{r4, pc}
 157              		.cfi_endproc
 158              	.LFE2:
 159              		.size	CYMEMZERO, .-CYMEMZERO
 160              		.section	.psocinit,"ax",%progbits
 161              		.align	2
 162              		.code	16
 163              		.thumb_func
 164              		.type	ClockSetup, %function
 165              	ClockSetup:
 166              	.LFB6:
 212:Generated_Source\PSoC4/cyfitter_cfg.c **** 
 167              		.loc 1 212 0
 168              		.cfi_startproc
 169              		@ args = 0, pretend = 0, frame = 0
 170              		@ frame_needed = 0, uses_anonymous_args = 0
 171 0000 70B5     		push	{r4, r5, r6, lr}
 172              		.cfi_def_cfa_offset 16
 173              		.cfi_offset 4, -16
 174              		.cfi_offset 5, -12
 175              		.cfi_offset 6, -8
 176              		.cfi_offset 14, -4
 215:Generated_Source\PSoC4/cyfitter_cfg.c **** 
 177              		.loc 1 215 0
 178 0002 1222     		movs	r2, #18
 179 0004 2F4B     		ldr	r3, .L11
 180 0006 1A60     		str	r2, [r3]
 218:Generated_Source\PSoC4/cyfitter_cfg.c **** 	CyDelayCycles(12000000u); /* WCO may take up to 500ms to start */
 181              		.loc 1 218 0
 182 0008 FFF7FEFF 		bl	CySysClkWcoStart
 183              	.LVL15:
 219:Generated_Source\PSoC4/cyfitter_cfg.c **** 	(void)CySysClkWcoSetPowerMode(CY_SYS_CLK_WCO_LPM);    /* Switch to the low power mode */
 184              		.loc 1 219 0
 185 000c 2E48     		ldr	r0, .L11+4
 186 000e FFF7FEFF 		bl	CyDelayCycles
 187              	.LVL16:
 220:Generated_Source\PSoC4/cyfitter_cfg.c **** 
 188              		.loc 1 220 0
 189 0012 0120     		movs	r0, #1
 190 0014 FFF7FEFF 		bl	CySysClkWcoSetPowerMode
 191              	.LVL17:
 223:Generated_Source\PSoC4/cyfitter_cfg.c **** 	/* CYDEV_CLK_ILO_CONFIG Starting address: CYDEV_CLK_ILO_CONFIG */
 192              		.loc 1 223 0
 193 0018 3020     		movs	r0, #48
 194 001a FFF7FEFF 		bl	CySysClkWriteImoFreq
 195              	.LVL18:
 225:Generated_Source\PSoC4/cyfitter_cfg.c **** 
 196              		.loc 1 225 0
 197 001e 2B4A     		ldr	r2, .L11+8
 198 0020 2B4B     		ldr	r3, .L11+12
 199 0022 1A60     		str	r2, [r3]
 228:Generated_Source\PSoC4/cyfitter_cfg.c **** 
ARM GAS  C:\Users\Ade0n\AppData\Local\Temp\cc0UjuQa.s 			page 10


 200              		.loc 1 228 0
 201 0024 2B4C     		ldr	r4, .L11+16
 202 0026 8025     		movs	r5, #128
 203 0028 ED05     		lsls	r5, r5, #23
 204 002a 2560     		str	r5, [r4]
 232:Generated_Source\PSoC4/cyfitter_cfg.c **** 	CY_SET_REG32((void *)(CYREG_BLE_BLERD_BB_XO_CAPTRIM), 0x00003E2Du);
 205              		.loc 1 232 0
 206 002c 2A4A     		ldr	r2, .L11+20
 207 002e 1168     		ldr	r1, [r2]
 208 0030 0223     		movs	r3, #2
 209 0032 0B43     		orrs	r3, r1
 210 0034 1360     		str	r3, [r2]
 233:Generated_Source\PSoC4/cyfitter_cfg.c **** 	/*Set XTAL(ECO) divider*/
 211              		.loc 1 233 0
 212 0036 294A     		ldr	r2, .L11+24
 213 0038 294B     		ldr	r3, .L11+28
 214 003a 1A60     		str	r2, [r3]
 235:Generated_Source\PSoC4/cyfitter_cfg.c **** 	/* Disable Crystal Stable Interrupt before enabling ECO */
 215              		.loc 1 235 0
 216 003c 0022     		movs	r2, #0
 217 003e 294B     		ldr	r3, .L11+32
 218 0040 1A60     		str	r2, [r3]
 237:Generated_Source\PSoC4/cyfitter_cfg.c **** 	/* Start the ECO and do not check status since it is not needed for HFCLK */
 219              		.loc 1 237 0
 220 0042 294A     		ldr	r2, .L11+36
 221 0044 1368     		ldr	r3, [r2]
 222 0046 0821     		movs	r1, #8
 223 0048 8B43     		bics	r3, r1
 224 004a 1360     		str	r3, [r2]
 239:Generated_Source\PSoC4/cyfitter_cfg.c **** 	CyDelayUs(1500u); /* Wait to stabilize */
 225              		.loc 1 239 0
 226 004c FA20     		movs	r0, #250
 227 004e C000     		lsls	r0, r0, #3
 228 0050 FFF7FEFF 		bl	CySysClkEcoStart
 229              	.LVL19:
 240:Generated_Source\PSoC4/cyfitter_cfg.c **** 
 230              		.loc 1 240 0
 231 0054 2548     		ldr	r0, .L11+40
 232 0056 FFF7FEFF 		bl	CyDelayUs
 233              	.LVL20:
 243:Generated_Source\PSoC4/cyfitter_cfg.c **** 	CY_SET_REG32((void *)CYREG_PERI_DIV_CMD, 0x8000FF40u);
 234              		.loc 1 243 0
 235 005a 8022     		movs	r2, #128
 236 005c 5200     		lsls	r2, r2, #1
 237 005e 244B     		ldr	r3, .L11+44
 238 0060 1A60     		str	r2, [r3]
 244:Generated_Source\PSoC4/cyfitter_cfg.c **** 	CY_SET_REG32((void *)CYREG_PERI_DIV_16_CTL1, 0x00000300u);
 239              		.loc 1 244 0
 240 0062 244B     		ldr	r3, .L11+48
 241 0064 244A     		ldr	r2, .L11+52
 242 0066 1A60     		str	r2, [r3]
 245:Generated_Source\PSoC4/cyfitter_cfg.c **** 	CY_SET_REG32((void *)CYREG_PERI_DIV_CMD, 0x8000FF41u);
 243              		.loc 1 245 0
 244 0068 C021     		movs	r1, #192
 245 006a 8900     		lsls	r1, r1, #2
 246 006c 234A     		ldr	r2, .L11+56
 247 006e 1160     		str	r1, [r2]
ARM GAS  C:\Users\Ade0n\AppData\Local\Temp\cc0UjuQa.s 			page 11


 246:Generated_Source\PSoC4/cyfitter_cfg.c **** 	CY_SET_REG32((void *)CYREG_PERI_DIV_16_CTL3, 0x00BB7F00u);
 248              		.loc 1 246 0
 249 0070 234A     		ldr	r2, .L11+60
 250 0072 1A60     		str	r2, [r3]
 247:Generated_Source\PSoC4/cyfitter_cfg.c **** 	CY_SET_REG32((void *)CYREG_PERI_DIV_CMD, 0x8000FF43u);
 251              		.loc 1 247 0
 252 0074 2349     		ldr	r1, .L11+64
 253 0076 244A     		ldr	r2, .L11+68
 254 0078 1160     		str	r1, [r2]
 248:Generated_Source\PSoC4/cyfitter_cfg.c **** 	CY_SET_REG32((void *)CYREG_PERI_DIV_16_CTL2, 0x00002200u);
 255              		.loc 1 248 0
 256 007a 244A     		ldr	r2, .L11+72
 257 007c 1A60     		str	r2, [r3]
 249:Generated_Source\PSoC4/cyfitter_cfg.c **** 	CY_SET_REG32((void *)CYREG_PERI_DIV_CMD, 0x8000FF42u);
 258              		.loc 1 249 0
 259 007e 8821     		movs	r1, #136
 260 0080 8901     		lsls	r1, r1, #6
 261 0082 234A     		ldr	r2, .L11+76
 262 0084 1160     		str	r1, [r2]
 250:Generated_Source\PSoC4/cyfitter_cfg.c **** 
 263              		.loc 1 250 0
 264 0086 234A     		ldr	r2, .L11+80
 265 0088 1A60     		str	r2, [r3]
 253:Generated_Source\PSoC4/cyfitter_cfg.c **** 
 266              		.loc 1 253 0
 267 008a 8022     		movs	r2, #128
 268 008c 1206     		lsls	r2, r2, #24
 269 008e 224B     		ldr	r3, .L11+84
 270 0090 1A60     		str	r2, [r3]
 256:Generated_Source\PSoC4/cyfitter_cfg.c **** 
 271              		.loc 1 256 0
 272 0092 8022     		movs	r2, #128
 273 0094 D202     		lsls	r2, r2, #11
 274 0096 214B     		ldr	r3, .L11+88
 275 0098 1A60     		str	r2, [r3]
 259:Generated_Source\PSoC4/cyfitter_cfg.c **** 
 276              		.loc 1 259 0
 277 009a 4022     		movs	r2, #64
 278 009c 204B     		ldr	r3, .L11+92
 279 009e 1A60     		str	r2, [r3]
 262:Generated_Source\PSoC4/cyfitter_cfg.c **** 
 280              		.loc 1 262 0
 281 00a0 0132     		adds	r2, r2, #1
 282 00a2 204B     		ldr	r3, .L11+96
 283 00a4 1A60     		str	r2, [r3]
 265:Generated_Source\PSoC4/cyfitter_cfg.c **** 
 284              		.loc 1 265 0
 285 00a6 0232     		adds	r2, r2, #2
 286 00a8 1F4B     		ldr	r3, .L11+100
 287 00aa 1A60     		str	r2, [r3]
 268:Generated_Source\PSoC4/cyfitter_cfg.c **** 
 288              		.loc 1 268 0
 289 00ac 013A     		subs	r2, r2, #1
 290 00ae 1F4B     		ldr	r3, .L11+104
 291 00b0 1A60     		str	r2, [r3]
 270:Generated_Source\PSoC4/cyfitter_cfg.c **** 	CyIntEnable(8u);
 292              		.loc 1 270 0
ARM GAS  C:\Users\Ade0n\AppData\Local\Temp\cc0UjuQa.s 			page 12


 293 00b2 1F49     		ldr	r1, .L11+108
 294 00b4 0820     		movs	r0, #8
 295 00b6 FFF7FEFF 		bl	CyIntSetVector
 296              	.LVL21:
 271:Generated_Source\PSoC4/cyfitter_cfg.c **** 	CY_SET_REG32((void *)(CYREG_WDT_CONFIG), 0x40000000u);
 297              		.loc 1 271 0
 298 00ba 0820     		movs	r0, #8
 299 00bc FFF7FEFF 		bl	CyIntEnable
 300              	.LVL22:
 272:Generated_Source\PSoC4/cyfitter_cfg.c **** }
 301              		.loc 1 272 0
 302 00c0 2560     		str	r5, [r4]
 273:Generated_Source\PSoC4/cyfitter_cfg.c **** 
 303              		.loc 1 273 0
 304              		@ sp needed
 305 00c2 70BD     		pop	{r4, r5, r6, pc}
 306              	.L12:
 307              		.align	2
 308              	.L11:
 309 00c4 30001040 		.word	1074790448
 310 00c8 001BB700 		.word	12000000
 311 00cc 06000080 		.word	-2147483642
 312 00d0 04010B40 		.word	1074462980
 313 00d4 0C020B40 		.word	1074463244
 314 00d8 78002E40 		.word	1076756600
 315 00dc 2D3E0000 		.word	15917
 316 00e0 7C002E40 		.word	1076756604
 317 00e4 64F02E40 		.word	1076818020
 318 00e8 6CF02E40 		.word	1076818028
 319 00ec DC050000 		.word	1500
 320 00f0 00030140 		.word	1073808128
 321 00f4 00000140 		.word	1073807360
 322 00f8 40FF0080 		.word	-2147418304
 323 00fc 04030140 		.word	1073808132
 324 0100 41FF0080 		.word	-2147418303
 325 0104 007FBB00 		.word	12287744
 326 0108 0C030140 		.word	1073808140
 327 010c 43FF0080 		.word	-2147418301
 328 0110 08030140 		.word	1073808136
 329 0114 42FF0080 		.word	-2147418302
 330 0118 08010B40 		.word	1074462984
 331 011c 00010B40 		.word	1074462976
 332 0120 2C010140 		.word	1073807660
 333 0124 20010140 		.word	1073807648
 334 0128 1C010140 		.word	1073807644
 335 012c 04010140 		.word	1073807620
 336 0130 00000000 		.word	CySysWdtIsr
 337              		.cfi_endproc
 338              	.LFE6:
 339              		.size	ClockSetup, .-ClockSetup
 340              		.align	2
 341              		.global	cyfitter_cfg
 342              		.code	16
 343              		.thumb_func
 344              		.type	cyfitter_cfg, %function
 345              	cyfitter_cfg:
 346              	.LFB8:
ARM GAS  C:\Users\Ade0n\AppData\Local\Temp\cc0UjuQa.s 			page 13


 301:Generated_Source\PSoC4/cyfitter_cfg.c **** 
 302:Generated_Source\PSoC4/cyfitter_cfg.c **** 
 303:Generated_Source\PSoC4/cyfitter_cfg.c **** 
 304:Generated_Source\PSoC4/cyfitter_cfg.c **** 
 305:Generated_Source\PSoC4/cyfitter_cfg.c **** /*******************************************************************************
 306:Generated_Source\PSoC4/cyfitter_cfg.c **** * Function Name: cyfitter_cfg
 307:Generated_Source\PSoC4/cyfitter_cfg.c **** ********************************************************************************
 308:Generated_Source\PSoC4/cyfitter_cfg.c **** * Summary:
 309:Generated_Source\PSoC4/cyfitter_cfg.c **** *  This function is called by the start-up code for the selected device. It
 310:Generated_Source\PSoC4/cyfitter_cfg.c **** *  performs all of the necessary device configuration based on the design
 311:Generated_Source\PSoC4/cyfitter_cfg.c **** *  settings.  This includes settings from the Design Wide Resources (DWR) such
 312:Generated_Source\PSoC4/cyfitter_cfg.c **** *  as Clocks and Pins as well as any component configuration that is necessary.
 313:Generated_Source\PSoC4/cyfitter_cfg.c **** *
 314:Generated_Source\PSoC4/cyfitter_cfg.c **** * Parameters:
 315:Generated_Source\PSoC4/cyfitter_cfg.c **** *   void
 316:Generated_Source\PSoC4/cyfitter_cfg.c **** *
 317:Generated_Source\PSoC4/cyfitter_cfg.c **** * Return:
 318:Generated_Source\PSoC4/cyfitter_cfg.c **** *   void
 319:Generated_Source\PSoC4/cyfitter_cfg.c **** *
 320:Generated_Source\PSoC4/cyfitter_cfg.c **** *******************************************************************************/
 321:Generated_Source\PSoC4/cyfitter_cfg.c **** CY_CFG_SECTION
 322:Generated_Source\PSoC4/cyfitter_cfg.c **** void cyfitter_cfg(void)
 323:Generated_Source\PSoC4/cyfitter_cfg.c **** {
 347              		.loc 1 323 0
 348              		.cfi_startproc
 349              		@ args = 0, pretend = 0, frame = 0
 350              		@ frame_needed = 0, uses_anonymous_args = 0
 351 0134 10B5     		push	{r4, lr}
 352              		.cfi_def_cfa_offset 8
 353              		.cfi_offset 4, -8
 354              		.cfi_offset 14, -4
 324:Generated_Source\PSoC4/cyfitter_cfg.c **** 	/* Disable interrupts by default. Let user enable if/when they want. */
 325:Generated_Source\PSoC4/cyfitter_cfg.c **** 	CyGlobalIntDisable;
 355              		.loc 1 325 0
 356              		.syntax divided
 357              	@ 325 "Generated_Source\PSoC4\cyfitter_cfg.c" 1
 358 0136 72B6     		CPSID   i
 359              	@ 0 "" 2
 326:Generated_Source\PSoC4/cyfitter_cfg.c **** 
 327:Generated_Source\PSoC4/cyfitter_cfg.c **** 	CY_SET_REG32((void *)(CYREG_BLE_BLESS_LL_DSM_CTRL), 0x00000000u);
 360              		.loc 1 327 0
 361              		.thumb
 362              		.syntax unified
 363 0138 0022     		movs	r2, #0
 364 013a 2E4B     		ldr	r3, .L16
 365 013c 1A60     		str	r2, [r3]
 366              	.LVL23:
 367              	.LBB3:
 328:Generated_Source\PSoC4/cyfitter_cfg.c **** 
 329:Generated_Source\PSoC4/cyfitter_cfg.c **** 	{
 330:Generated_Source\PSoC4/cyfitter_cfg.c **** 		static const uint32 CYCODE cy_cfg_addr_table[] = {
 331:Generated_Source\PSoC4/cyfitter_cfg.c **** 			0x400F0001u, /* Base address: 0x400F0000 Count: 1 */
 332:Generated_Source\PSoC4/cyfitter_cfg.c **** 			0x400F3042u, /* Base address: 0x400F3000 Count: 66 */
 333:Generated_Source\PSoC4/cyfitter_cfg.c **** 			0x400F311Bu, /* Base address: 0x400F3100 Count: 27 */
 334:Generated_Source\PSoC4/cyfitter_cfg.c **** 			0x400F3255u, /* Base address: 0x400F3200 Count: 85 */
 335:Generated_Source\PSoC4/cyfitter_cfg.c **** 			0x400F3333u, /* Base address: 0x400F3300 Count: 51 */
 336:Generated_Source\PSoC4/cyfitter_cfg.c **** 			0x400F4002u, /* Base address: 0x400F4000 Count: 2 */
ARM GAS  C:\Users\Ade0n\AppData\Local\Temp\cc0UjuQa.s 			page 14


 337:Generated_Source\PSoC4/cyfitter_cfg.c **** 			0x400F4106u, /* Base address: 0x400F4100 Count: 6 */
 338:Generated_Source\PSoC4/cyfitter_cfg.c **** 			0x400F4203u, /* Base address: 0x400F4200 Count: 3 */
 339:Generated_Source\PSoC4/cyfitter_cfg.c **** 			0x400F4306u, /* Base address: 0x400F4300 Count: 6 */
 340:Generated_Source\PSoC4/cyfitter_cfg.c **** 			0x400F6002u, /* Base address: 0x400F6000 Count: 2 */
 341:Generated_Source\PSoC4/cyfitter_cfg.c **** 		};
 342:Generated_Source\PSoC4/cyfitter_cfg.c **** 
 343:Generated_Source\PSoC4/cyfitter_cfg.c **** 		static const cy_cfg_addrvalue_t CYCODE cy_cfg_data_table[] = {
 344:Generated_Source\PSoC4/cyfitter_cfg.c **** 			{0x83u, 0x77u},
 345:Generated_Source\PSoC4/cyfitter_cfg.c **** 			{0x03u, 0x01u},
 346:Generated_Source\PSoC4/cyfitter_cfg.c **** 			{0x0Eu, 0x01u},
 347:Generated_Source\PSoC4/cyfitter_cfg.c **** 			{0x21u, 0x01u},
 348:Generated_Source\PSoC4/cyfitter_cfg.c **** 			{0x2Fu, 0x01u},
 349:Generated_Source\PSoC4/cyfitter_cfg.c **** 			{0x30u, 0x01u},
 350:Generated_Source\PSoC4/cyfitter_cfg.c **** 			{0x37u, 0x01u},
 351:Generated_Source\PSoC4/cyfitter_cfg.c **** 			{0x38u, 0x20u},
 352:Generated_Source\PSoC4/cyfitter_cfg.c **** 			{0x3Eu, 0x10u},
 353:Generated_Source\PSoC4/cyfitter_cfg.c **** 			{0x3Fu, 0x40u},
 354:Generated_Source\PSoC4/cyfitter_cfg.c **** 			{0x40u, 0x14u},
 355:Generated_Source\PSoC4/cyfitter_cfg.c **** 			{0x41u, 0x02u},
 356:Generated_Source\PSoC4/cyfitter_cfg.c **** 			{0x42u, 0x04u},
 357:Generated_Source\PSoC4/cyfitter_cfg.c **** 			{0x49u, 0xFFu},
 358:Generated_Source\PSoC4/cyfitter_cfg.c **** 			{0x4Au, 0xFFu},
 359:Generated_Source\PSoC4/cyfitter_cfg.c **** 			{0x4Bu, 0xFFu},
 360:Generated_Source\PSoC4/cyfitter_cfg.c **** 			{0x4Du, 0xA0u},
 361:Generated_Source\PSoC4/cyfitter_cfg.c **** 			{0x4Fu, 0x01u},
 362:Generated_Source\PSoC4/cyfitter_cfg.c **** 			{0x50u, 0x18u},
 363:Generated_Source\PSoC4/cyfitter_cfg.c **** 			{0x52u, 0x87u},
 364:Generated_Source\PSoC4/cyfitter_cfg.c **** 			{0x58u, 0x04u},
 365:Generated_Source\PSoC4/cyfitter_cfg.c **** 			{0x59u, 0x04u},
 366:Generated_Source\PSoC4/cyfitter_cfg.c **** 			{0x5Au, 0x04u},
 367:Generated_Source\PSoC4/cyfitter_cfg.c **** 			{0x5Bu, 0x04u},
 368:Generated_Source\PSoC4/cyfitter_cfg.c **** 			{0x5Fu, 0x01u},
 369:Generated_Source\PSoC4/cyfitter_cfg.c **** 			{0x60u, 0x40u},
 370:Generated_Source\PSoC4/cyfitter_cfg.c **** 			{0x62u, 0x80u},
 371:Generated_Source\PSoC4/cyfitter_cfg.c **** 			{0x64u, 0x40u},
 372:Generated_Source\PSoC4/cyfitter_cfg.c **** 			{0x65u, 0x40u},
 373:Generated_Source\PSoC4/cyfitter_cfg.c **** 			{0x66u, 0x80u},
 374:Generated_Source\PSoC4/cyfitter_cfg.c **** 			{0x68u, 0x40u},
 375:Generated_Source\PSoC4/cyfitter_cfg.c **** 			{0x6Au, 0x50u},
 376:Generated_Source\PSoC4/cyfitter_cfg.c **** 			{0x6Bu, 0xA8u},
 377:Generated_Source\PSoC4/cyfitter_cfg.c **** 			{0x6Cu, 0x40u},
 378:Generated_Source\PSoC4/cyfitter_cfg.c **** 			{0x6Du, 0x20u},
 379:Generated_Source\PSoC4/cyfitter_cfg.c **** 			{0x6Eu, 0x50u},
 380:Generated_Source\PSoC4/cyfitter_cfg.c **** 			{0x6Fu, 0xA8u},
 381:Generated_Source\PSoC4/cyfitter_cfg.c **** 			{0x99u, 0x01u},
 382:Generated_Source\PSoC4/cyfitter_cfg.c **** 			{0xABu, 0x03u},
 383:Generated_Source\PSoC4/cyfitter_cfg.c **** 			{0xB3u, 0x02u},
 384:Generated_Source\PSoC4/cyfitter_cfg.c **** 			{0xB7u, 0x01u},
 385:Generated_Source\PSoC4/cyfitter_cfg.c **** 			{0xBFu, 0x40u},
 386:Generated_Source\PSoC4/cyfitter_cfg.c **** 			{0xC0u, 0x41u},
 387:Generated_Source\PSoC4/cyfitter_cfg.c **** 			{0xC1u, 0x06u},
 388:Generated_Source\PSoC4/cyfitter_cfg.c **** 			{0xC2u, 0x01u},
 389:Generated_Source\PSoC4/cyfitter_cfg.c **** 			{0xC9u, 0xFFu},
 390:Generated_Source\PSoC4/cyfitter_cfg.c **** 			{0xCAu, 0xFFu},
 391:Generated_Source\PSoC4/cyfitter_cfg.c **** 			{0xCBu, 0xFFu},
 392:Generated_Source\PSoC4/cyfitter_cfg.c **** 			{0xCDu, 0xAFu},
 393:Generated_Source\PSoC4/cyfitter_cfg.c **** 			{0xCEu, 0x07u},
ARM GAS  C:\Users\Ade0n\AppData\Local\Temp\cc0UjuQa.s 			page 15


 394:Generated_Source\PSoC4/cyfitter_cfg.c **** 			{0xCFu, 0x01u},
 395:Generated_Source\PSoC4/cyfitter_cfg.c **** 			{0xD0u, 0x18u},
 396:Generated_Source\PSoC4/cyfitter_cfg.c **** 			{0xD9u, 0x04u},
 397:Generated_Source\PSoC4/cyfitter_cfg.c **** 			{0xDAu, 0x04u},
 398:Generated_Source\PSoC4/cyfitter_cfg.c **** 			{0xDFu, 0x01u},
 399:Generated_Source\PSoC4/cyfitter_cfg.c **** 			{0xE0u, 0x40u},
 400:Generated_Source\PSoC4/cyfitter_cfg.c **** 			{0xE2u, 0x80u},
 401:Generated_Source\PSoC4/cyfitter_cfg.c **** 			{0xE4u, 0x40u},
 402:Generated_Source\PSoC4/cyfitter_cfg.c **** 			{0xE5u, 0x40u},
 403:Generated_Source\PSoC4/cyfitter_cfg.c **** 			{0xE6u, 0x80u},
 404:Generated_Source\PSoC4/cyfitter_cfg.c **** 			{0xE8u, 0x40u},
 405:Generated_Source\PSoC4/cyfitter_cfg.c **** 			{0xEAu, 0x50u},
 406:Generated_Source\PSoC4/cyfitter_cfg.c **** 			{0xEBu, 0xA8u},
 407:Generated_Source\PSoC4/cyfitter_cfg.c **** 			{0xECu, 0x40u},
 408:Generated_Source\PSoC4/cyfitter_cfg.c **** 			{0xEDu, 0x20u},
 409:Generated_Source\PSoC4/cyfitter_cfg.c **** 			{0xEEu, 0x50u},
 410:Generated_Source\PSoC4/cyfitter_cfg.c **** 			{0xEFu, 0xA8u},
 411:Generated_Source\PSoC4/cyfitter_cfg.c **** 			{0x01u, 0x80u},
 412:Generated_Source\PSoC4/cyfitter_cfg.c **** 			{0x18u, 0x08u},
 413:Generated_Source\PSoC4/cyfitter_cfg.c **** 			{0x19u, 0x01u},
 414:Generated_Source\PSoC4/cyfitter_cfg.c **** 			{0x1Bu, 0x20u},
 415:Generated_Source\PSoC4/cyfitter_cfg.c **** 			{0x20u, 0x01u},
 416:Generated_Source\PSoC4/cyfitter_cfg.c **** 			{0x23u, 0x02u},
 417:Generated_Source\PSoC4/cyfitter_cfg.c **** 			{0x25u, 0x80u},
 418:Generated_Source\PSoC4/cyfitter_cfg.c **** 			{0x27u, 0x21u},
 419:Generated_Source\PSoC4/cyfitter_cfg.c **** 			{0x29u, 0x01u},
 420:Generated_Source\PSoC4/cyfitter_cfg.c **** 			{0x2Au, 0x80u},
 421:Generated_Source\PSoC4/cyfitter_cfg.c **** 			{0x2Eu, 0x10u},
 422:Generated_Source\PSoC4/cyfitter_cfg.c **** 			{0x37u, 0x20u},
 423:Generated_Source\PSoC4/cyfitter_cfg.c **** 			{0x38u, 0x02u},
 424:Generated_Source\PSoC4/cyfitter_cfg.c **** 			{0x40u, 0x01u},
 425:Generated_Source\PSoC4/cyfitter_cfg.c **** 			{0x43u, 0x21u},
 426:Generated_Source\PSoC4/cyfitter_cfg.c **** 			{0x45u, 0x80u},
 427:Generated_Source\PSoC4/cyfitter_cfg.c **** 			{0x47u, 0x02u},
 428:Generated_Source\PSoC4/cyfitter_cfg.c **** 			{0x4Cu, 0x04u},
 429:Generated_Source\PSoC4/cyfitter_cfg.c **** 			{0x68u, 0x2Au},
 430:Generated_Source\PSoC4/cyfitter_cfg.c **** 			{0x69u, 0x14u},
 431:Generated_Source\PSoC4/cyfitter_cfg.c **** 			{0x70u, 0x01u},
 432:Generated_Source\PSoC4/cyfitter_cfg.c **** 			{0xC0u, 0x01u},
 433:Generated_Source\PSoC4/cyfitter_cfg.c **** 			{0xCAu, 0x29u},
 434:Generated_Source\PSoC4/cyfitter_cfg.c **** 			{0xCCu, 0x20u},
 435:Generated_Source\PSoC4/cyfitter_cfg.c **** 			{0xCEu, 0x01u},
 436:Generated_Source\PSoC4/cyfitter_cfg.c **** 			{0xD0u, 0x9Du},
 437:Generated_Source\PSoC4/cyfitter_cfg.c **** 			{0xD2u, 0x20u},
 438:Generated_Source\PSoC4/cyfitter_cfg.c **** 			{0x40u, 0x41u},
 439:Generated_Source\PSoC4/cyfitter_cfg.c **** 			{0x41u, 0x06u},
 440:Generated_Source\PSoC4/cyfitter_cfg.c **** 			{0x42u, 0x01u},
 441:Generated_Source\PSoC4/cyfitter_cfg.c **** 			{0x49u, 0xFFu},
 442:Generated_Source\PSoC4/cyfitter_cfg.c **** 			{0x4Au, 0xFFu},
 443:Generated_Source\PSoC4/cyfitter_cfg.c **** 			{0x4Bu, 0xFFu},
 444:Generated_Source\PSoC4/cyfitter_cfg.c **** 			{0x4Du, 0xAFu},
 445:Generated_Source\PSoC4/cyfitter_cfg.c **** 			{0x4Eu, 0x07u},
 446:Generated_Source\PSoC4/cyfitter_cfg.c **** 			{0x4Fu, 0x01u},
 447:Generated_Source\PSoC4/cyfitter_cfg.c **** 			{0x50u, 0x18u},
 448:Generated_Source\PSoC4/cyfitter_cfg.c **** 			{0x5Au, 0x04u},
 449:Generated_Source\PSoC4/cyfitter_cfg.c **** 			{0x5Fu, 0x01u},
 450:Generated_Source\PSoC4/cyfitter_cfg.c **** 			{0x60u, 0x40u},
ARM GAS  C:\Users\Ade0n\AppData\Local\Temp\cc0UjuQa.s 			page 16


 451:Generated_Source\PSoC4/cyfitter_cfg.c **** 			{0x62u, 0x80u},
 452:Generated_Source\PSoC4/cyfitter_cfg.c **** 			{0x64u, 0x40u},
 453:Generated_Source\PSoC4/cyfitter_cfg.c **** 			{0x65u, 0x40u},
 454:Generated_Source\PSoC4/cyfitter_cfg.c **** 			{0x66u, 0x80u},
 455:Generated_Source\PSoC4/cyfitter_cfg.c **** 			{0x68u, 0x40u},
 456:Generated_Source\PSoC4/cyfitter_cfg.c **** 			{0x6Au, 0x50u},
 457:Generated_Source\PSoC4/cyfitter_cfg.c **** 			{0x6Bu, 0xA8u},
 458:Generated_Source\PSoC4/cyfitter_cfg.c **** 			{0x6Cu, 0x40u},
 459:Generated_Source\PSoC4/cyfitter_cfg.c **** 			{0x6Du, 0x20u},
 460:Generated_Source\PSoC4/cyfitter_cfg.c **** 			{0x6Eu, 0x50u},
 461:Generated_Source\PSoC4/cyfitter_cfg.c **** 			{0x6Fu, 0xA8u},
 462:Generated_Source\PSoC4/cyfitter_cfg.c **** 			{0x83u, 0x20u},
 463:Generated_Source\PSoC4/cyfitter_cfg.c **** 			{0x85u, 0x07u},
 464:Generated_Source\PSoC4/cyfitter_cfg.c **** 			{0x87u, 0x08u},
 465:Generated_Source\PSoC4/cyfitter_cfg.c **** 			{0x89u, 0x01u},
 466:Generated_Source\PSoC4/cyfitter_cfg.c **** 			{0x8Bu, 0x12u},
 467:Generated_Source\PSoC4/cyfitter_cfg.c **** 			{0x8Cu, 0x20u},
 468:Generated_Source\PSoC4/cyfitter_cfg.c **** 			{0x8Du, 0x18u},
 469:Generated_Source\PSoC4/cyfitter_cfg.c **** 			{0x8Eu, 0x08u},
 470:Generated_Source\PSoC4/cyfitter_cfg.c **** 			{0x8Fu, 0x03u},
 471:Generated_Source\PSoC4/cyfitter_cfg.c **** 			{0x90u, 0x0Cu},
 472:Generated_Source\PSoC4/cyfitter_cfg.c **** 			{0x91u, 0x06u},
 473:Generated_Source\PSoC4/cyfitter_cfg.c **** 			{0x92u, 0x22u},
 474:Generated_Source\PSoC4/cyfitter_cfg.c **** 			{0x93u, 0x11u},
 475:Generated_Source\PSoC4/cyfitter_cfg.c **** 			{0x9Eu, 0x01u},
 476:Generated_Source\PSoC4/cyfitter_cfg.c **** 			{0xA0u, 0x30u},
 477:Generated_Source\PSoC4/cyfitter_cfg.c **** 			{0xA1u, 0x10u},
 478:Generated_Source\PSoC4/cyfitter_cfg.c **** 			{0xA2u, 0x06u},
 479:Generated_Source\PSoC4/cyfitter_cfg.c **** 			{0xA3u, 0x04u},
 480:Generated_Source\PSoC4/cyfitter_cfg.c **** 			{0xA4u, 0x0Eu},
 481:Generated_Source\PSoC4/cyfitter_cfg.c **** 			{0xA5u, 0x1Fu},
 482:Generated_Source\PSoC4/cyfitter_cfg.c **** 			{0xA6u, 0x10u},
 483:Generated_Source\PSoC4/cyfitter_cfg.c **** 			{0xA8u, 0x02u},
 484:Generated_Source\PSoC4/cyfitter_cfg.c **** 			{0xAAu, 0x24u},
 485:Generated_Source\PSoC4/cyfitter_cfg.c **** 			{0xADu, 0x20u},
 486:Generated_Source\PSoC4/cyfitter_cfg.c **** 			{0xB2u, 0x3Eu},
 487:Generated_Source\PSoC4/cyfitter_cfg.c **** 			{0xB3u, 0x20u},
 488:Generated_Source\PSoC4/cyfitter_cfg.c **** 			{0xB6u, 0x01u},
 489:Generated_Source\PSoC4/cyfitter_cfg.c **** 			{0xB7u, 0x1Fu},
 490:Generated_Source\PSoC4/cyfitter_cfg.c **** 			{0xBFu, 0x44u},
 491:Generated_Source\PSoC4/cyfitter_cfg.c **** 			{0xC0u, 0x14u},
 492:Generated_Source\PSoC4/cyfitter_cfg.c **** 			{0xC1u, 0x02u},
 493:Generated_Source\PSoC4/cyfitter_cfg.c **** 			{0xC2u, 0x04u},
 494:Generated_Source\PSoC4/cyfitter_cfg.c **** 			{0xC5u, 0x42u},
 495:Generated_Source\PSoC4/cyfitter_cfg.c **** 			{0xC6u, 0xC5u},
 496:Generated_Source\PSoC4/cyfitter_cfg.c **** 			{0xC7u, 0x0Eu},
 497:Generated_Source\PSoC4/cyfitter_cfg.c **** 			{0xC8u, 0x3Fu},
 498:Generated_Source\PSoC4/cyfitter_cfg.c **** 			{0xC9u, 0xFFu},
 499:Generated_Source\PSoC4/cyfitter_cfg.c **** 			{0xCAu, 0xFFu},
 500:Generated_Source\PSoC4/cyfitter_cfg.c **** 			{0xCBu, 0xFFu},
 501:Generated_Source\PSoC4/cyfitter_cfg.c **** 			{0xCDu, 0xAFu},
 502:Generated_Source\PSoC4/cyfitter_cfg.c **** 			{0xCEu, 0x07u},
 503:Generated_Source\PSoC4/cyfitter_cfg.c **** 			{0xCFu, 0x01u},
 504:Generated_Source\PSoC4/cyfitter_cfg.c **** 			{0xD0u, 0x18u},
 505:Generated_Source\PSoC4/cyfitter_cfg.c **** 			{0xD4u, 0x17u},
 506:Generated_Source\PSoC4/cyfitter_cfg.c **** 			{0xD8u, 0x04u},
 507:Generated_Source\PSoC4/cyfitter_cfg.c **** 			{0xD9u, 0x04u},
ARM GAS  C:\Users\Ade0n\AppData\Local\Temp\cc0UjuQa.s 			page 17


 508:Generated_Source\PSoC4/cyfitter_cfg.c **** 			{0xDAu, 0x04u},
 509:Generated_Source\PSoC4/cyfitter_cfg.c **** 			{0xDBu, 0x04u},
 510:Generated_Source\PSoC4/cyfitter_cfg.c **** 			{0xDFu, 0x01u},
 511:Generated_Source\PSoC4/cyfitter_cfg.c **** 			{0xE0u, 0x40u},
 512:Generated_Source\PSoC4/cyfitter_cfg.c **** 			{0xE2u, 0x80u},
 513:Generated_Source\PSoC4/cyfitter_cfg.c **** 			{0xE4u, 0x40u},
 514:Generated_Source\PSoC4/cyfitter_cfg.c **** 			{0xE5u, 0x40u},
 515:Generated_Source\PSoC4/cyfitter_cfg.c **** 			{0xE6u, 0x80u},
 516:Generated_Source\PSoC4/cyfitter_cfg.c **** 			{0xE8u, 0x40u},
 517:Generated_Source\PSoC4/cyfitter_cfg.c **** 			{0xEAu, 0x50u},
 518:Generated_Source\PSoC4/cyfitter_cfg.c **** 			{0xEBu, 0xA8u},
 519:Generated_Source\PSoC4/cyfitter_cfg.c **** 			{0xECu, 0x40u},
 520:Generated_Source\PSoC4/cyfitter_cfg.c **** 			{0xEDu, 0x20u},
 521:Generated_Source\PSoC4/cyfitter_cfg.c **** 			{0xEEu, 0x50u},
 522:Generated_Source\PSoC4/cyfitter_cfg.c **** 			{0xEFu, 0xA8u},
 523:Generated_Source\PSoC4/cyfitter_cfg.c **** 			{0x00u, 0x80u},
 524:Generated_Source\PSoC4/cyfitter_cfg.c **** 			{0x08u, 0x01u},
 525:Generated_Source\PSoC4/cyfitter_cfg.c **** 			{0x0Bu, 0x02u},
 526:Generated_Source\PSoC4/cyfitter_cfg.c **** 			{0x10u, 0xA8u},
 527:Generated_Source\PSoC4/cyfitter_cfg.c **** 			{0x19u, 0x48u},
 528:Generated_Source\PSoC4/cyfitter_cfg.c **** 			{0x22u, 0x44u},
 529:Generated_Source\PSoC4/cyfitter_cfg.c **** 			{0x29u, 0x49u},
 530:Generated_Source\PSoC4/cyfitter_cfg.c **** 			{0x30u, 0x03u},
 531:Generated_Source\PSoC4/cyfitter_cfg.c **** 			{0x38u, 0x80u},
 532:Generated_Source\PSoC4/cyfitter_cfg.c **** 			{0x39u, 0x16u},
 533:Generated_Source\PSoC4/cyfitter_cfg.c **** 			{0x40u, 0x01u},
 534:Generated_Source\PSoC4/cyfitter_cfg.c **** 			{0x43u, 0x21u},
 535:Generated_Source\PSoC4/cyfitter_cfg.c **** 			{0x45u, 0x80u},
 536:Generated_Source\PSoC4/cyfitter_cfg.c **** 			{0x47u, 0x02u},
 537:Generated_Source\PSoC4/cyfitter_cfg.c **** 			{0x48u, 0x40u},
 538:Generated_Source\PSoC4/cyfitter_cfg.c **** 			{0x49u, 0x01u},
 539:Generated_Source\PSoC4/cyfitter_cfg.c **** 			{0x4Au, 0x10u},
 540:Generated_Source\PSoC4/cyfitter_cfg.c **** 			{0x4Cu, 0x04u},
 541:Generated_Source\PSoC4/cyfitter_cfg.c **** 			{0x50u, 0xC0u},
 542:Generated_Source\PSoC4/cyfitter_cfg.c **** 			{0x51u, 0x09u},
 543:Generated_Source\PSoC4/cyfitter_cfg.c **** 			{0x52u, 0x10u},
 544:Generated_Source\PSoC4/cyfitter_cfg.c **** 			{0x53u, 0x01u},
 545:Generated_Source\PSoC4/cyfitter_cfg.c **** 			{0x58u, 0x20u},
 546:Generated_Source\PSoC4/cyfitter_cfg.c **** 			{0x5Au, 0x88u},
 547:Generated_Source\PSoC4/cyfitter_cfg.c **** 			{0x5Cu, 0x20u},
 548:Generated_Source\PSoC4/cyfitter_cfg.c **** 			{0x5Eu, 0x20u},
 549:Generated_Source\PSoC4/cyfitter_cfg.c **** 			{0x61u, 0x88u},
 550:Generated_Source\PSoC4/cyfitter_cfg.c **** 			{0x62u, 0x10u},
 551:Generated_Source\PSoC4/cyfitter_cfg.c **** 			{0x81u, 0x80u},
 552:Generated_Source\PSoC4/cyfitter_cfg.c **** 			{0x82u, 0x80u},
 553:Generated_Source\PSoC4/cyfitter_cfg.c **** 			{0x90u, 0x09u},
 554:Generated_Source\PSoC4/cyfitter_cfg.c **** 			{0x91u, 0x14u},
 555:Generated_Source\PSoC4/cyfitter_cfg.c **** 			{0x9Bu, 0x03u},
 556:Generated_Source\PSoC4/cyfitter_cfg.c **** 			{0x9Du, 0x80u},
 557:Generated_Source\PSoC4/cyfitter_cfg.c **** 			{0x9Eu, 0x80u},
 558:Generated_Source\PSoC4/cyfitter_cfg.c **** 			{0xA0u, 0x2Au},
 559:Generated_Source\PSoC4/cyfitter_cfg.c **** 			{0xA1u, 0x80u},
 560:Generated_Source\PSoC4/cyfitter_cfg.c **** 			{0xA3u, 0x20u},
 561:Generated_Source\PSoC4/cyfitter_cfg.c **** 			{0xB6u, 0x10u},
 562:Generated_Source\PSoC4/cyfitter_cfg.c **** 			{0xC0u, 0x01u},
 563:Generated_Source\PSoC4/cyfitter_cfg.c **** 			{0xC2u, 0x09u},
 564:Generated_Source\PSoC4/cyfitter_cfg.c **** 			{0xC4u, 0x0Eu},
ARM GAS  C:\Users\Ade0n\AppData\Local\Temp\cc0UjuQa.s 			page 18


 565:Generated_Source\PSoC4/cyfitter_cfg.c **** 			{0xCAu, 0x0Bu},
 566:Generated_Source\PSoC4/cyfitter_cfg.c **** 			{0xCCu, 0x01u},
 567:Generated_Source\PSoC4/cyfitter_cfg.c **** 			{0xCEu, 0x0Fu},
 568:Generated_Source\PSoC4/cyfitter_cfg.c **** 			{0xD0u, 0x9Du},
 569:Generated_Source\PSoC4/cyfitter_cfg.c **** 			{0xD2u, 0x20u},
 570:Generated_Source\PSoC4/cyfitter_cfg.c **** 			{0xD6u, 0x0Eu},
 571:Generated_Source\PSoC4/cyfitter_cfg.c **** 			{0xD8u, 0x0Eu},
 572:Generated_Source\PSoC4/cyfitter_cfg.c **** 			{0xE0u, 0x01u},
 573:Generated_Source\PSoC4/cyfitter_cfg.c **** 			{0xEAu, 0x01u},
 574:Generated_Source\PSoC4/cyfitter_cfg.c **** 			{0x5Bu, 0x80u},
 575:Generated_Source\PSoC4/cyfitter_cfg.c **** 			{0xD4u, 0x80u},
 576:Generated_Source\PSoC4/cyfitter_cfg.c **** 			{0x03u, 0x06u},
 577:Generated_Source\PSoC4/cyfitter_cfg.c **** 			{0x83u, 0x06u},
 578:Generated_Source\PSoC4/cyfitter_cfg.c **** 			{0xABu, 0x80u},
 579:Generated_Source\PSoC4/cyfitter_cfg.c **** 			{0xC0u, 0x40u},
 580:Generated_Source\PSoC4/cyfitter_cfg.c **** 			{0xE0u, 0xA0u},
 581:Generated_Source\PSoC4/cyfitter_cfg.c **** 			{0xEAu, 0x80u},
 582:Generated_Source\PSoC4/cyfitter_cfg.c **** 			{0x13u, 0x01u},
 583:Generated_Source\PSoC4/cyfitter_cfg.c **** 			{0x17u, 0x04u},
 584:Generated_Source\PSoC4/cyfitter_cfg.c **** 			{0xC4u, 0x0Cu},
 585:Generated_Source\PSoC4/cyfitter_cfg.c **** 			{0x61u, 0x08u},
 586:Generated_Source\PSoC4/cyfitter_cfg.c **** 			{0x81u, 0x08u},
 587:Generated_Source\PSoC4/cyfitter_cfg.c **** 			{0xABu, 0x04u},
 588:Generated_Source\PSoC4/cyfitter_cfg.c **** 			{0xB7u, 0x01u},
 589:Generated_Source\PSoC4/cyfitter_cfg.c **** 			{0xD8u, 0x02u},
 590:Generated_Source\PSoC4/cyfitter_cfg.c **** 			{0xEEu, 0x08u},
 591:Generated_Source\PSoC4/cyfitter_cfg.c **** 			{0x01u, 0x01u},
 592:Generated_Source\PSoC4/cyfitter_cfg.c **** 			{0x10u, 0x01u},
 593:Generated_Source\PSoC4/cyfitter_cfg.c **** 		};
 594:Generated_Source\PSoC4/cyfitter_cfg.c **** 
 595:Generated_Source\PSoC4/cyfitter_cfg.c **** 
 596:Generated_Source\PSoC4/cyfitter_cfg.c **** 
 597:Generated_Source\PSoC4/cyfitter_cfg.c **** 		CYPACKED typedef struct {
 598:Generated_Source\PSoC4/cyfitter_cfg.c **** 			void CYFAR *address;
 599:Generated_Source\PSoC4/cyfitter_cfg.c **** 			uint16 size;
 600:Generated_Source\PSoC4/cyfitter_cfg.c **** 		} CYPACKED_ATTR cfg_memset_t;
 601:Generated_Source\PSoC4/cyfitter_cfg.c **** 
 602:Generated_Source\PSoC4/cyfitter_cfg.c **** 		static const cfg_memset_t CYCODE cfg_memset_list[] = {
 603:Generated_Source\PSoC4/cyfitter_cfg.c **** 			/* address, size */
 604:Generated_Source\PSoC4/cyfitter_cfg.c **** 			{(void CYFAR *)(CYDEV_UDB_P0_U0_BASE), 1024u},
 605:Generated_Source\PSoC4/cyfitter_cfg.c **** 			{(void CYFAR *)(CYDEV_UDB_DSI0_BASE), 1024u},
 606:Generated_Source\PSoC4/cyfitter_cfg.c **** 		};
 607:Generated_Source\PSoC4/cyfitter_cfg.c **** 
 608:Generated_Source\PSoC4/cyfitter_cfg.c **** 		uint8 CYDATA i;
 609:Generated_Source\PSoC4/cyfitter_cfg.c **** 
 610:Generated_Source\PSoC4/cyfitter_cfg.c **** 		/* Zero out critical memory blocks before beginning configuration */
 611:Generated_Source\PSoC4/cyfitter_cfg.c **** 		for (i = 0u; i < (sizeof(cfg_memset_list)/sizeof(cfg_memset_list[0])); i++)
 368              		.loc 1 611 0
 369 013e 0024     		movs	r4, #0
 370 0140 0FE0     		b	.L14
 371              	.LVL24:
 372              	.L15:
 373              	.LBB4:
 612:Generated_Source\PSoC4/cyfitter_cfg.c **** 		{
 613:Generated_Source\PSoC4/cyfitter_cfg.c **** 			const cfg_memset_t CYCODE * CYDATA ms = &cfg_memset_list[i];
 614:Generated_Source\PSoC4/cyfitter_cfg.c **** 			CYMEMZERO(ms->address, (size_t)(uint32)(ms->size));
 374              		.loc 1 614 0 discriminator 3
ARM GAS  C:\Users\Ade0n\AppData\Local\Temp\cc0UjuQa.s 			page 19


 375 0142 2D48     		ldr	r0, .L16+4
 376 0144 6200     		lsls	r2, r4, #1
 377 0146 1319     		adds	r3, r2, r4
 378 0148 5900     		lsls	r1, r3, #1
 379 014a 0B00     		movs	r3, r1
 380 014c 4118     		adds	r1, r0, r1
 381 014e 8988     		ldrh	r1, [r1, #4]
 382 0150 1A5A     		ldrh	r2, [r3, r0]
 383 0152 C318     		adds	r3, r0, r3
 384 0154 5888     		ldrh	r0, [r3, #2]
 385 0156 0004     		lsls	r0, r0, #16
 386 0158 1043     		orrs	r0, r2
 387 015a FFF7FEFF 		bl	CYMEMZERO
 388              	.LVL25:
 389              	.LBE4:
 611:Generated_Source\PSoC4/cyfitter_cfg.c **** 		{
 390              		.loc 1 611 0 discriminator 3
 391 015e 0134     		adds	r4, r4, #1
 392              	.LVL26:
 393 0160 E4B2     		uxtb	r4, r4
 394              	.LVL27:
 395              	.L14:
 611:Generated_Source\PSoC4/cyfitter_cfg.c **** 		{
 396              		.loc 1 611 0 is_stmt 0 discriminator 1
 397 0162 012C     		cmp	r4, #1
 398 0164 EDD9     		bls	.L15
 615:Generated_Source\PSoC4/cyfitter_cfg.c **** 		}
 616:Generated_Source\PSoC4/cyfitter_cfg.c **** 
 617:Generated_Source\PSoC4/cyfitter_cfg.c **** 		cfg_write_bytes32(cy_cfg_addr_table, cy_cfg_data_table);
 399              		.loc 1 617 0 is_stmt 1
 400 0166 2449     		ldr	r1, .L16+4
 401 0168 0C31     		adds	r1, r1, #12
 402 016a 2448     		ldr	r0, .L16+8
 403 016c FFF7FEFF 		bl	cfg_write_bytes32
 404              	.LVL28:
 618:Generated_Source\PSoC4/cyfitter_cfg.c **** 
 619:Generated_Source\PSoC4/cyfitter_cfg.c **** 		/* HSIOM Starting address: CYDEV_HSIOM_BASE */
 620:Generated_Source\PSoC4/cyfitter_cfg.c **** 		CY_SET_REG32((void *)(CYDEV_HSIOM_BASE), 0xEE000330u);
 405              		.loc 1 620 0
 406 0170 234A     		ldr	r2, .L16+12
 407 0172 244B     		ldr	r3, .L16+16
 408 0174 1A60     		str	r2, [r3]
 621:Generated_Source\PSoC4/cyfitter_cfg.c **** 		CY_SET_REG32((void *)(CYREG_HSIOM_PORT_SEL1), 0x00990000u);
 409              		.loc 1 621 0
 410 0176 9923     		movs	r3, #153
 411 0178 1B04     		lsls	r3, r3, #16
 412 017a 234A     		ldr	r2, .L16+20
 413 017c 1360     		str	r3, [r2]
 622:Generated_Source\PSoC4/cyfitter_cfg.c **** 		CY_SET_REG32((void *)(CYREG_HSIOM_PORT_SEL3), 0x03000000u);
 414              		.loc 1 622 0
 415 017e C021     		movs	r1, #192
 416 0180 8904     		lsls	r1, r1, #18
 417 0182 224A     		ldr	r2, .L16+24
 418 0184 1160     		str	r1, [r2]
 623:Generated_Source\PSoC4/cyfitter_cfg.c **** 
 624:Generated_Source\PSoC4/cyfitter_cfg.c **** 		/* UDB_PA_0 Starting address: CYDEV_UDB_PA0_BASE */
 625:Generated_Source\PSoC4/cyfitter_cfg.c **** 		CY_SET_REG32((void *)(CYDEV_UDB_PA0_BASE), 0x00990000u);
ARM GAS  C:\Users\Ade0n\AppData\Local\Temp\cc0UjuQa.s 			page 20


 419              		.loc 1 625 0
 420 0186 224A     		ldr	r2, .L16+28
 421 0188 1360     		str	r3, [r2]
 626:Generated_Source\PSoC4/cyfitter_cfg.c **** 		CY_SET_REG32((void *)(CYREG_UDB_PA0_CFG8), 0x00080000u);
 422              		.loc 1 626 0
 423 018a 8021     		movs	r1, #128
 424 018c 0903     		lsls	r1, r1, #12
 425 018e 214A     		ldr	r2, .L16+32
 426 0190 1160     		str	r1, [r2]
 627:Generated_Source\PSoC4/cyfitter_cfg.c **** 
 628:Generated_Source\PSoC4/cyfitter_cfg.c **** 		/* UDB_PA_1 Starting address: CYDEV_UDB_PA1_BASE */
 629:Generated_Source\PSoC4/cyfitter_cfg.c **** 		CY_SET_REG32((void *)(CYDEV_UDB_PA1_BASE), 0x00990000u);
 427              		.loc 1 629 0
 428 0192 214A     		ldr	r2, .L16+36
 429 0194 1360     		str	r3, [r2]
 630:Generated_Source\PSoC4/cyfitter_cfg.c **** 
 631:Generated_Source\PSoC4/cyfitter_cfg.c **** 		/* UDB_PA_3 Starting address: CYDEV_UDB_PA3_BASE */
 632:Generated_Source\PSoC4/cyfitter_cfg.c **** 		CY_SET_REG32((void *)(CYDEV_UDB_PA3_BASE), 0x00990000u);
 430              		.loc 1 632 0
 431 0196 214A     		ldr	r2, .L16+40
 432 0198 1360     		str	r3, [r2]
 633:Generated_Source\PSoC4/cyfitter_cfg.c **** 		CY_SET_REG32((void *)(CYREG_UDB_PA3_CFG8), 0x20000000u);
 433              		.loc 1 633 0
 434 019a 8022     		movs	r2, #128
 435 019c 9205     		lsls	r2, r2, #22
 436 019e 204B     		ldr	r3, .L16+44
 437 01a0 1A60     		str	r2, [r3]
 634:Generated_Source\PSoC4/cyfitter_cfg.c **** 
 635:Generated_Source\PSoC4/cyfitter_cfg.c **** 		/* Enable UDB array and digital routing */
 636:Generated_Source\PSoC4/cyfitter_cfg.c **** 		CY_SET_XTND_REG8((void *)CYREG_UDB_UDBIF_WAIT_CFG, (uint8)((CY_GET_XTND_REG8((void *)CYREG_UDB_UD
 438              		.loc 1 636 0
 439 01a2 2049     		ldr	r1, .L16+48
 440 01a4 0B78     		ldrb	r3, [r1]
 441 01a6 3C22     		movs	r2, #60
 442 01a8 9343     		bics	r3, r2
 443 01aa 1422     		movs	r2, #20
 444 01ac 1343     		orrs	r3, r2
 445 01ae DBB2     		uxtb	r3, r3
 446 01b0 0B70     		strb	r3, [r1]
 637:Generated_Source\PSoC4/cyfitter_cfg.c **** 		CY_SET_XTND_REG8((void *)CYREG_UDB_UDBIF_BANK_CTL, (uint8)(CY_GET_XTND_REG8((void *)CYREG_UDB_UDB
 447              		.loc 1 637 0
 448 01b2 1D4A     		ldr	r2, .L16+52
 449 01b4 1178     		ldrb	r1, [r2]
 450 01b6 1623     		movs	r3, #22
 451 01b8 0B43     		orrs	r3, r1
 452 01ba DBB2     		uxtb	r3, r3
 453 01bc 1370     		strb	r3, [r2]
 454              	.LBE3:
 638:Generated_Source\PSoC4/cyfitter_cfg.c **** 	}
 639:Generated_Source\PSoC4/cyfitter_cfg.c **** 
 640:Generated_Source\PSoC4/cyfitter_cfg.c **** 	/* Perform second pass device configuration. These items must be configured in specific order afte
 641:Generated_Source\PSoC4/cyfitter_cfg.c **** 	/* IOPINS0_0 Starting address: CYDEV_GPIO_PRT0_BASE */
 642:Generated_Source\PSoC4/cyfitter_cfg.c **** 	CY_SET_REG32((void *)(CYDEV_GPIO_PRT0_BASE), 0x00000006u);
 455              		.loc 1 642 0
 456 01be 0622     		movs	r2, #6
 457 01c0 1A4B     		ldr	r3, .L16+56
 458 01c2 1A60     		str	r2, [r3]
ARM GAS  C:\Users\Ade0n\AppData\Local\Temp\cc0UjuQa.s 			page 21


 643:Generated_Source\PSoC4/cyfitter_cfg.c **** 	CY_SET_REG32((void *)(CYREG_GPIO_PRT0_PC), 0x00D801B0u);
 459              		.loc 1 643 0
 460 01c4 1A4A     		ldr	r2, .L16+60
 461 01c6 1B4B     		ldr	r3, .L16+64
 462 01c8 1A60     		str	r2, [r3]
 644:Generated_Source\PSoC4/cyfitter_cfg.c **** 
 645:Generated_Source\PSoC4/cyfitter_cfg.c **** 	/* IOPINS0_1 Starting address: CYDEV_GPIO_PRT1_BASE */
 646:Generated_Source\PSoC4/cyfitter_cfg.c **** 	CY_SET_REG32((void *)(CYDEV_GPIO_PRT1_BASE), 0x00000024u);
 463              		.loc 1 646 0
 464 01ca 2422     		movs	r2, #36
 465 01cc 1A4B     		ldr	r3, .L16+68
 466 01ce 1A60     		str	r2, [r3]
 647:Generated_Source\PSoC4/cyfitter_cfg.c **** 	CY_SET_REG32((void *)(CYREG_GPIO_PRT1_PC), 0x00031080u);
 467              		.loc 1 647 0
 468 01d0 1A4A     		ldr	r2, .L16+72
 469 01d2 1B4B     		ldr	r3, .L16+76
 470 01d4 1A60     		str	r2, [r3]
 648:Generated_Source\PSoC4/cyfitter_cfg.c **** 	CY_SET_REG32((void *)(CYREG_GPIO_PRT1_PC2), 0x00000020u);
 471              		.loc 1 648 0
 472 01d6 2022     		movs	r2, #32
 473 01d8 1A4B     		ldr	r3, .L16+80
 474 01da 1A60     		str	r2, [r3]
 649:Generated_Source\PSoC4/cyfitter_cfg.c **** 
 650:Generated_Source\PSoC4/cyfitter_cfg.c **** 	/* IOPINS0_3 Starting address: CYDEV_GPIO_PRT3_BASE */
 651:Generated_Source\PSoC4/cyfitter_cfg.c **** 	CY_SET_REG32((void *)(CYDEV_GPIO_PRT3_BASE), 0x00000040u);
 475              		.loc 1 651 0
 476 01dc 2032     		adds	r2, r2, #32
 477 01de 1A4B     		ldr	r3, .L16+84
 478 01e0 1A60     		str	r2, [r3]
 652:Generated_Source\PSoC4/cyfitter_cfg.c **** 	CY_SET_REG32((void *)(CYREG_GPIO_PRT3_PC), 0x00180000u);
 479              		.loc 1 652 0
 480 01e2 C022     		movs	r2, #192
 481 01e4 5203     		lsls	r2, r2, #13
 482 01e6 194B     		ldr	r3, .L16+88
 483 01e8 1A60     		str	r2, [r3]
 653:Generated_Source\PSoC4/cyfitter_cfg.c **** 
 654:Generated_Source\PSoC4/cyfitter_cfg.c **** 
 655:Generated_Source\PSoC4/cyfitter_cfg.c **** 	/* Setup clocks based on selections from Clock DWR */
 656:Generated_Source\PSoC4/cyfitter_cfg.c **** 	ClockSetup();
 484              		.loc 1 656 0
 485 01ea FFF709FF 		bl	ClockSetup
 486              	.LVL29:
 657:Generated_Source\PSoC4/cyfitter_cfg.c **** 
 658:Generated_Source\PSoC4/cyfitter_cfg.c **** 	/* Perform basic analog initialization to defaults */
 659:Generated_Source\PSoC4/cyfitter_cfg.c **** 	AnalogSetDefault();
 487              		.loc 1 659 0
 488 01ee FFF7FEFF 		bl	AnalogSetDefault
 489              	.LVL30:
 660:Generated_Source\PSoC4/cyfitter_cfg.c **** 
 661:Generated_Source\PSoC4/cyfitter_cfg.c **** }
 490              		.loc 1 661 0
 491              		@ sp needed
 492              	.LVL31:
 493 01f2 10BD     		pop	{r4, pc}
 494              	.L17:
 495              		.align	2
 496              	.L16:
ARM GAS  C:\Users\Ade0n\AppData\Local\Temp\cc0UjuQa.s 			page 22


 497 01f4 6CF02E40 		.word	1076818028
 498 01f8 00000000 		.word	.LANCHOR0
 499 01fc 00020000 		.word	.LANCHOR1
 500 0200 300300EE 		.word	-301989072
 501 0204 00000240 		.word	1073872896
 502 0208 00010240 		.word	1073873152
 503 020c 00030240 		.word	1073873664
 504 0210 00500F40 		.word	1074745344
 505 0214 08500F40 		.word	1074745352
 506 0218 10500F40 		.word	1074745360
 507 021c 30500F40 		.word	1074745392
 508 0220 38500F40 		.word	1074745400
 509 0224 01700F40 		.word	1074753537
 510 0228 00700F40 		.word	1074753536
 511 022c 00000440 		.word	1074003968
 512 0230 B001D800 		.word	14156208
 513 0234 08000440 		.word	1074003976
 514 0238 00010440 		.word	1074004224
 515 023c 80100300 		.word	200832
 516 0240 08010440 		.word	1074004232
 517 0244 18010440 		.word	1074004248
 518 0248 00030440 		.word	1074004736
 519 024c 08030440 		.word	1074004744
 520              		.cfi_endproc
 521              	.LFE8:
 522              		.size	cyfitter_cfg, .-cyfitter_cfg
 523              		.section	.rodata
 524              		.align	2
 525              		.set	.LANCHOR0,. + 0
 526              		.set	.LANCHOR1,. + 512
 527              		.type	cfg_memset_list.4916, %object
 528              		.size	cfg_memset_list.4916, 12
 529              	cfg_memset_list.4916:
 530 0000 00300F40 		.word	1074737152
 531 0004 0004     		.short	1024
 532 0006 00400F40 		.4byte	1074741248
 533 000a 0004     		.short	1024
 534              		.type	cy_cfg_data_table.4911, %object
 535              		.size	cy_cfg_data_table.4911, 498
 536              	cy_cfg_data_table.4911:
 537 000c 83       		.byte	-125
 538 000d 77       		.byte	119
 539 000e 03       		.byte	3
 540 000f 01       		.byte	1
 541 0010 0E       		.byte	14
 542 0011 01       		.byte	1
 543 0012 21       		.byte	33
 544 0013 01       		.byte	1
 545 0014 2F       		.byte	47
 546 0015 01       		.byte	1
 547 0016 30       		.byte	48
 548 0017 01       		.byte	1
 549 0018 37       		.byte	55
 550 0019 01       		.byte	1
 551 001a 38       		.byte	56
 552 001b 20       		.byte	32
 553 001c 3E       		.byte	62
ARM GAS  C:\Users\Ade0n\AppData\Local\Temp\cc0UjuQa.s 			page 23


 554 001d 10       		.byte	16
 555 001e 3F       		.byte	63
 556 001f 40       		.byte	64
 557 0020 40       		.byte	64
 558 0021 14       		.byte	20
 559 0022 41       		.byte	65
 560 0023 02       		.byte	2
 561 0024 42       		.byte	66
 562 0025 04       		.byte	4
 563 0026 49       		.byte	73
 564 0027 FF       		.byte	-1
 565 0028 4A       		.byte	74
 566 0029 FF       		.byte	-1
 567 002a 4B       		.byte	75
 568 002b FF       		.byte	-1
 569 002c 4D       		.byte	77
 570 002d A0       		.byte	-96
 571 002e 4F       		.byte	79
 572 002f 01       		.byte	1
 573 0030 50       		.byte	80
 574 0031 18       		.byte	24
 575 0032 52       		.byte	82
 576 0033 87       		.byte	-121
 577 0034 58       		.byte	88
 578 0035 04       		.byte	4
 579 0036 59       		.byte	89
 580 0037 04       		.byte	4
 581 0038 5A       		.byte	90
 582 0039 04       		.byte	4
 583 003a 5B       		.byte	91
 584 003b 04       		.byte	4
 585 003c 5F       		.byte	95
 586 003d 01       		.byte	1
 587 003e 60       		.byte	96
 588 003f 40       		.byte	64
 589 0040 62       		.byte	98
 590 0041 80       		.byte	-128
 591 0042 64       		.byte	100
 592 0043 40       		.byte	64
 593 0044 65       		.byte	101
 594 0045 40       		.byte	64
 595 0046 66       		.byte	102
 596 0047 80       		.byte	-128
 597 0048 68       		.byte	104
 598 0049 40       		.byte	64
 599 004a 6A       		.byte	106
 600 004b 50       		.byte	80
 601 004c 6B       		.byte	107
 602 004d A8       		.byte	-88
 603 004e 6C       		.byte	108
 604 004f 40       		.byte	64
 605 0050 6D       		.byte	109
 606 0051 20       		.byte	32
 607 0052 6E       		.byte	110
 608 0053 50       		.byte	80
 609 0054 6F       		.byte	111
 610 0055 A8       		.byte	-88
ARM GAS  C:\Users\Ade0n\AppData\Local\Temp\cc0UjuQa.s 			page 24


 611 0056 99       		.byte	-103
 612 0057 01       		.byte	1
 613 0058 AB       		.byte	-85
 614 0059 03       		.byte	3
 615 005a B3       		.byte	-77
 616 005b 02       		.byte	2
 617 005c B7       		.byte	-73
 618 005d 01       		.byte	1
 619 005e BF       		.byte	-65
 620 005f 40       		.byte	64
 621 0060 C0       		.byte	-64
 622 0061 41       		.byte	65
 623 0062 C1       		.byte	-63
 624 0063 06       		.byte	6
 625 0064 C2       		.byte	-62
 626 0065 01       		.byte	1
 627 0066 C9       		.byte	-55
 628 0067 FF       		.byte	-1
 629 0068 CA       		.byte	-54
 630 0069 FF       		.byte	-1
 631 006a CB       		.byte	-53
 632 006b FF       		.byte	-1
 633 006c CD       		.byte	-51
 634 006d AF       		.byte	-81
 635 006e CE       		.byte	-50
 636 006f 07       		.byte	7
 637 0070 CF       		.byte	-49
 638 0071 01       		.byte	1
 639 0072 D0       		.byte	-48
 640 0073 18       		.byte	24
 641 0074 D9       		.byte	-39
 642 0075 04       		.byte	4
 643 0076 DA       		.byte	-38
 644 0077 04       		.byte	4
 645 0078 DF       		.byte	-33
 646 0079 01       		.byte	1
 647 007a E0       		.byte	-32
 648 007b 40       		.byte	64
 649 007c E2       		.byte	-30
 650 007d 80       		.byte	-128
 651 007e E4       		.byte	-28
 652 007f 40       		.byte	64
 653 0080 E5       		.byte	-27
 654 0081 40       		.byte	64
 655 0082 E6       		.byte	-26
 656 0083 80       		.byte	-128
 657 0084 E8       		.byte	-24
 658 0085 40       		.byte	64
 659 0086 EA       		.byte	-22
 660 0087 50       		.byte	80
 661 0088 EB       		.byte	-21
 662 0089 A8       		.byte	-88
 663 008a EC       		.byte	-20
 664 008b 40       		.byte	64
 665 008c ED       		.byte	-19
 666 008d 20       		.byte	32
 667 008e EE       		.byte	-18
ARM GAS  C:\Users\Ade0n\AppData\Local\Temp\cc0UjuQa.s 			page 25


 668 008f 50       		.byte	80
 669 0090 EF       		.byte	-17
 670 0091 A8       		.byte	-88
 671 0092 01       		.byte	1
 672 0093 80       		.byte	-128
 673 0094 18       		.byte	24
 674 0095 08       		.byte	8
 675 0096 19       		.byte	25
 676 0097 01       		.byte	1
 677 0098 1B       		.byte	27
 678 0099 20       		.byte	32
 679 009a 20       		.byte	32
 680 009b 01       		.byte	1
 681 009c 23       		.byte	35
 682 009d 02       		.byte	2
 683 009e 25       		.byte	37
 684 009f 80       		.byte	-128
 685 00a0 27       		.byte	39
 686 00a1 21       		.byte	33
 687 00a2 29       		.byte	41
 688 00a3 01       		.byte	1
 689 00a4 2A       		.byte	42
 690 00a5 80       		.byte	-128
 691 00a6 2E       		.byte	46
 692 00a7 10       		.byte	16
 693 00a8 37       		.byte	55
 694 00a9 20       		.byte	32
 695 00aa 38       		.byte	56
 696 00ab 02       		.byte	2
 697 00ac 40       		.byte	64
 698 00ad 01       		.byte	1
 699 00ae 43       		.byte	67
 700 00af 21       		.byte	33
 701 00b0 45       		.byte	69
 702 00b1 80       		.byte	-128
 703 00b2 47       		.byte	71
 704 00b3 02       		.byte	2
 705 00b4 4C       		.byte	76
 706 00b5 04       		.byte	4
 707 00b6 68       		.byte	104
 708 00b7 2A       		.byte	42
 709 00b8 69       		.byte	105
 710 00b9 14       		.byte	20
 711 00ba 70       		.byte	112
 712 00bb 01       		.byte	1
 713 00bc C0       		.byte	-64
 714 00bd 01       		.byte	1
 715 00be CA       		.byte	-54
 716 00bf 29       		.byte	41
 717 00c0 CC       		.byte	-52
 718 00c1 20       		.byte	32
 719 00c2 CE       		.byte	-50
 720 00c3 01       		.byte	1
 721 00c4 D0       		.byte	-48
 722 00c5 9D       		.byte	-99
 723 00c6 D2       		.byte	-46
 724 00c7 20       		.byte	32
ARM GAS  C:\Users\Ade0n\AppData\Local\Temp\cc0UjuQa.s 			page 26


 725 00c8 40       		.byte	64
 726 00c9 41       		.byte	65
 727 00ca 41       		.byte	65
 728 00cb 06       		.byte	6
 729 00cc 42       		.byte	66
 730 00cd 01       		.byte	1
 731 00ce 49       		.byte	73
 732 00cf FF       		.byte	-1
 733 00d0 4A       		.byte	74
 734 00d1 FF       		.byte	-1
 735 00d2 4B       		.byte	75
 736 00d3 FF       		.byte	-1
 737 00d4 4D       		.byte	77
 738 00d5 AF       		.byte	-81
 739 00d6 4E       		.byte	78
 740 00d7 07       		.byte	7
 741 00d8 4F       		.byte	79
 742 00d9 01       		.byte	1
 743 00da 50       		.byte	80
 744 00db 18       		.byte	24
 745 00dc 5A       		.byte	90
 746 00dd 04       		.byte	4
 747 00de 5F       		.byte	95
 748 00df 01       		.byte	1
 749 00e0 60       		.byte	96
 750 00e1 40       		.byte	64
 751 00e2 62       		.byte	98
 752 00e3 80       		.byte	-128
 753 00e4 64       		.byte	100
 754 00e5 40       		.byte	64
 755 00e6 65       		.byte	101
 756 00e7 40       		.byte	64
 757 00e8 66       		.byte	102
 758 00e9 80       		.byte	-128
 759 00ea 68       		.byte	104
 760 00eb 40       		.byte	64
 761 00ec 6A       		.byte	106
 762 00ed 50       		.byte	80
 763 00ee 6B       		.byte	107
 764 00ef A8       		.byte	-88
 765 00f0 6C       		.byte	108
 766 00f1 40       		.byte	64
 767 00f2 6D       		.byte	109
 768 00f3 20       		.byte	32
 769 00f4 6E       		.byte	110
 770 00f5 50       		.byte	80
 771 00f6 6F       		.byte	111
 772 00f7 A8       		.byte	-88
 773 00f8 83       		.byte	-125
 774 00f9 20       		.byte	32
 775 00fa 85       		.byte	-123
 776 00fb 07       		.byte	7
 777 00fc 87       		.byte	-121
 778 00fd 08       		.byte	8
 779 00fe 89       		.byte	-119
 780 00ff 01       		.byte	1
 781 0100 8B       		.byte	-117
ARM GAS  C:\Users\Ade0n\AppData\Local\Temp\cc0UjuQa.s 			page 27


 782 0101 12       		.byte	18
 783 0102 8C       		.byte	-116
 784 0103 20       		.byte	32
 785 0104 8D       		.byte	-115
 786 0105 18       		.byte	24
 787 0106 8E       		.byte	-114
 788 0107 08       		.byte	8
 789 0108 8F       		.byte	-113
 790 0109 03       		.byte	3
 791 010a 90       		.byte	-112
 792 010b 0C       		.byte	12
 793 010c 91       		.byte	-111
 794 010d 06       		.byte	6
 795 010e 92       		.byte	-110
 796 010f 22       		.byte	34
 797 0110 93       		.byte	-109
 798 0111 11       		.byte	17
 799 0112 9E       		.byte	-98
 800 0113 01       		.byte	1
 801 0114 A0       		.byte	-96
 802 0115 30       		.byte	48
 803 0116 A1       		.byte	-95
 804 0117 10       		.byte	16
 805 0118 A2       		.byte	-94
 806 0119 06       		.byte	6
 807 011a A3       		.byte	-93
 808 011b 04       		.byte	4
 809 011c A4       		.byte	-92
 810 011d 0E       		.byte	14
 811 011e A5       		.byte	-91
 812 011f 1F       		.byte	31
 813 0120 A6       		.byte	-90
 814 0121 10       		.byte	16
 815 0122 A8       		.byte	-88
 816 0123 02       		.byte	2
 817 0124 AA       		.byte	-86
 818 0125 24       		.byte	36
 819 0126 AD       		.byte	-83
 820 0127 20       		.byte	32
 821 0128 B2       		.byte	-78
 822 0129 3E       		.byte	62
 823 012a B3       		.byte	-77
 824 012b 20       		.byte	32
 825 012c B6       		.byte	-74
 826 012d 01       		.byte	1
 827 012e B7       		.byte	-73
 828 012f 1F       		.byte	31
 829 0130 BF       		.byte	-65
 830 0131 44       		.byte	68
 831 0132 C0       		.byte	-64
 832 0133 14       		.byte	20
 833 0134 C1       		.byte	-63
 834 0135 02       		.byte	2
 835 0136 C2       		.byte	-62
 836 0137 04       		.byte	4
 837 0138 C5       		.byte	-59
 838 0139 42       		.byte	66
ARM GAS  C:\Users\Ade0n\AppData\Local\Temp\cc0UjuQa.s 			page 28


 839 013a C6       		.byte	-58
 840 013b C5       		.byte	-59
 841 013c C7       		.byte	-57
 842 013d 0E       		.byte	14
 843 013e C8       		.byte	-56
 844 013f 3F       		.byte	63
 845 0140 C9       		.byte	-55
 846 0141 FF       		.byte	-1
 847 0142 CA       		.byte	-54
 848 0143 FF       		.byte	-1
 849 0144 CB       		.byte	-53
 850 0145 FF       		.byte	-1
 851 0146 CD       		.byte	-51
 852 0147 AF       		.byte	-81
 853 0148 CE       		.byte	-50
 854 0149 07       		.byte	7
 855 014a CF       		.byte	-49
 856 014b 01       		.byte	1
 857 014c D0       		.byte	-48
 858 014d 18       		.byte	24
 859 014e D4       		.byte	-44
 860 014f 17       		.byte	23
 861 0150 D8       		.byte	-40
 862 0151 04       		.byte	4
 863 0152 D9       		.byte	-39
 864 0153 04       		.byte	4
 865 0154 DA       		.byte	-38
 866 0155 04       		.byte	4
 867 0156 DB       		.byte	-37
 868 0157 04       		.byte	4
 869 0158 DF       		.byte	-33
 870 0159 01       		.byte	1
 871 015a E0       		.byte	-32
 872 015b 40       		.byte	64
 873 015c E2       		.byte	-30
 874 015d 80       		.byte	-128
 875 015e E4       		.byte	-28
 876 015f 40       		.byte	64
 877 0160 E5       		.byte	-27
 878 0161 40       		.byte	64
 879 0162 E6       		.byte	-26
 880 0163 80       		.byte	-128
 881 0164 E8       		.byte	-24
 882 0165 40       		.byte	64
 883 0166 EA       		.byte	-22
 884 0167 50       		.byte	80
 885 0168 EB       		.byte	-21
 886 0169 A8       		.byte	-88
 887 016a EC       		.byte	-20
 888 016b 40       		.byte	64
 889 016c ED       		.byte	-19
 890 016d 20       		.byte	32
 891 016e EE       		.byte	-18
 892 016f 50       		.byte	80
 893 0170 EF       		.byte	-17
 894 0171 A8       		.byte	-88
 895 0172 00       		.byte	0
ARM GAS  C:\Users\Ade0n\AppData\Local\Temp\cc0UjuQa.s 			page 29


 896 0173 80       		.byte	-128
 897 0174 08       		.byte	8
 898 0175 01       		.byte	1
 899 0176 0B       		.byte	11
 900 0177 02       		.byte	2
 901 0178 10       		.byte	16
 902 0179 A8       		.byte	-88
 903 017a 19       		.byte	25
 904 017b 48       		.byte	72
 905 017c 22       		.byte	34
 906 017d 44       		.byte	68
 907 017e 29       		.byte	41
 908 017f 49       		.byte	73
 909 0180 30       		.byte	48
 910 0181 03       		.byte	3
 911 0182 38       		.byte	56
 912 0183 80       		.byte	-128
 913 0184 39       		.byte	57
 914 0185 16       		.byte	22
 915 0186 40       		.byte	64
 916 0187 01       		.byte	1
 917 0188 43       		.byte	67
 918 0189 21       		.byte	33
 919 018a 45       		.byte	69
 920 018b 80       		.byte	-128
 921 018c 47       		.byte	71
 922 018d 02       		.byte	2
 923 018e 48       		.byte	72
 924 018f 40       		.byte	64
 925 0190 49       		.byte	73
 926 0191 01       		.byte	1
 927 0192 4A       		.byte	74
 928 0193 10       		.byte	16
 929 0194 4C       		.byte	76
 930 0195 04       		.byte	4
 931 0196 50       		.byte	80
 932 0197 C0       		.byte	-64
 933 0198 51       		.byte	81
 934 0199 09       		.byte	9
 935 019a 52       		.byte	82
 936 019b 10       		.byte	16
 937 019c 53       		.byte	83
 938 019d 01       		.byte	1
 939 019e 58       		.byte	88
 940 019f 20       		.byte	32
 941 01a0 5A       		.byte	90
 942 01a1 88       		.byte	-120
 943 01a2 5C       		.byte	92
 944 01a3 20       		.byte	32
 945 01a4 5E       		.byte	94
 946 01a5 20       		.byte	32
 947 01a6 61       		.byte	97
 948 01a7 88       		.byte	-120
 949 01a8 62       		.byte	98
 950 01a9 10       		.byte	16
 951 01aa 81       		.byte	-127
 952 01ab 80       		.byte	-128
ARM GAS  C:\Users\Ade0n\AppData\Local\Temp\cc0UjuQa.s 			page 30


 953 01ac 82       		.byte	-126
 954 01ad 80       		.byte	-128
 955 01ae 90       		.byte	-112
 956 01af 09       		.byte	9
 957 01b0 91       		.byte	-111
 958 01b1 14       		.byte	20
 959 01b2 9B       		.byte	-101
 960 01b3 03       		.byte	3
 961 01b4 9D       		.byte	-99
 962 01b5 80       		.byte	-128
 963 01b6 9E       		.byte	-98
 964 01b7 80       		.byte	-128
 965 01b8 A0       		.byte	-96
 966 01b9 2A       		.byte	42
 967 01ba A1       		.byte	-95
 968 01bb 80       		.byte	-128
 969 01bc A3       		.byte	-93
 970 01bd 20       		.byte	32
 971 01be B6       		.byte	-74
 972 01bf 10       		.byte	16
 973 01c0 C0       		.byte	-64
 974 01c1 01       		.byte	1
 975 01c2 C2       		.byte	-62
 976 01c3 09       		.byte	9
 977 01c4 C4       		.byte	-60
 978 01c5 0E       		.byte	14
 979 01c6 CA       		.byte	-54
 980 01c7 0B       		.byte	11
 981 01c8 CC       		.byte	-52
 982 01c9 01       		.byte	1
 983 01ca CE       		.byte	-50
 984 01cb 0F       		.byte	15
 985 01cc D0       		.byte	-48
 986 01cd 9D       		.byte	-99
 987 01ce D2       		.byte	-46
 988 01cf 20       		.byte	32
 989 01d0 D6       		.byte	-42
 990 01d1 0E       		.byte	14
 991 01d2 D8       		.byte	-40
 992 01d3 0E       		.byte	14
 993 01d4 E0       		.byte	-32
 994 01d5 01       		.byte	1
 995 01d6 EA       		.byte	-22
 996 01d7 01       		.byte	1
 997 01d8 5B       		.byte	91
 998 01d9 80       		.byte	-128
 999 01da D4       		.byte	-44
 1000 01db 80       		.byte	-128
 1001 01dc 03       		.byte	3
 1002 01dd 06       		.byte	6
 1003 01de 83       		.byte	-125
 1004 01df 06       		.byte	6
 1005 01e0 AB       		.byte	-85
 1006 01e1 80       		.byte	-128
 1007 01e2 C0       		.byte	-64
 1008 01e3 40       		.byte	64
 1009 01e4 E0       		.byte	-32
ARM GAS  C:\Users\Ade0n\AppData\Local\Temp\cc0UjuQa.s 			page 31


 1010 01e5 A0       		.byte	-96
 1011 01e6 EA       		.byte	-22
 1012 01e7 80       		.byte	-128
 1013 01e8 13       		.byte	19
 1014 01e9 01       		.byte	1
 1015 01ea 17       		.byte	23
 1016 01eb 04       		.byte	4
 1017 01ec C4       		.byte	-60
 1018 01ed 0C       		.byte	12
 1019 01ee 61       		.byte	97
 1020 01ef 08       		.byte	8
 1021 01f0 81       		.byte	-127
 1022 01f1 08       		.byte	8
 1023 01f2 AB       		.byte	-85
 1024 01f3 04       		.byte	4
 1025 01f4 B7       		.byte	-73
 1026 01f5 01       		.byte	1
 1027 01f6 D8       		.byte	-40
 1028 01f7 02       		.byte	2
 1029 01f8 EE       		.byte	-18
 1030 01f9 08       		.byte	8
 1031 01fa 01       		.byte	1
 1032 01fb 01       		.byte	1
 1033 01fc 10       		.byte	16
 1034 01fd 01       		.byte	1
 1035 01fe 0000     		.space	2
 1036              		.type	cy_cfg_addr_table.4910, %object
 1037              		.size	cy_cfg_addr_table.4910, 40
 1038              	cy_cfg_addr_table.4910:
 1039 0200 01000F40 		.word	1074724865
 1040 0204 42300F40 		.word	1074737218
 1041 0208 1B310F40 		.word	1074737435
 1042 020c 55320F40 		.word	1074737749
 1043 0210 33330F40 		.word	1074737971
 1044 0214 02400F40 		.word	1074741250
 1045 0218 06410F40 		.word	1074741510
 1046 021c 03420F40 		.word	1074741763
 1047 0220 06430F40 		.word	1074742022
 1048 0224 02600F40 		.word	1074749442
 1049              		.text
 1050              	.Letext0:
 1051              		.file 2 "c:\\program files (x86)\\cypress\\psoc creator\\4.4\\psoc creator\\import\\gnu\\arm\\5.4.
 1052              		.file 3 "Generated_Source\\PSoC4\\cytypes.h"
 1053              		.file 4 "Generated_Source\\PSoC4\\CyLFClk.h"
 1054              		.file 5 "Generated_Source\\PSoC4\\CyLib.h"