ARM GAS  C:\Users\Ade0n\AppData\Local\Temp\ccbVSGUB.s 			page 1


   1              		.syntax unified
   2              		.cpu cortex-m0
   3              		.fpu softvfp
   4              		.eabi_attribute 20, 1
   5              		.eabi_attribute 21, 1
   6              		.eabi_attribute 23, 3
   7              		.eabi_attribute 24, 1
   8              		.eabi_attribute 25, 1
   9              		.eabi_attribute 26, 1
  10              		.eabi_attribute 30, 1
  11              		.eabi_attribute 34, 0
  12              		.eabi_attribute 18, 4
  13              		.thumb
  14              		.syntax unified
  15              		.file	"FanController_INT.c"
  16              		.text
  17              	.Ltext0:
  18              		.cfi_sections	.debug_frame
  19              		.section	.text.FanController_DATA_SEND_ISR,"ax",%progbits
  20              		.align	2
  21              		.global	FanController_DATA_SEND_ISR
  22              		.code	16
  23              		.thumb_func
  24              		.type	FanController_DATA_SEND_ISR, %function
  25              	FanController_DATA_SEND_ISR:
  26              	.LFB2:
  27              		.file 1 "Generated_Source\\PSoC4\\FanController_INT.c"
   1:Generated_Source\PSoC4/FanController_INT.c **** /*******************************************************************************
   2:Generated_Source\PSoC4/FanController_INT.c **** * File Name: FanController_INT.c
   3:Generated_Source\PSoC4/FanController_INT.c **** * Version 4.10
   4:Generated_Source\PSoC4/FanController_INT.c **** *
   5:Generated_Source\PSoC4/FanController_INT.c **** * Description:
   6:Generated_Source\PSoC4/FanController_INT.c **** *  This file contains the Interrupt Service Routines implementation for
   7:Generated_Source\PSoC4/FanController_INT.c **** *  Fan Controller component.
   8:Generated_Source\PSoC4/FanController_INT.c **** *
   9:Generated_Source\PSoC4/FanController_INT.c **** * Note:
  10:Generated_Source\PSoC4/FanController_INT.c **** *
  11:Generated_Source\PSoC4/FanController_INT.c **** *******************************************************************************
  12:Generated_Source\PSoC4/FanController_INT.c **** * Copyright 2008-2017, Cypress Semiconductor Corporation.  All rights reserved.
  13:Generated_Source\PSoC4/FanController_INT.c **** * You may use this file only in accordance with the license, terms, conditions,
  14:Generated_Source\PSoC4/FanController_INT.c **** * disclaimers, and limitations in the end user license agreement accompanying
  15:Generated_Source\PSoC4/FanController_INT.c **** * the software package with which this file was provided.
  16:Generated_Source\PSoC4/FanController_INT.c **** ********************************************************************************/
  17:Generated_Source\PSoC4/FanController_INT.c **** 
  18:Generated_Source\PSoC4/FanController_INT.c **** #include "CyLib.h"
  19:Generated_Source\PSoC4/FanController_INT.c **** #include "FanController.h"
  20:Generated_Source\PSoC4/FanController_INT.c **** #include "cyapicallbacks.h"
  21:Generated_Source\PSoC4/FanController_INT.c **** 
  22:Generated_Source\PSoC4/FanController_INT.c **** 
  23:Generated_Source\PSoC4/FanController_INT.c **** #if(FanController_IS_AUTO_FIRMWARE_MODE)
  24:Generated_Source\PSoC4/FanController_INT.c ****     volatile uint16 FanController_speedStatus = 0u;
  25:Generated_Source\PSoC4/FanController_INT.c **** #endif /* (FanController_IS_AUTO_FIRMWARE_MODE) */
  26:Generated_Source\PSoC4/FanController_INT.c **** 
  27:Generated_Source\PSoC4/FanController_INT.c **** 
  28:Generated_Source\PSoC4/FanController_INT.c **** #if(CY_PSOC4)
  29:Generated_Source\PSoC4/FanController_INT.c ****     /********************************************************************************
  30:Generated_Source\PSoC4/FanController_INT.c ****     *
ARM GAS  C:\Users\Ade0n\AppData\Local\Temp\ccbVSGUB.s 			page 2


  31:Generated_Source\PSoC4/FanController_INT.c ****     * Summary:
  32:Generated_Source\PSoC4/FanController_INT.c ****     *  Interrupt Service Routine for transferring actual speed from tachometer.
  33:Generated_Source\PSoC4/FanController_INT.c ****     *
  34:Generated_Source\PSoC4/FanController_INT.c ****     * Parameters:
  35:Generated_Source\PSoC4/FanController_INT.c ****     *  None
  36:Generated_Source\PSoC4/FanController_INT.c ****     *
  37:Generated_Source\PSoC4/FanController_INT.c ****     * Return:
  38:Generated_Source\PSoC4/FanController_INT.c ****     *  None
  39:Generated_Source\PSoC4/FanController_INT.c ****     *
  40:Generated_Source\PSoC4/FanController_INT.c ****     * Reentrant:
  41:Generated_Source\PSoC4/FanController_INT.c ****     *  No
  42:Generated_Source\PSoC4/FanController_INT.c ****     *
  43:Generated_Source\PSoC4/FanController_INT.c ****     *******************************************************************************/
  44:Generated_Source\PSoC4/FanController_INT.c ****     CY_ISR(FanController_DATA_SEND_ISR)
  45:Generated_Source\PSoC4/FanController_INT.c ****     {
  28              		.loc 1 45 0
  29              		.cfi_startproc
  30              		@ args = 0, pretend = 0, frame = 0
  31              		@ frame_needed = 0, uses_anonymous_args = 0
  32              		@ link register save eliminated.
  46:Generated_Source\PSoC4/FanController_INT.c ****         uint8 fanNum;
  47:Generated_Source\PSoC4/FanController_INT.c ****         uint16 actSpeed;
  48:Generated_Source\PSoC4/FanController_INT.c **** 
  49:Generated_Source\PSoC4/FanController_INT.c ****         #ifdef FanController_DATA_SEND_ISR_ENTRY_CALLBACK
  50:Generated_Source\PSoC4/FanController_INT.c ****             FanController_DATA_SEND_ISR_EntryCallback();
  51:Generated_Source\PSoC4/FanController_INT.c ****         #endif /* FanController_DATA_SEND_ISR_ENTRY_CALLBACK */
  52:Generated_Source\PSoC4/FanController_INT.c **** 
  53:Generated_Source\PSoC4/FanController_INT.c ****         /* Get the number of active fan */
  54:Generated_Source\PSoC4/FanController_INT.c ****         fanNum = FanController_TACH_ADDR_CONTROL_REG & FanController_TACH_CNTL_NUM_FANS_MASK;
  33              		.loc 1 54 0
  34 0000 1E4B     		ldr	r3, .L8
  35 0002 1A78     		ldrb	r2, [r3]
  36 0004 0F23     		movs	r3, #15
  37 0006 1340     		ands	r3, r2
  38              	.LVL0:
  55:Generated_Source\PSoC4/FanController_INT.c ****         
  56:Generated_Source\PSoC4/FanController_INT.c ****         /* Get measured actual speed period for a specific fan */
  57:Generated_Source\PSoC4/FanController_INT.c ****         actSpeed = CY_GET_REG16(FanController_TACH_STORED_ACT_PERIOD_PTR);
  39              		.loc 1 57 0
  40 0008 1D4A     		ldr	r2, .L8+4
  41 000a 1288     		ldrh	r2, [r2]
  42 000c 92B2     		uxth	r2, r2
  43              	.LVL1:
  58:Generated_Source\PSoC4/FanController_INT.c ****         
  59:Generated_Source\PSoC4/FanController_INT.c ****         /* Put down the measured speed to the proper location in RAM */
  60:Generated_Source\PSoC4/FanController_INT.c ****         FanController_fanControl.actualPeriod[fanNum] = actSpeed;
  44              		.loc 1 60 0
  45 000e 5800     		lsls	r0, r3, #1
  46 0010 1C49     		ldr	r1, .L8+8
  47 0012 4252     		strh	r2, [r0, r1]
  61:Generated_Source\PSoC4/FanController_INT.c **** 
  62:Generated_Source\PSoC4/FanController_INT.c ****         /* Software stall detection */
  63:Generated_Source\PSoC4/FanController_INT.c ****         if(0u == actSpeed)
  48              		.loc 1 63 0
  49 0014 002A     		cmp	r2, #0
  50 0016 05D1     		bne	.L2
  64:Generated_Source\PSoC4/FanController_INT.c ****         {
ARM GAS  C:\Users\Ade0n\AppData\Local\Temp\ccbVSGUB.s 			page 3


  65:Generated_Source\PSoC4/FanController_INT.c ****             FanController_stallStatus |= (uint16) ((((uint16) 1u) << fanNum));
  51              		.loc 1 65 0
  52 0018 0132     		adds	r2, r2, #1
  53              	.LVL2:
  54 001a 9A40     		lsls	r2, r2, r3
  55 001c 1A49     		ldr	r1, .L8+12
  56              	.LVL3:
  57 001e 0888     		ldrh	r0, [r1]
  58              	.LVL4:
  59 0020 0243     		orrs	r2, r0
  60 0022 0A80     		strh	r2, [r1]
  61              	.L2:
  66:Generated_Source\PSoC4/FanController_INT.c ****         }
  67:Generated_Source\PSoC4/FanController_INT.c **** 
  68:Generated_Source\PSoC4/FanController_INT.c ****         /* Calculate the new fan number value */
  69:Generated_Source\PSoC4/FanController_INT.c ****         fanNum = ((fanNum == 0u) ? ((uint8)(FanController_NUMBER_OF_FANS - 1u)) : (fanNum - 1u));
  62              		.loc 1 69 0
  63 0024 002B     		cmp	r3, #0
  64 0026 02D0     		beq	.L6
  65              		.loc 1 69 0 is_stmt 0 discriminator 1
  66 0028 013B     		subs	r3, r3, #1
  67              	.LVL5:
  68 002a DBB2     		uxtb	r3, r3
  69              	.LVL6:
  70 002c 00E0     		b	.L3
  71              	.LVL7:
  72              	.L6:
  73              		.loc 1 69 0
  74 002e 0323     		movs	r3, #3
  75              	.LVL8:
  76              	.L3:
  70:Generated_Source\PSoC4/FanController_INT.c ****         
  71:Generated_Source\PSoC4/FanController_INT.c ****         /* Clear the previous fan number value in the control register */
  72:Generated_Source\PSoC4/FanController_INT.c ****         FanController_TACH_ADDR_CONTROL_REG &= ((uint8) ~FanController_TACH_CNTL_NUM_FANS_MASK);
  77              		.loc 1 72 0 is_stmt 1 discriminator 4
  78 0030 124A     		ldr	r2, .L8
  79 0032 1178     		ldrb	r1, [r2]
  80 0034 0F20     		movs	r0, #15
  81 0036 8143     		bics	r1, r0
  82 0038 1170     		strb	r1, [r2]
  73:Generated_Source\PSoC4/FanController_INT.c **** 
  74:Generated_Source\PSoC4/FanController_INT.c ****         /* Set new fan number value and End-Of-Measurement bit if required */
  75:Generated_Source\PSoC4/FanController_INT.c ****         FanController_TACH_ADDR_CONTROL_REG |= 
  83              		.loc 1 75 0 discriminator 4
  84 003a 1278     		ldrb	r2, [r2]
  85 003c D1B2     		uxtb	r1, r2
  86 003e 032B     		cmp	r3, #3
  87 0040 01D1     		bne	.L7
  88              		.loc 1 75 0 is_stmt 0
  89 0042 8022     		movs	r2, #128
  90 0044 00E0     		b	.L4
  91              	.L7:
  92 0046 0022     		movs	r2, #0
  93              	.L4:
  94              		.loc 1 75 0 discriminator 4
  95 0048 1A43     		orrs	r2, r3
  96 004a 0A43     		orrs	r2, r1
ARM GAS  C:\Users\Ade0n\AppData\Local\Temp\ccbVSGUB.s 			page 4


  97 004c 0B49     		ldr	r1, .L8
  98 004e 0A70     		strb	r2, [r1]
  76:Generated_Source\PSoC4/FanController_INT.c ****                 fanNum | ((fanNum == ((uint8)(FanController_NUMBER_OF_FANS - 1u))) ? FanController_
  77:Generated_Source\PSoC4/FanController_INT.c **** 
  78:Generated_Source\PSoC4/FanController_INT.c ****         /* In case if the last fan in the sequence was measured it is required
  79:Generated_Source\PSoC4/FanController_INT.c ****         * to generate the "eoc" pulse from Global Control Register.
  80:Generated_Source\PSoC4/FanController_INT.c ****         */
  81:Generated_Source\PSoC4/FanController_INT.c ****         if(((uint8)(FanController_NUMBER_OF_FANS - 1u)) == fanNum)
  99              		.loc 1 81 0 is_stmt 1 discriminator 4
 100 0050 032B     		cmp	r3, #3
 101 0052 12D1     		bne	.L1
  82:Generated_Source\PSoC4/FanController_INT.c ****         {
  83:Generated_Source\PSoC4/FanController_INT.c ****             FanController_GLOBAL_CONTROL_REG |= FanController_SW_EOC;
 102              		.loc 1 83 0
 103 0054 0D4A     		ldr	r2, .L8+16
 104 0056 1178     		ldrb	r1, [r2]
 105 0058 0823     		movs	r3, #8
 106              	.LVL9:
 107 005a 0B43     		orrs	r3, r1
 108 005c DBB2     		uxtb	r3, r3
 109 005e 1370     		strb	r3, [r2]
  84:Generated_Source\PSoC4/FanController_INT.c ****             
  85:Generated_Source\PSoC4/FanController_INT.c ****             /* Also set stall bit in Global Control Register if any of the fans were stalled */
  86:Generated_Source\PSoC4/FanController_INT.c ****             if (0u != (FanController_stallStatus & FanController_alertMask))
 110              		.loc 1 86 0
 111 0060 094B     		ldr	r3, .L8+12
 112 0062 1B88     		ldrh	r3, [r3]
 113 0064 0A4A     		ldr	r2, .L8+20
 114 0066 1288     		ldrh	r2, [r2]
 115 0068 1A42     		tst	r2, r3
 116 006a 06D0     		beq	.L1
  87:Generated_Source\PSoC4/FanController_INT.c ****             {
  88:Generated_Source\PSoC4/FanController_INT.c ****                 FanController_GLOBAL_CONTROL_REG |= FanController_SW_STALL;
 117              		.loc 1 88 0
 118 006c 074A     		ldr	r2, .L8+16
 119 006e 1178     		ldrb	r1, [r2]
 120 0070 8023     		movs	r3, #128
 121 0072 5B42     		rsbs	r3, r3, #0
 122 0074 0B43     		orrs	r3, r1
 123 0076 DBB2     		uxtb	r3, r3
 124 0078 1370     		strb	r3, [r2]
 125              	.L1:
  89:Generated_Source\PSoC4/FanController_INT.c ****             }
  90:Generated_Source\PSoC4/FanController_INT.c ****         }
  91:Generated_Source\PSoC4/FanController_INT.c ****         
  92:Generated_Source\PSoC4/FanController_INT.c ****         #ifdef FanController_DATA_SEND_ISR_EXIT_CALLBACK
  93:Generated_Source\PSoC4/FanController_INT.c ****             FanController_DATA_SEND_ISR_ExitCallback();
  94:Generated_Source\PSoC4/FanController_INT.c ****         #endif /* FanController_DATA_SEND_ISR_EXIT_CALLBACK */
  95:Generated_Source\PSoC4/FanController_INT.c ****     }
 126              		.loc 1 95 0
 127              		@ sp needed
 128 007a 7047     		bx	lr
 129              	.L9:
 130              		.align	2
 131              	.L8:
 132 007c 71000F40 		.word	1074724977
 133 0080 80100F40 		.word	1074729088
ARM GAS  C:\Users\Ade0n\AppData\Local\Temp\ccbVSGUB.s 			page 5


 134 0084 00000000 		.word	FanController_fanControl
 135 0088 00000000 		.word	FanController_stallStatus
 136 008c 72000F40 		.word	1074724978
 137 0090 00000000 		.word	FanController_alertMask
 138              		.cfi_endproc
 139              	.LFE2:
 140              		.size	FanController_DATA_SEND_ISR, .-FanController_DATA_SEND_ISR
 141              		.global	__aeabi_uidiv
 142              		.section	.text.FanController_PID_CONTROL_ISR,"ax",%progbits
 143              		.align	2
 144              		.global	FanController_PID_CONTROL_ISR
 145              		.code	16
 146              		.thumb_func
 147              		.type	FanController_PID_CONTROL_ISR, %function
 148              	FanController_PID_CONTROL_ISR:
 149              	.LFB3:
  96:Generated_Source\PSoC4/FanController_INT.c **** #endif /* (CY_PSOC4) */
  97:Generated_Source\PSoC4/FanController_INT.c **** 
  98:Generated_Source\PSoC4/FanController_INT.c **** 
  99:Generated_Source\PSoC4/FanController_INT.c **** #if(FanController_IS_AUTO_FIRMWARE_MODE)
 100:Generated_Source\PSoC4/FanController_INT.c ****     /*******************************************************************************
 101:Generated_Source\PSoC4/FanController_INT.c ****     *
 102:Generated_Source\PSoC4/FanController_INT.c ****     * Summary:
 103:Generated_Source\PSoC4/FanController_INT.c ****     *  Interrupt Service Routine for implementation of PID Firmware Controlling
 104:Generated_Source\PSoC4/FanController_INT.c ****     *  algorithm.
 105:Generated_Source\PSoC4/FanController_INT.c ****     *
 106:Generated_Source\PSoC4/FanController_INT.c ****     * Parameters:
 107:Generated_Source\PSoC4/FanController_INT.c ****     *  None
 108:Generated_Source\PSoC4/FanController_INT.c ****     *
 109:Generated_Source\PSoC4/FanController_INT.c ****     * Return:
 110:Generated_Source\PSoC4/FanController_INT.c ****     *  None
 111:Generated_Source\PSoC4/FanController_INT.c ****     *
 112:Generated_Source\PSoC4/FanController_INT.c ****     * Reentrant:
 113:Generated_Source\PSoC4/FanController_INT.c ****     *  No
 114:Generated_Source\PSoC4/FanController_INT.c ****     *
 115:Generated_Source\PSoC4/FanController_INT.c ****     * Theory:
 116:Generated_Source\PSoC4/FanController_INT.c ****     *  PID interrupt occurs in constant periods of time that is configured through
 117:Generated_Source\PSoC4/FanController_INT.c ****     *  the component customizer.
 118:Generated_Source\PSoC4/FanController_INT.c ****     *
 119:Generated_Source\PSoC4/FanController_INT.c ****     *******************************************************************************/
 120:Generated_Source\PSoC4/FanController_INT.c ****     CY_ISR(FanController_PID_CONTROL_ISR)
 121:Generated_Source\PSoC4/FanController_INT.c ****     {
 150              		.loc 1 121 0
 151              		.cfi_startproc
 152              		@ args = 0, pretend = 0, frame = 0
 153              		@ frame_needed = 0, uses_anonymous_args = 0
 154 0000 F0B5     		push	{r4, r5, r6, r7, lr}
 155              		.cfi_def_cfa_offset 20
 156              		.cfi_offset 4, -20
 157              		.cfi_offset 5, -16
 158              		.cfi_offset 6, -12
 159              		.cfi_offset 7, -8
 160              		.cfi_offset 14, -4
 161 0002 5746     		mov	r7, r10
 162 0004 4E46     		mov	r6, r9
 163 0006 4546     		mov	r5, r8
 164 0008 E0B4     		push	{r5, r6, r7}
ARM GAS  C:\Users\Ade0n\AppData\Local\Temp\ccbVSGUB.s 			page 6


 165              		.cfi_def_cfa_offset 32
 166              		.cfi_offset 8, -32
 167              		.cfi_offset 9, -28
 168              		.cfi_offset 10, -24
 169              	.LVL10:
 122:Generated_Source\PSoC4/FanController_INT.c ****         uint8 i;
 123:Generated_Source\PSoC4/FanController_INT.c ****         int16 pidErrorZ0;
 124:Generated_Source\PSoC4/FanController_INT.c ****         uint32 newCompare;
 125:Generated_Source\PSoC4/FanController_INT.c ****         int16 periodError;
 126:Generated_Source\PSoC4/FanController_INT.c ****         uint32 currActSpeed;
 127:Generated_Source\PSoC4/FanController_INT.c ****         uint32 tmpCompare;
 128:Generated_Source\PSoC4/FanController_INT.c ****         uint16 mask;
 129:Generated_Source\PSoC4/FanController_INT.c **** 
 130:Generated_Source\PSoC4/FanController_INT.c ****         /***************************************
 131:Generated_Source\PSoC4/FanController_INT.c ****         *   PID Parameters
 132:Generated_Source\PSoC4/FanController_INT.c ****         ***************************************/
 133:Generated_Source\PSoC4/FanController_INT.c ****         /* The error history */
 134:Generated_Source\PSoC4/FanController_INT.c ****         static int16 FanController_pidErrorZ1[FanController_NUMBER_OF_FANS] = {0};
 135:Generated_Source\PSoC4/FanController_INT.c ****         static int16 FanController_pidErrorZ2[FanController_NUMBER_OF_FANS] = {0};
 136:Generated_Source\PSoC4/FanController_INT.c **** 
 137:Generated_Source\PSoC4/FanController_INT.c ****         /* The compensator integrator */
 138:Generated_Source\PSoC4/FanController_INT.c ****         static uint32 FanController_pidArea[FanController_NUMBER_OF_FANS] = {0u};
 139:Generated_Source\PSoC4/FanController_INT.c **** 
 140:Generated_Source\PSoC4/FanController_INT.c ****         /* Holds result of PID algorithm execution for currently active fan */
 141:Generated_Source\PSoC4/FanController_INT.c ****         static uint16 FanController_pidOut;
 142:Generated_Source\PSoC4/FanController_INT.c **** 
 143:Generated_Source\PSoC4/FanController_INT.c ****         /* Fans speed regulation counters */
 144:Generated_Source\PSoC4/FanController_INT.c ****         static uint8 FanController_spdErrCount[FanController_NUMBER_OF_FANS] = {0u};
 145:Generated_Source\PSoC4/FanController_INT.c **** 
 146:Generated_Source\PSoC4/FanController_INT.c ****         #ifdef FanController_PID_CONTROL_ISR_ENTRY_CALLBACK
 147:Generated_Source\PSoC4/FanController_INT.c ****             FanController_PID_CONTROL_ISR_EntryCallback();
 148:Generated_Source\PSoC4/FanController_INT.c ****         #endif /* FanController_PID_CONTROL_ISR_ENTRY_CALLBACK */
 149:Generated_Source\PSoC4/FanController_INT.c ****         
 150:Generated_Source\PSoC4/FanController_INT.c ****         for(i = 0u; i < FanController_NUMBER_OF_FANS; i++)
 170              		.loc 1 150 0
 171 000a 0025     		movs	r5, #0
 172 000c 91E0     		b	.L11
 173              	.LVL11:
 174              	.L20:
 151:Generated_Source\PSoC4/FanController_INT.c ****         {
 152:Generated_Source\PSoC4/FanController_INT.c ****             /* Calculate the error in number of cycles of tachometer clock */
 153:Generated_Source\PSoC4/FanController_INT.c ****             #if(CY_PSOC3)
 154:Generated_Source\PSoC4/FanController_INT.c ****                 if(0u != (FanController_DMA_STATUS_REG & FanController_DMA1))
 155:Generated_Source\PSoC4/FanController_INT.c ****                 {
 156:Generated_Source\PSoC4/FanController_INT.c ****                     /* If DMA writes to actualPeriodDma1 (DMA1 state) then read actualPeriodDma2. *
 157:Generated_Source\PSoC4/FanController_INT.c ****                     currActSpeed =
 158:Generated_Source\PSoC4/FanController_INT.c ****                         (FanController_RPM_PERIOD_CONV_FACTOR / FanController_fanControl.actualPeri
 159:Generated_Source\PSoC4/FanController_INT.c ****                 }
 160:Generated_Source\PSoC4/FanController_INT.c ****                 else
 161:Generated_Source\PSoC4/FanController_INT.c ****                 {
 162:Generated_Source\PSoC4/FanController_INT.c ****                     /* If DMA writes to actualPeriodDma2 (DMA2 state) then read actualPeriodDma1. *
 163:Generated_Source\PSoC4/FanController_INT.c ****                     currActSpeed =
 164:Generated_Source\PSoC4/FanController_INT.c ****                         (FanController_RPM_PERIOD_CONV_FACTOR / FanController_fanControl.actualPeri
 165:Generated_Source\PSoC4/FanController_INT.c ****                 }
 166:Generated_Source\PSoC4/FanController_INT.c ****             #else
 167:Generated_Source\PSoC4/FanController_INT.c ****                currActSpeed =
 168:Generated_Source\PSoC4/FanController_INT.c ****                     (FanController_RPM_PERIOD_CONV_FACTOR / (uint32)FanController_fanControl.actual
ARM GAS  C:\Users\Ade0n\AppData\Local\Temp\ccbVSGUB.s 			page 7


 175              		.loc 1 168 0
 176 000e 2C00     		movs	r4, r5
 177 0010 6E00     		lsls	r6, r5, #1
 178 0012 514B     		ldr	r3, .L24
 179 0014 F15A     		ldrh	r1, [r6, r3]
 167:Generated_Source\PSoC4/FanController_INT.c ****                     (FanController_RPM_PERIOD_CONV_FACTOR / (uint32)FanController_fanControl.actual
 180              		.loc 1 167 0
 181 0016 5148     		ldr	r0, .L24+4
 182 0018 FFF7FEFF 		bl	__aeabi_uidiv
 183              	.LVL12:
 169:Generated_Source\PSoC4/FanController_INT.c ****             #endif /* (CY_PSOC3) */
 170:Generated_Source\PSoC4/FanController_INT.c **** 
 171:Generated_Source\PSoC4/FanController_INT.c ****             periodError = (int16) ((int32) FanController_desiredFansSpeed[i] - (int32) currActSpeed
 184              		.loc 1 171 0
 185 001c 504B     		ldr	r3, .L24+8
 186 001e F35A     		ldrh	r3, [r6, r3]
 187 0020 1B1A     		subs	r3, r3, r0
 188 0022 1BB2     		sxth	r3, r3
 189              	.LVL13:
 172:Generated_Source\PSoC4/FanController_INT.c **** 
 173:Generated_Source\PSoC4/FanController_INT.c ****             /* The error in RPM */
 174:Generated_Source\PSoC4/FanController_INT.c ****             pidErrorZ0 = periodError;
 175:Generated_Source\PSoC4/FanController_INT.c **** 
 176:Generated_Source\PSoC4/FanController_INT.c ****             /* Saturate... Limit the error within the design range of the compensator */
 177:Generated_Source\PSoC4/FanController_INT.c ****             if(FanController_PID_ERROR_SAT_L > pidErrorZ0)
 190              		.loc 1 177 0
 191 0024 4F4A     		ldr	r2, .L24+12
 192 0026 9342     		cmp	r3, r2
 193 0028 04DB     		blt	.L22
 178:Generated_Source\PSoC4/FanController_INT.c ****             {
 179:Generated_Source\PSoC4/FanController_INT.c ****                 pidErrorZ0 = FanController_PID_ERROR_SAT_L;
 180:Generated_Source\PSoC4/FanController_INT.c ****             }
 181:Generated_Source\PSoC4/FanController_INT.c ****             else if(FanController_PID_ERROR_SAT_H < pidErrorZ0)
 194              		.loc 1 181 0
 195 002a 8022     		movs	r2, #128
 196 002c 5201     		lsls	r2, r2, #5
 197 002e 9342     		cmp	r3, r2
 198 0030 02DC     		bgt	.L23
 199 0032 03E0     		b	.L12
 200              	.L22:
 179:Generated_Source\PSoC4/FanController_INT.c ****             }
 201              		.loc 1 179 0
 202 0034 4B4B     		ldr	r3, .L24+12
 203              	.LVL14:
 204 0036 01E0     		b	.L12
 205              	.LVL15:
 206              	.L23:
 182:Generated_Source\PSoC4/FanController_INT.c ****             {
 183:Generated_Source\PSoC4/FanController_INT.c ****                 pidErrorZ0 = FanController_PID_ERROR_SAT_H;
 207              		.loc 1 183 0
 208 0038 8023     		movs	r3, #128
 209              	.LVL16:
 210 003a 5B01     		lsls	r3, r3, #5
 211              	.L12:
 212              	.LVL17:
 184:Generated_Source\PSoC4/FanController_INT.c ****             }
 185:Generated_Source\PSoC4/FanController_INT.c ****             else
ARM GAS  C:\Users\Ade0n\AppData\Local\Temp\ccbVSGUB.s 			page 8


 186:Generated_Source\PSoC4/FanController_INT.c ****             {
 187:Generated_Source\PSoC4/FanController_INT.c ****                 /* Do nothing, the error is in range */
 188:Generated_Source\PSoC4/FanController_INT.c ****             }
 189:Generated_Source\PSoC4/FanController_INT.c **** 
 190:Generated_Source\PSoC4/FanController_INT.c ****             /* Process PID compensation */
 191:Generated_Source\PSoC4/FanController_INT.c ****             FanController_pidArea[i] = (uint32) ((int32) FanController_pidArea[i] +
 213              		.loc 1 191 0
 214 003c 4A4A     		ldr	r2, .L24+16
 215 003e 9046     		mov	r8, r2
 216 0040 A200     		lsls	r2, r4, #2
 217 0042 9446     		mov	ip, r2
 192:Generated_Source\PSoC4/FanController_INT.c ****                                             ((int32) pidErrorZ0 * (int32) FanController_pidA1[i]));
 218              		.loc 1 192 0
 219 0044 6700     		lsls	r7, r4, #1
 220 0046 494A     		ldr	r2, .L24+20
 221 0048 B95E     		ldrsh	r1, [r7, r2]
 222 004a 5943     		muls	r1, r3
 191:Generated_Source\PSoC4/FanController_INT.c ****                                             ((int32) pidErrorZ0 * (int32) FanController_pidA1[i]));
 223              		.loc 1 191 0
 224 004c 4246     		mov	r2, r8
 225 004e 6646     		mov	r6, ip
 226              	.LVL18:
 227 0050 B258     		ldr	r2, [r6, r2]
 228 0052 9146     		mov	r9, r2
 229 0054 4944     		add	r1, r1, r9
 193:Generated_Source\PSoC4/FanController_INT.c ****             FanController_pidArea[i] = (uint32) ((int32) FanController_pidArea[i] +
 194:Generated_Source\PSoC4/FanController_INT.c ****                                             ((int32) FanController_pidErrorZ1[i] *
 230              		.loc 1 194 0
 231 0056 B946     		mov	r9, r7
 232 0058 C144     		add	r9, r9, r8
 233 005a 4A46     		mov	r2, r9
 234 005c 1026     		movs	r6, #16
 235 005e 925F     		ldrsh	r2, [r2, r6]
 236 0060 9246     		mov	r10, r2
 195:Generated_Source\PSoC4/FanController_INT.c ****                                             (int32) FanController_pidA2[i]));
 237              		.loc 1 195 0
 238 0062 434A     		ldr	r2, .L24+24
 239 0064 BA5E     		ldrsh	r2, [r7, r2]
 194:Generated_Source\PSoC4/FanController_INT.c ****                                             (int32) FanController_pidA2[i]));
 240              		.loc 1 194 0
 241 0066 5646     		mov	r6, r10
 242 0068 7243     		muls	r2, r6
 193:Generated_Source\PSoC4/FanController_INT.c ****             FanController_pidArea[i] = (uint32) ((int32) FanController_pidArea[i] +
 243              		.loc 1 193 0
 244 006a 8918     		adds	r1, r1, r2
 196:Generated_Source\PSoC4/FanController_INT.c ****             FanController_pidArea[i] = (uint32) ((int32) FanController_pidArea[i] +
 197:Generated_Source\PSoC4/FanController_INT.c ****                                             ((int32) FanController_pidErrorZ2[i] *
 245              		.loc 1 197 0
 246 006c 4A46     		mov	r2, r9
 247 006e 1826     		movs	r6, #24
 248 0070 925F     		ldrsh	r2, [r2, r6]
 198:Generated_Source\PSoC4/FanController_INT.c ****                                             (int32) FanController_pidA3[i]));
 249              		.loc 1 198 0
 250 0072 404E     		ldr	r6, .L24+28
 251 0074 BE5F     		ldrsh	r6, [r7, r6]
 197:Generated_Source\PSoC4/FanController_INT.c ****                                             (int32) FanController_pidA3[i]));
 252              		.loc 1 197 0
ARM GAS  C:\Users\Ade0n\AppData\Local\Temp\ccbVSGUB.s 			page 9


 253 0076 5643     		muls	r6, r2
 196:Generated_Source\PSoC4/FanController_INT.c ****             FanController_pidArea[i] = (uint32) ((int32) FanController_pidArea[i] +
 254              		.loc 1 196 0
 255 0078 8A19     		adds	r2, r1, r6
 256 007a 4146     		mov	r1, r8
 257 007c 6646     		mov	r6, ip
 258 007e 7250     		str	r2, [r6, r1]
 199:Generated_Source\PSoC4/FanController_INT.c **** 
 200:Generated_Source\PSoC4/FanController_INT.c ****             /* Save error history */
 201:Generated_Source\PSoC4/FanController_INT.c ****             FanController_pidErrorZ2[i] = FanController_pidErrorZ1[i];
 259              		.loc 1 201 0
 260 0080 4946     		mov	r1, r9
 261 0082 5646     		mov	r6, r10
 262 0084 0E83     		strh	r6, [r1, #24]
 202:Generated_Source\PSoC4/FanController_INT.c ****             FanController_pidErrorZ1[i] = pidErrorZ0;
 263              		.loc 1 202 0
 264 0086 0B82     		strh	r3, [r1, #16]
 203:Generated_Source\PSoC4/FanController_INT.c **** 
 204:Generated_Source\PSoC4/FanController_INT.c ****             /* Saturate... Limit the error within the design range of the compensator */
 205:Generated_Source\PSoC4/FanController_INT.c ****             if(((int32) FanController_outputSatL[i]) > ((int32) FanController_pidArea[i]))
 265              		.loc 1 205 0
 266 0088 3B4B     		ldr	r3, .L24+32
 267              	.LVL19:
 268 008a 6146     		mov	r1, ip
 269              	.LVL20:
 270 008c CB58     		ldr	r3, [r1, r3]
 271 008e 9A42     		cmp	r2, r3
 272 0090 03DA     		bge	.L13
 206:Generated_Source\PSoC4/FanController_INT.c ****             {
 207:Generated_Source\PSoC4/FanController_INT.c ****                 FanController_pidArea[i] = FanController_outputSatL[i];
 273              		.loc 1 207 0
 274 0092 6246     		mov	r2, ip
 275 0094 4146     		mov	r1, r8
 276 0096 5350     		str	r3, [r2, r1]
 277 0098 07E0     		b	.L14
 278              	.L13:
 208:Generated_Source\PSoC4/FanController_INT.c ****             }
 209:Generated_Source\PSoC4/FanController_INT.c ****             else if(((int32) FanController_outputSatH[i]) < ((int32) FanController_pidArea[i]))
 279              		.loc 1 209 0
 280 009a A300     		lsls	r3, r4, #2
 281 009c 3749     		ldr	r1, .L24+36
 282 009e 5B58     		ldr	r3, [r3, r1]
 283 00a0 9A42     		cmp	r2, r3
 284 00a2 02DD     		ble	.L14
 210:Generated_Source\PSoC4/FanController_INT.c ****             {
 211:Generated_Source\PSoC4/FanController_INT.c ****                 FanController_pidArea[i] = FanController_outputSatH[i];
 285              		.loc 1 211 0
 286 00a4 A200     		lsls	r2, r4, #2
 287 00a6 3049     		ldr	r1, .L24+16
 288 00a8 5350     		str	r3, [r2, r1]
 289              	.L14:
 212:Generated_Source\PSoC4/FanController_INT.c ****             }
 213:Generated_Source\PSoC4/FanController_INT.c ****             else
 214:Generated_Source\PSoC4/FanController_INT.c ****             {
 215:Generated_Source\PSoC4/FanController_INT.c ****                 /* Do nothing, the error is in range */
 216:Generated_Source\PSoC4/FanController_INT.c ****             }
 217:Generated_Source\PSoC4/FanController_INT.c **** 
ARM GAS  C:\Users\Ade0n\AppData\Local\Temp\ccbVSGUB.s 			page 10


 218:Generated_Source\PSoC4/FanController_INT.c ****             /* Get the algorithm result */
 219:Generated_Source\PSoC4/FanController_INT.c ****             FanController_pidOut = (uint16) (FanController_pidArea[i] >> FanController_PID_POST_GAI
 290              		.loc 1 219 0
 291 00aa A300     		lsls	r3, r4, #2
 292 00ac 2E4A     		ldr	r2, .L24+16
 293 00ae 9A58     		ldr	r2, [r3, r2]
 294 00b0 120D     		lsrs	r2, r2, #20
 220:Generated_Source\PSoC4/FanController_INT.c **** 
 221:Generated_Source\PSoC4/FanController_INT.c ****             #if (!CY_PSOC4)
 222:Generated_Source\PSoC4/FanController_INT.c ****                 /* Get compare from UDB PWMs */
 223:Generated_Source\PSoC4/FanController_INT.c ****                 #if(FanController_PWMRES == FanController_PWMRES_EIGHTBIT)
 224:Generated_Source\PSoC4/FanController_INT.c ****                     tmpCompare = CY_GET_REG8(FanController_fanDriverRegs[i].pwmSetDutyReg);
 225:Generated_Source\PSoC4/FanController_INT.c ****                 #else
 226:Generated_Source\PSoC4/FanController_INT.c ****                     tmpCompare = CY_GET_REG16(FanController_fanDriverRegs[i].pwmSetDutyReg);
 227:Generated_Source\PSoC4/FanController_INT.c ****                 #endif /* FanController_PWMRES == FanController_PWMRES_EIGHTBIT */
 228:Generated_Source\PSoC4/FanController_INT.c ****             #else
 229:Generated_Source\PSoC4/FanController_INT.c ****                 /* Get compare from TCPWMs */
 230:Generated_Source\PSoC4/FanController_INT.c ****                 tmpCompare = CY_GET_REG32(FanController_fanDriverRegs[i].pwmSetDutyReg);
 295              		.loc 1 230 0
 296 00b2 3349     		ldr	r1, .L24+40
 297 00b4 5958     		ldr	r1, [r3, r1]
 298 00b6 0B68     		ldr	r3, [r1]
 299              	.LVL21:
 231:Generated_Source\PSoC4/FanController_INT.c ****             #endif /* (!CY_PSOC4) */
 232:Generated_Source\PSoC4/FanController_INT.c **** 
 233:Generated_Source\PSoC4/FanController_INT.c ****             /* Assign new compare value for fas' PWM with PID out */
 234:Generated_Source\PSoC4/FanController_INT.c ****             newCompare = FanController_pidOut;
 235:Generated_Source\PSoC4/FanController_INT.c **** 
 236:Generated_Source\PSoC4/FanController_INT.c ****             if (0u == (FanController_GLOBAL_CONTROL_REG & FanController_OVERRIDE))
 300              		.loc 1 236 0
 301 00b8 324E     		ldr	r6, .L24+44
 302 00ba 3678     		ldrb	r6, [r6]
 303 00bc 7606     		lsls	r6, r6, #25
 304 00be 00D4     		bmi	.L15
 237:Generated_Source\PSoC4/FanController_INT.c ****             {
 238:Generated_Source\PSoC4/FanController_INT.c ****                 /* If override bit is cleared then set the newly tuned compare value */
 239:Generated_Source\PSoC4/FanController_INT.c ****                 #if (!CY_PSOC4)
 240:Generated_Source\PSoC4/FanController_INT.c ****                     #if(FanController_PWMRES == FanController_PWMRES_EIGHTBIT)
 241:Generated_Source\PSoC4/FanController_INT.c ****                         CY_SET_REG8(FanController_fanDriverRegs[i].pwmSetDutyReg, (uint8) newCompar
 242:Generated_Source\PSoC4/FanController_INT.c ****                     #else
 243:Generated_Source\PSoC4/FanController_INT.c ****                         CY_SET_REG16(FanController_fanDriverRegs[i].pwmSetDutyReg, (uint16) newComp
 244:Generated_Source\PSoC4/FanController_INT.c ****                     #endif /* FanController_PWMRES == FanController_PWMRES_EIGHTBIT */
 245:Generated_Source\PSoC4/FanController_INT.c ****                 #else
 246:Generated_Source\PSoC4/FanController_INT.c ****                     CY_SET_REG32(FanController_fanDriverRegs[i].pwmSetDutyReg, newCompare);
 305              		.loc 1 246 0
 306 00c0 0A60     		str	r2, [r1]
 307              	.LVL22:
 308              	.L15:
 247:Generated_Source\PSoC4/FanController_INT.c ****                 #endif /* (!CY_PSOC4) */
 248:Generated_Source\PSoC4/FanController_INT.c ****             }
 249:Generated_Source\PSoC4/FanController_INT.c **** 
 250:Generated_Source\PSoC4/FanController_INT.c ****             /*************************************
 251:Generated_Source\PSoC4/FanController_INT.c ****             * Speed regulation status
 252:Generated_Source\PSoC4/FanController_INT.c ****             **************************************/
 253:Generated_Source\PSoC4/FanController_INT.c ****             /* Analyze compare and result from PID */
 254:Generated_Source\PSoC4/FanController_INT.c ****             if ((FanController_PWM_PERIOD == tmpCompare) &&
 309              		.loc 1 254 0
ARM GAS  C:\Users\Ade0n\AppData\Local\Temp\ccbVSGUB.s 			page 11


 310 00c2 F022     		movs	r2, #240
 311              	.LVL23:
 312 00c4 9200     		lsls	r2, r2, #2
 313 00c6 9342     		cmp	r3, r2
 314 00c8 0BD1     		bne	.L16
 255:Generated_Source\PSoC4/FanController_INT.c ****                 (currActSpeed < FanController_desiredFansSpeed[i]))
 315              		.loc 1 255 0 discriminator 1
 316 00ca 6200     		lsls	r2, r4, #1
 317 00cc 2449     		ldr	r1, .L24+8
 318 00ce 525A     		ldrh	r2, [r2, r1]
 254:Generated_Source\PSoC4/FanController_INT.c ****                 (currActSpeed < FanController_desiredFansSpeed[i]))
 319              		.loc 1 254 0 discriminator 1
 320 00d0 9042     		cmp	r0, r2
 321 00d2 06D2     		bcs	.L16
 256:Generated_Source\PSoC4/FanController_INT.c ****             {
 257:Generated_Source\PSoC4/FanController_INT.c ****                 /* Increase speed failure counter */
 258:Generated_Source\PSoC4/FanController_INT.c ****                 FanController_spdErrCount[i]++;
 322              		.loc 1 258 0
 323 00d4 2021     		movs	r1, #32
 324 00d6 244B     		ldr	r3, .L24+16
 325              	.LVL24:
 326 00d8 1B19     		adds	r3, r3, r4
 327 00da 5A5C     		ldrb	r2, [r3, r1]
 328 00dc 0132     		adds	r2, r2, #1
 329 00de 5A54     		strb	r2, [r3, r1]
 330 00e0 17E0     		b	.L17
 331              	.LVL25:
 332              	.L16:
 259:Generated_Source\PSoC4/FanController_INT.c ****             }
 260:Generated_Source\PSoC4/FanController_INT.c ****             else if ((0u == tmpCompare) &&
 333              		.loc 1 260 0
 334 00e2 002B     		cmp	r3, #0
 335 00e4 10D1     		bne	.L18
 261:Generated_Source\PSoC4/FanController_INT.c ****                 (currActSpeed > FanController_desiredFansSpeed[i]))
 336              		.loc 1 261 0 discriminator 1
 337 00e6 6300     		lsls	r3, r4, #1
 338              	.LVL26:
 339 00e8 1D4A     		ldr	r2, .L24+8
 340 00ea 9B5A     		ldrh	r3, [r3, r2]
 260:Generated_Source\PSoC4/FanController_INT.c ****                 (currActSpeed > FanController_desiredFansSpeed[i]))
 341              		.loc 1 260 0 discriminator 1
 342 00ec 9842     		cmp	r0, r3
 343 00ee 0BD9     		bls	.L18
 262:Generated_Source\PSoC4/FanController_INT.c ****             {
 263:Generated_Source\PSoC4/FanController_INT.c ****                 /* Avoid overflow */
 264:Generated_Source\PSoC4/FanController_INT.c ****                 if (FanController_spdErrCount[i] < FanController_MAX_SPEED_ERRORS)
 344              		.loc 1 264 0
 345 00f0 1D4B     		ldr	r3, .L24+16
 346 00f2 1B19     		adds	r3, r3, r4
 347 00f4 2022     		movs	r2, #32
 348 00f6 9B5C     		ldrb	r3, [r3, r2]
 349 00f8 FF2B     		cmp	r3, #255
 350 00fa 0AD0     		beq	.L17
 265:Generated_Source\PSoC4/FanController_INT.c ****                 {
 266:Generated_Source\PSoC4/FanController_INT.c ****                     /* Increase speed failure counter */
 267:Generated_Source\PSoC4/FanController_INT.c ****                     FanController_spdErrCount[i]++;
 351              		.loc 1 267 0
ARM GAS  C:\Users\Ade0n\AppData\Local\Temp\ccbVSGUB.s 			page 12


 352 00fc 1A4A     		ldr	r2, .L24+16
 353 00fe 1219     		adds	r2, r2, r4
 354 0100 0133     		adds	r3, r3, #1
 355 0102 2021     		movs	r1, #32
 356 0104 5354     		strb	r3, [r2, r1]
 357 0106 04E0     		b	.L17
 358              	.L18:
 268:Generated_Source\PSoC4/FanController_INT.c ****                 }
 269:Generated_Source\PSoC4/FanController_INT.c ****             }
 270:Generated_Source\PSoC4/FanController_INT.c ****             else
 271:Generated_Source\PSoC4/FanController_INT.c ****             {
 272:Generated_Source\PSoC4/FanController_INT.c ****                 /* Clear speed failure counter */
 273:Generated_Source\PSoC4/FanController_INT.c ****                 FanController_spdErrCount[i] = 0u;
 359              		.loc 1 273 0
 360 0108 174B     		ldr	r3, .L24+16
 361 010a 1B19     		adds	r3, r3, r4
 362 010c 0021     		movs	r1, #0
 363 010e 2022     		movs	r2, #32
 364 0110 9954     		strb	r1, [r3, r2]
 365              	.L17:
 274:Generated_Source\PSoC4/FanController_INT.c ****             }
 275:Generated_Source\PSoC4/FanController_INT.c **** 
 276:Generated_Source\PSoC4/FanController_INT.c ****             if (FanController_SPEED_ERRORS_TRESHOLD < FanController_spdErrCount[i])
 366              		.loc 1 276 0
 367 0112 154B     		ldr	r3, .L24+16
 368 0114 1B19     		adds	r3, r3, r4
 369 0116 2022     		movs	r2, #32
 370 0118 9B5C     		ldrb	r3, [r3, r2]
 371 011a 102B     		cmp	r3, #16
 372 011c 07D9     		bls	.L19
 277:Generated_Source\PSoC4/FanController_INT.c ****             {
 278:Generated_Source\PSoC4/FanController_INT.c ****                 /* The number of speed errors is above threshold so set the
 279:Generated_Source\PSoC4/FanController_INT.c ****                 * respective speed error bit in the software speed status but
 280:Generated_Source\PSoC4/FanController_INT.c ****                 * only if respective bit is set in the alert mask register.
 281:Generated_Source\PSoC4/FanController_INT.c ****                 */
 282:Generated_Source\PSoC4/FanController_INT.c ****                 mask = FanController_GetAlertMask();
 373              		.loc 1 282 0
 374 011e FFF7FEFF 		bl	FanController_GetAlertMask
 375              	.LVL27:
 283:Generated_Source\PSoC4/FanController_INT.c **** 
 284:Generated_Source\PSoC4/FanController_INT.c ****                 FanController_speedStatus = (uint16) ((((uint16) 1u) << i)) & mask;
 376              		.loc 1 284 0
 377 0122 0123     		movs	r3, #1
 378 0124 A340     		lsls	r3, r3, r4
 379 0126 1840     		ands	r0, r3
 380              	.LVL28:
 381 0128 80B2     		uxth	r0, r0
 382 012a 0F4B     		ldr	r3, .L24+16
 383 012c 9884     		strh	r0, [r3, #36]
 384              	.L19:
 150:Generated_Source\PSoC4/FanController_INT.c ****         {
 385              		.loc 1 150 0 discriminator 2
 386 012e 0135     		adds	r5, r5, #1
 387              	.LVL29:
 388 0130 EDB2     		uxtb	r5, r5
 389              	.LVL30:
 390              	.L11:
ARM GAS  C:\Users\Ade0n\AppData\Local\Temp\ccbVSGUB.s 			page 13


 150:Generated_Source\PSoC4/FanController_INT.c ****         {
 391              		.loc 1 150 0 is_stmt 0 discriminator 1
 392 0132 032D     		cmp	r5, #3
 393 0134 00D8     		bhi	.LCB367
 394 0136 6AE7     		b	.L20	@long jump
 395              	.LCB367:
 285:Generated_Source\PSoC4/FanController_INT.c ****             }
 286:Generated_Source\PSoC4/FanController_INT.c ****         }
 287:Generated_Source\PSoC4/FanController_INT.c **** 
 288:Generated_Source\PSoC4/FanController_INT.c ****         /* If software speed status register is not zero then simulate
 289:Generated_Source\PSoC4/FanController_INT.c ****         * hardware failure event. This will generate a pulse that goes to
 290:Generated_Source\PSoC4/FanController_INT.c ****         * Alert Status register.
 291:Generated_Source\PSoC4/FanController_INT.c ****         */
 292:Generated_Source\PSoC4/FanController_INT.c ****         if (0u !=FanController_speedStatus)
 396              		.loc 1 292 0 is_stmt 1
 397 0138 0B4B     		ldr	r3, .L24+16
 398 013a 9B8C     		ldrh	r3, [r3, #36]
 399 013c 9BB2     		uxth	r3, r3
 400 013e 002B     		cmp	r3, #0
 401 0140 05D0     		beq	.L10
 293:Generated_Source\PSoC4/FanController_INT.c ****         {
 294:Generated_Source\PSoC4/FanController_INT.c ****             FanController_GLOBAL_CONTROL_REG |= FanController_SW_SPEED_ERROR;
 402              		.loc 1 294 0
 403 0142 104A     		ldr	r2, .L24+44
 404 0144 1178     		ldrb	r1, [r2]
 405 0146 1023     		movs	r3, #16
 406 0148 0B43     		orrs	r3, r1
 407 014a DBB2     		uxtb	r3, r3
 408 014c 1370     		strb	r3, [r2]
 409              	.L10:
 295:Generated_Source\PSoC4/FanController_INT.c ****         }
 296:Generated_Source\PSoC4/FanController_INT.c **** 
 297:Generated_Source\PSoC4/FanController_INT.c ****         #ifdef FanController_PID_CONTROL_ISR_EXIT_CALLBACK
 298:Generated_Source\PSoC4/FanController_INT.c ****             FanController_PID_CONTROL_ISR_ExitCallback();
 299:Generated_Source\PSoC4/FanController_INT.c ****         #endif /* FanController_PID_CONTROL_ISR_EXIT_CALLBACK */
 300:Generated_Source\PSoC4/FanController_INT.c ****     }
 410              		.loc 1 300 0
 411              		@ sp needed
 412              	.LVL31:
 413 014e 1CBC     		pop	{r2, r3, r4}
 414 0150 9046     		mov	r8, r2
 415 0152 9946     		mov	r9, r3
 416 0154 A246     		mov	r10, r4
 417 0156 F0BD     		pop	{r4, r5, r6, r7, pc}
 418              	.L25:
 419              		.align	2
 420              	.L24:
 421 0158 00000000 		.word	FanController_fanControl
 422 015c 80C3C901 		.word	30000000
 423 0160 00000000 		.word	FanController_desiredFansSpeed
 424 0164 00F0FFFF 		.word	-4096
 425 0168 00000000 		.word	.LANCHOR0
 426 016c 00000000 		.word	FanController_pidA1
 427 0170 00000000 		.word	FanController_pidA2
 428 0174 00000000 		.word	FanController_pidA3
 429 0178 00000000 		.word	FanController_outputSatL
 430 017c 00000000 		.word	FanController_outputSatH
ARM GAS  C:\Users\Ade0n\AppData\Local\Temp\ccbVSGUB.s 			page 14


 431 0180 00000000 		.word	FanController_fanDriverRegs
 432 0184 72000F40 		.word	1074724978
 433              		.cfi_endproc
 434              	.LFE3:
 435              		.size	FanController_PID_CONTROL_ISR, .-FanController_PID_CONTROL_ISR
 436              		.global	FanController_speedStatus
 437              		.bss
 438              		.align	2
 439              		.set	.LANCHOR0,. + 0
 440              		.type	FanController_pidArea.4954, %object
 441              		.size	FanController_pidArea.4954, 16
 442              	FanController_pidArea.4954:
 443 0000 00000000 		.space	16
 443      00000000 
 443      00000000 
 443      00000000 
 444              		.type	FanController_pidErrorZ1.4952, %object
 445              		.size	FanController_pidErrorZ1.4952, 8
 446              	FanController_pidErrorZ1.4952:
 447 0010 00000000 		.space	8
 447      00000000 
 448              		.type	FanController_pidErrorZ2.4953, %object
 449              		.size	FanController_pidErrorZ2.4953, 8
 450              	FanController_pidErrorZ2.4953:
 451 0018 00000000 		.space	8
 451      00000000 
 452              		.type	FanController_spdErrCount.4956, %object
 453              		.size	FanController_spdErrCount.4956, 4
 454              	FanController_spdErrCount.4956:
 455 0020 00000000 		.space	4
 456              		.type	FanController_speedStatus, %object
 457              		.size	FanController_speedStatus, 2
 458              	FanController_speedStatus:
 459 0024 0000     		.space	2
 460              		.text
 461              	.Letext0:
 462              		.file 2 "Generated_Source\\PSoC4\\cytypes.h"
 463              		.file 3 "Generated_Source\\PSoC4\\FanController.h"