ARM GAS  C:\Users\Ade0n\AppData\Local\Temp\ccn6i87z.s 			page 1


   1              		.syntax unified
   2              		.cpu cortex-m0
   3              		.fpu softvfp
   4              		.eabi_attribute 20, 1
   5              		.eabi_attribute 21, 1
   6              		.eabi_attribute 23, 3
   7              		.eabi_attribute 24, 1
   8              		.eabi_attribute 25, 1
   9              		.eabi_attribute 26, 1
  10              		.eabi_attribute 30, 1
  11              		.eabi_attribute 34, 0
  12              		.eabi_attribute 18, 4
  13              		.thumb
  14              		.syntax unified
  15              		.file	"FanController.c"
  16              		.text
  17              	.Ltext0:
  18              		.cfi_sections	.debug_frame
  19              		.section	.text.FanController_Enable,"ax",%progbits
  20              		.align	2
  21              		.global	FanController_Enable
  22              		.code	16
  23              		.thumb_func
  24              		.type	FanController_Enable, %function
  25              	FanController_Enable:
  26              	.LFB5:
  27              		.file 1 "Generated_Source\\PSoC4\\FanController.c"
   1:Generated_Source\PSoC4/FanController.c **** /*******************************************************************************
   2:Generated_Source\PSoC4/FanController.c **** * File Name: FanController.c
   3:Generated_Source\PSoC4/FanController.c **** * Version 4.10
   4:Generated_Source\PSoC4/FanController.c **** *
   5:Generated_Source\PSoC4/FanController.c **** * Description:
   6:Generated_Source\PSoC4/FanController.c **** *  This file contains the API files for the FanController component.
   7:Generated_Source\PSoC4/FanController.c **** *  The FanController component supports up to 16 pulse width modulator (PWM)
   8:Generated_Source\PSoC4/FanController.c **** *  controlled 4-wire fans and through an intuitive graphical interface,
   9:Generated_Source\PSoC4/FanController.c **** *  enabling designers to quickly configure the number of fans, their electro-
  10:Generated_Source\PSoC4/FanController.c **** *  mechanical properties, organization into banks (if desired) and the control
  11:Generated_Source\PSoC4/FanController.c **** *  algorithm type: firmware or hardware based.
  12:Generated_Source\PSoC4/FanController.c **** *
  13:Generated_Source\PSoC4/FanController.c **** *  Refer to AN66627 "PSoC(R) 3 and PSoC 5 - Intelligent Fan Controller" for
  14:Generated_Source\PSoC4/FanController.c **** *  more details and example projects.
  15:Generated_Source\PSoC4/FanController.c **** *
  16:Generated_Source\PSoC4/FanController.c **** * Note:
  17:Generated_Source\PSoC4/FanController.c **** *
  18:Generated_Source\PSoC4/FanController.c **** *******************************************************************************
  19:Generated_Source\PSoC4/FanController.c **** * Copyright 2008-2017, Cypress Semiconductor Corporation.  All rights reserved.
  20:Generated_Source\PSoC4/FanController.c **** * You may use this file only in accordance with the license, terms, conditions,
  21:Generated_Source\PSoC4/FanController.c **** * disclaimers, and limitations in the end user license agreement accompanying
  22:Generated_Source\PSoC4/FanController.c **** * the software package with which this file was provided.
  23:Generated_Source\PSoC4/FanController.c **** ********************************************************************************/
  24:Generated_Source\PSoC4/FanController.c **** 
  25:Generated_Source\PSoC4/FanController.c **** #include "FanController.h"
  26:Generated_Source\PSoC4/FanController.c **** #include "CyLib.h"
  27:Generated_Source\PSoC4/FanController.c **** 
  28:Generated_Source\PSoC4/FanController.c **** #if(CY_PSOC4)
  29:Generated_Source\PSoC4/FanController.c ****     #include "FanController_DataSend.h"
  30:Generated_Source\PSoC4/FanController.c **** 
ARM GAS  C:\Users\Ade0n\AppData\Local\Temp\ccn6i87z.s 			page 2


  31:Generated_Source\PSoC4/FanController.c ****     #if(FanController_NUMBER_OF_FAN_OUTPUTS == 1u)
  32:Generated_Source\PSoC4/FanController.c ****         #include "FanController_FW_PWM1.h"
  33:Generated_Source\PSoC4/FanController.c ****     #elif(FanController_NUMBER_OF_FAN_OUTPUTS == 2u)
  34:Generated_Source\PSoC4/FanController.c ****         #include "FanController_FW_PWM1.h"
  35:Generated_Source\PSoC4/FanController.c ****         #include "FanController_FW_PWM2.h"
  36:Generated_Source\PSoC4/FanController.c ****     #elif(FanController_NUMBER_OF_FAN_OUTPUTS == 3u)
  37:Generated_Source\PSoC4/FanController.c ****         #include "FanController_FW_PWM1.h"
  38:Generated_Source\PSoC4/FanController.c ****         #include "FanController_FW_PWM2.h"
  39:Generated_Source\PSoC4/FanController.c ****         #include "FanController_FW_PWM3.h"
  40:Generated_Source\PSoC4/FanController.c ****     #else
  41:Generated_Source\PSoC4/FanController.c ****         #include "FanController_FW_PWM1.h"
  42:Generated_Source\PSoC4/FanController.c ****         #include "FanController_FW_PWM2.h"
  43:Generated_Source\PSoC4/FanController.c ****         #include "FanController_FW_PWM3.h"
  44:Generated_Source\PSoC4/FanController.c ****         #include "FanController_FW_PWM4.h"
  45:Generated_Source\PSoC4/FanController.c ****     #endif /* (FanController_NUMBER_OF_FAN_OUTPUTS == 1u) */
  46:Generated_Source\PSoC4/FanController.c **** 
  47:Generated_Source\PSoC4/FanController.c **** #endif /* (CY_PSOC4) */
  48:Generated_Source\PSoC4/FanController.c **** 
  49:Generated_Source\PSoC4/FanController.c **** #if(FanController_IS_AUTO_FIRMWARE_MODE)
  50:Generated_Source\PSoC4/FanController.c ****     #include "FanController_PID_ISR.h"
  51:Generated_Source\PSoC4/FanController.c **** #endif /* (FanController_IS_AUTO_FIRMWARE_MODE) */
  52:Generated_Source\PSoC4/FanController.c **** 
  53:Generated_Source\PSoC4/FanController.c **** 
  54:Generated_Source\PSoC4/FanController.c **** /*******************************************************************************
  55:Generated_Source\PSoC4/FanController.c **** * Variables
  56:Generated_Source\PSoC4/FanController.c **** *
  57:Generated_Source\PSoC4/FanController.c **** * Fan Control Data Structure declaration and initialization can be found at the
  58:Generated_Source\PSoC4/FanController.c **** * end of this file due to its large size.
  59:Generated_Source\PSoC4/FanController.c **** ********************************************************************************/
  60:Generated_Source\PSoC4/FanController.c **** uint8   FanController_initVar = 0u;
  61:Generated_Source\PSoC4/FanController.c **** 
  62:Generated_Source\PSoC4/FanController.c **** #if (CY_PSOC4)
  63:Generated_Source\PSoC4/FanController.c ****     uint16 FanController_alertMask = 0u;
  64:Generated_Source\PSoC4/FanController.c ****     uint16 FanController_stallStatus = 0u;
  65:Generated_Source\PSoC4/FanController.c **** #else
  66:Generated_Source\PSoC4/FanController.c ****     
  67:Generated_Source\PSoC4/FanController.c ****     /* Stores channel number of Tachometer out DMA */
  68:Generated_Source\PSoC4/FanController.c ****     static uint8 FanController_TachOutDMA_channel = 0u;
  69:Generated_Source\PSoC4/FanController.c **** 
  70:Generated_Source\PSoC4/FanController.c ****     #if(FanController_IS_AUTO_HARDWARE_MODE)
  71:Generated_Source\PSoC4/FanController.c ****         
  72:Generated_Source\PSoC4/FanController.c ****         /* Stores channel number of Tachometer in DMA */
  73:Generated_Source\PSoC4/FanController.c ****         static uint8 FanController_TachInDMA_channel = 0u;
  74:Generated_Source\PSoC4/FanController.c **** 
  75:Generated_Source\PSoC4/FanController.c ****     #endif /* FanController_IS_AUTO_HARDWARE_MODE */
  76:Generated_Source\PSoC4/FanController.c **** 
  77:Generated_Source\PSoC4/FanController.c **** #endif /* (CY_PSOC4) */
  78:Generated_Source\PSoC4/FanController.c **** 
  79:Generated_Source\PSoC4/FanController.c **** /* Arrays for storing PID parameters and saturation ranges */
  80:Generated_Source\PSoC4/FanController.c **** #if(FanController_IS_AUTO_FIRMWARE_MODE)
  81:Generated_Source\PSoC4/FanController.c ****     int16 FanController_pidA1[FanController_NUMBER_OF_FANS];
  82:Generated_Source\PSoC4/FanController.c ****     int16 FanController_pidA2[FanController_NUMBER_OF_FANS];
  83:Generated_Source\PSoC4/FanController.c ****     int16 FanController_pidA3[FanController_NUMBER_OF_FANS];
  84:Generated_Source\PSoC4/FanController.c **** 
  85:Generated_Source\PSoC4/FanController.c ****     uint32 FanController_outputSatL[FanController_NUMBER_OF_FANS];
  86:Generated_Source\PSoC4/FanController.c ****     uint32 FanController_outputSatH[FanController_NUMBER_OF_FANS];
  87:Generated_Source\PSoC4/FanController.c **** #endif /* (FanController_IS_AUTO_FIRMWARE_MODE) */
ARM GAS  C:\Users\Ade0n\AppData\Local\Temp\ccn6i87z.s 			page 3


  88:Generated_Source\PSoC4/FanController.c **** 
  89:Generated_Source\PSoC4/FanController.c **** #if(!FanController_IS_MANUAL_MODE)
  90:Generated_Source\PSoC4/FanController.c ****     /* An array to store desired fans speeds */
  91:Generated_Source\PSoC4/FanController.c ****     uint16 FanController_desiredFansSpeed[FanController_NUMBER_OF_FANS];
  92:Generated_Source\PSoC4/FanController.c **** #endif /* (!FanController_IS_MANUAL_MODE) */
  93:Generated_Source\PSoC4/FanController.c **** 
  94:Generated_Source\PSoC4/FanController.c **** 
  95:Generated_Source\PSoC4/FanController.c **** /*******************************************************************************
  96:Generated_Source\PSoC4/FanController.c **** * Private API Prototypes
  97:Generated_Source\PSoC4/FanController.c **** ********************************************************************************/
  98:Generated_Source\PSoC4/FanController.c **** #if (!CY_PSOC4)
  99:Generated_Source\PSoC4/FanController.c ****     static void  FanController_SetupDMA(void) CYREENTRANT;
 100:Generated_Source\PSoC4/FanController.c ****     static uint8 FanController_TachOutDMA_DmaInitialize(uint8 burstCount, uint8 requestPerBurst,
 101:Generated_Source\PSoC4/FanController.c ****                                                     uint16 upperSrcAddress, uint16 upperDestAddress
 102:Generated_Source\PSoC4/FanController.c ****     static void  FanController_TachOutDMA_DmaRelease(void) CYREENTRANT;
 103:Generated_Source\PSoC4/FanController.c **** 
 104:Generated_Source\PSoC4/FanController.c ****     #if(FanController_IS_AUTO_HARDWARE_MODE)
 105:Generated_Source\PSoC4/FanController.c **** 
 106:Generated_Source\PSoC4/FanController.c ****         static uint8 FanController_TachInDMA_DmaInitialize(uint8 burstCount, uint8 requestPerBurst,
 107:Generated_Source\PSoC4/FanController.c ****                                                         uint16 upperSrcAddress, uint16 upperDestAdd
 108:Generated_Source\PSoC4/FanController.c ****         static void  FanController_TachInDMA_DmaRelease(void) CYREENTRANT;
 109:Generated_Source\PSoC4/FanController.c **** 
 110:Generated_Source\PSoC4/FanController.c ****     #endif /* FanController_IS_AUTO_HARDWARE_MODE */
 111:Generated_Source\PSoC4/FanController.c **** 
 112:Generated_Source\PSoC4/FanController.c **** #endif /* (!CY_PSOC4) */
 113:Generated_Source\PSoC4/FanController.c **** 
 114:Generated_Source\PSoC4/FanController.c **** 
 115:Generated_Source\PSoC4/FanController.c **** /******************************************************************************
 116:Generated_Source\PSoC4/FanController.c **** * Function Name: FanController_Start
 117:Generated_Source\PSoC4/FanController.c **** *******************************************************************************
 118:Generated_Source\PSoC4/FanController.c **** *
 119:Generated_Source\PSoC4/FanController.c **** * Summary:
 120:Generated_Source\PSoC4/FanController.c **** *  Initializes component if not already initialized, then re-enables it.
 121:Generated_Source\PSoC4/FanController.c **** *
 122:Generated_Source\PSoC4/FanController.c **** * Parameters:
 123:Generated_Source\PSoC4/FanController.c **** *  None
 124:Generated_Source\PSoC4/FanController.c **** *
 125:Generated_Source\PSoC4/FanController.c **** * Return:
 126:Generated_Source\PSoC4/FanController.c **** *  None
 127:Generated_Source\PSoC4/FanController.c **** *
 128:Generated_Source\PSoC4/FanController.c **** * Side Effects:
 129:Generated_Source\PSoC4/FanController.c **** *  None
 130:Generated_Source\PSoC4/FanController.c **** *
 131:Generated_Source\PSoC4/FanController.c **** ****************************************************************************/
 132:Generated_Source\PSoC4/FanController.c **** void FanController_Start(void) 
 133:Generated_Source\PSoC4/FanController.c **** {
 134:Generated_Source\PSoC4/FanController.c ****     /* If not already initialized, then initialize hardware and variables */
 135:Generated_Source\PSoC4/FanController.c ****     if(FanController_initVar == 0u)
 136:Generated_Source\PSoC4/FanController.c ****     {
 137:Generated_Source\PSoC4/FanController.c ****         FanController_Init();
 138:Generated_Source\PSoC4/FanController.c ****         FanController_initVar = 1u;
 139:Generated_Source\PSoC4/FanController.c ****     }
 140:Generated_Source\PSoC4/FanController.c ****     FanController_Enable();
 141:Generated_Source\PSoC4/FanController.c **** }
 142:Generated_Source\PSoC4/FanController.c **** 
 143:Generated_Source\PSoC4/FanController.c **** 
 144:Generated_Source\PSoC4/FanController.c **** /******************************************************************************
ARM GAS  C:\Users\Ade0n\AppData\Local\Temp\ccn6i87z.s 			page 4


 145:Generated_Source\PSoC4/FanController.c **** * Function Name: FanController_Stop
 146:Generated_Source\PSoC4/FanController.c **** *******************************************************************************
 147:Generated_Source\PSoC4/FanController.c **** *
 148:Generated_Source\PSoC4/FanController.c **** * Summary:
 149:Generated_Source\PSoC4/FanController.c **** *  Stop the fan controller component.  Disables all hardware sub-components,
 150:Generated_Source\PSoC4/FanController.c **** *  drives fan outputs high and de-asserts the alert pin.
 151:Generated_Source\PSoC4/FanController.c **** *
 152:Generated_Source\PSoC4/FanController.c **** * Parameters:
 153:Generated_Source\PSoC4/FanController.c **** *  None
 154:Generated_Source\PSoC4/FanController.c **** *
 155:Generated_Source\PSoC4/FanController.c **** * Return:
 156:Generated_Source\PSoC4/FanController.c **** *  None
 157:Generated_Source\PSoC4/FanController.c **** *
 158:Generated_Source\PSoC4/FanController.c **** * Side Effects:
 159:Generated_Source\PSoC4/FanController.c **** *  All PWM outputs to fans will be driven high (100% duty cycle).
 160:Generated_Source\PSoC4/FanController.c **** *  Alert output de-asserted.
 161:Generated_Source\PSoC4/FanController.c **** *
 162:Generated_Source\PSoC4/FanController.c **** ******************************************************************************/
 163:Generated_Source\PSoC4/FanController.c **** void FanController_Stop(void) 
 164:Generated_Source\PSoC4/FanController.c **** {
 165:Generated_Source\PSoC4/FanController.c ****     /* Turn off the hardware sub-components */
 166:Generated_Source\PSoC4/FanController.c ****     FanController_GLOBAL_CONTROL_REG = 0u;
 167:Generated_Source\PSoC4/FanController.c **** 
 168:Generated_Source\PSoC4/FanController.c ****     /* De-assert the alert pin */
 169:Generated_Source\PSoC4/FanController.c ****     FanController_DisableAlert();
 170:Generated_Source\PSoC4/FanController.c **** 
 171:Generated_Source\PSoC4/FanController.c ****     #if (!CY_PSOC4)
 172:Generated_Source\PSoC4/FanController.c **** 
 173:Generated_Source\PSoC4/FanController.c ****         /* Release DMA resources */
 174:Generated_Source\PSoC4/FanController.c ****         FanController_TachOutDMA_DmaRelease();
 175:Generated_Source\PSoC4/FanController.c **** 
 176:Generated_Source\PSoC4/FanController.c ****         #if(FanController_IS_AUTO_HARDWARE_MODE)
 177:Generated_Source\PSoC4/FanController.c ****             FanController_TachInDMA_DmaRelease();
 178:Generated_Source\PSoC4/FanController.c ****         #endif /* FanController_IS_AUTO_HARDWARE_MODE */
 179:Generated_Source\PSoC4/FanController.c **** 
 180:Generated_Source\PSoC4/FanController.c ****     #else
 181:Generated_Source\PSoC4/FanController.c **** 
 182:Generated_Source\PSoC4/FanController.c ****         /* Disable PWMs */
 183:Generated_Source\PSoC4/FanController.c ****         #if(FanController_NUMBER_OF_FAN_OUTPUTS == 1u)
 184:Generated_Source\PSoC4/FanController.c ****             FanController_FW_PWM1_Stop();
 185:Generated_Source\PSoC4/FanController.c ****         #elif(FanController_NUMBER_OF_FAN_OUTPUTS == 2u)
 186:Generated_Source\PSoC4/FanController.c ****             FanController_FW_PWM1_Stop();
 187:Generated_Source\PSoC4/FanController.c ****             FanController_FW_PWM2_Stop();
 188:Generated_Source\PSoC4/FanController.c ****         #elif(FanController_NUMBER_OF_FAN_OUTPUTS == 3u)
 189:Generated_Source\PSoC4/FanController.c ****             FanController_FW_PWM1_Stop();
 190:Generated_Source\PSoC4/FanController.c ****             FanController_FW_PWM2_Stop();
 191:Generated_Source\PSoC4/FanController.c ****             FanController_FW_PWM3_Stop();
 192:Generated_Source\PSoC4/FanController.c ****         #else
 193:Generated_Source\PSoC4/FanController.c ****             FanController_FW_PWM1_Stop();
 194:Generated_Source\PSoC4/FanController.c ****             FanController_FW_PWM2_Stop();
 195:Generated_Source\PSoC4/FanController.c ****             FanController_FW_PWM3_Stop();
 196:Generated_Source\PSoC4/FanController.c ****             FanController_FW_PWM4_Stop();
 197:Generated_Source\PSoC4/FanController.c ****         #endif /* (FanController_NUMBER_OF_FAN_OUTPUTS == 1u) */
 198:Generated_Source\PSoC4/FanController.c **** 
 199:Generated_Source\PSoC4/FanController.c ****     #endif /* (!CY_PSOC4) */
 200:Generated_Source\PSoC4/FanController.c **** }
 201:Generated_Source\PSoC4/FanController.c **** 
ARM GAS  C:\Users\Ade0n\AppData\Local\Temp\ccn6i87z.s 			page 5


 202:Generated_Source\PSoC4/FanController.c **** 
 203:Generated_Source\PSoC4/FanController.c **** /******************************************************************************
 204:Generated_Source\PSoC4/FanController.c **** * Function Name: FanController_Init
 205:Generated_Source\PSoC4/FanController.c **** *******************************************************************************
 206:Generated_Source\PSoC4/FanController.c **** *
 207:Generated_Source\PSoC4/FanController.c **** * Summary:
 208:Generated_Source\PSoC4/FanController.c **** *  Sets up DMA channels and transaction descriptors. Configures PWMs and
 209:Generated_Source\PSoC4/FanController.c **** *  Tachometer hardware blocks. Also it configures interrupts if they are used
 210:Generated_Source\PSoC4/FanController.c **** *  in the component.
 211:Generated_Source\PSoC4/FanController.c **** *
 212:Generated_Source\PSoC4/FanController.c **** * Parameters:
 213:Generated_Source\PSoC4/FanController.c **** *  None
 214:Generated_Source\PSoC4/FanController.c **** *
 215:Generated_Source\PSoC4/FanController.c **** * Return:
 216:Generated_Source\PSoC4/FanController.c **** *  None
 217:Generated_Source\PSoC4/FanController.c **** *
 218:Generated_Source\PSoC4/FanController.c **** * Side Effects:
 219:Generated_Source\PSoC4/FanController.c **** *  Allocates DMA channels and transaction descriptors (TDs).
 220:Generated_Source\PSoC4/FanController.c **** *
 221:Generated_Source\PSoC4/FanController.c **** ******************************************************************************/
 222:Generated_Source\PSoC4/FanController.c **** void FanController_Init(void) 
 223:Generated_Source\PSoC4/FanController.c **** {
 224:Generated_Source\PSoC4/FanController.c ****     uint8 counti;
 225:Generated_Source\PSoC4/FanController.c ****     uint8 interruptState;
 226:Generated_Source\PSoC4/FanController.c **** 
 227:Generated_Source\PSoC4/FanController.c ****     #if (!CY_PSOC4)
 228:Generated_Source\PSoC4/FanController.c ****         
 229:Generated_Source\PSoC4/FanController.c ****         /* Performs configuration of DMA used in the component */
 230:Generated_Source\PSoC4/FanController.c ****         FanController_SetupDMA();
 231:Generated_Source\PSoC4/FanController.c **** 
 232:Generated_Source\PSoC4/FanController.c ****         /***********************************************************************
 233:Generated_Source\PSoC4/FanController.c ****         * Initialize the PWMs
 234:Generated_Source\PSoC4/FanController.c ****         ***********************************************************************/
 235:Generated_Source\PSoC4/FanController.c ****         #if(FanController_IS_AUTO_HARDWARE_MODE)
 236:Generated_Source\PSoC4/FanController.c **** 
 237:Generated_Source\PSoC4/FanController.c ****             /* Configure hardware controlled PWMs */
 238:Generated_Source\PSoC4/FanController.c ****             for (counti = 0u; counti < FanController_NUMBER_OF_FANS; counti++)
 239:Generated_Source\PSoC4/FanController.c ****             {
 240:Generated_Source\PSoC4/FanController.c ****                 /* 8-bit hardware controlled PWM */
 241:Generated_Source\PSoC4/FanController.c ****                 #if(FanController_PWMRES == FanController_PWMRES_EIGHTBIT)
 242:Generated_Source\PSoC4/FanController.c ****                     /* Set max PWM period */
 243:Generated_Source\PSoC4/FanController.c ****                     CY_SET_REG8(FanController_fanDriverRegs[counti].pwmPeriodReg, FanController_PWM
 244:Generated_Source\PSoC4/FanController.c ****                     /* Set max PWM duty cycle (must be <= PWM period) */
 245:Generated_Source\PSoC4/FanController.c ****                     CY_SET_REG8(FanController_fanDriverRegs[counti].pwmMaxDutyReg, FanController_PW
 246:Generated_Source\PSoC4/FanController.c ****                 /* 10-bit hardware controlled PWM */
 247:Generated_Source\PSoC4/FanController.c ****                 #else
 248:Generated_Source\PSoC4/FanController.c ****                     /* Set max PWM period */
 249:Generated_Source\PSoC4/FanController.c ****                     CY_SET_REG16(FanController_fanDriverRegs[counti].pwmPeriodReg, FanController_PW
 250:Generated_Source\PSoC4/FanController.c ****                     /* Set max PWM duty cycle (must be <= PWM period) */
 251:Generated_Source\PSoC4/FanController.c ****                     CY_SET_REG16(FanController_fanDriverRegs[counti].pwmMaxDutyReg, FanController_P
 252:Generated_Source\PSoC4/FanController.c ****                 #endif /* FanController_PWMRES == FanController_PWMRES_EIGHTBIT */
 253:Generated_Source\PSoC4/FanController.c **** 
 254:Generated_Source\PSoC4/FanController.c ****                 /* Set initial duty cycle */
 255:Generated_Source\PSoC4/FanController.c ****                 FanController_SetDutyCycle((counti + 1u), FanController_fanProperties[counti].initD
 256:Generated_Source\PSoC4/FanController.c ****                 /* Set initial speed */
 257:Generated_Source\PSoC4/FanController.c ****                 FanController_SetDesiredSpeed((counti + 1u), FanController_fanProperties[counti].in
 258:Generated_Source\PSoC4/FanController.c **** 
ARM GAS  C:\Users\Ade0n\AppData\Local\Temp\ccn6i87z.s 			page 6


 259:Generated_Source\PSoC4/FanController.c ****                 /* Enable cnt7 to track speed regulation errors */
 260:Generated_Source\PSoC4/FanController.c ****                 CY_SET_REG8(FanController_fanDriverRegs[counti].errorCountReg,
 261:Generated_Source\PSoC4/FanController.c ****                     CY_GET_REG8(FanController_fanDriverRegs[counti].errorCountReg) | FanController_
 262:Generated_Source\PSoC4/FanController.c ****             }
 263:Generated_Source\PSoC4/FanController.c **** 
 264:Generated_Source\PSoC4/FanController.c ****         #else
 265:Generated_Source\PSoC4/FanController.c **** 
 266:Generated_Source\PSoC4/FanController.c ****             /* Configure firmware controlled PWMs */
 267:Generated_Source\PSoC4/FanController.c ****             for (counti = 0u; counti < FanController_FANPWM_COUNT; counti++)
 268:Generated_Source\PSoC4/FanController.c ****             {
 269:Generated_Source\PSoC4/FanController.c ****                 /* 8-bit firmware controlled PWM */
 270:Generated_Source\PSoC4/FanController.c ****                 #if (FanController_PWMRES == FanController_PWMRES_EIGHTBIT)
 271:Generated_Source\PSoC4/FanController.c ****                     CY_SET_REG8(FanController_fanPwmInitRegs[counti].pwmPeriodReg, FanController_PW
 272:Generated_Source\PSoC4/FanController.c **** 
 273:Generated_Source\PSoC4/FanController.c ****                     interruptState = CyEnterCriticalSection();
 274:Generated_Source\PSoC4/FanController.c **** 
 275:Generated_Source\PSoC4/FanController.c ****                     CY_SET_REG8(FanController_fanPwmInitRegs[counti].pwmAuxControlReg,
 276:Generated_Source\PSoC4/FanController.c ****                         CY_GET_REG8(FanController_fanPwmInitRegs[counti].pwmAuxControlReg) |
 277:Generated_Source\PSoC4/FanController.c ****                             FanController_FANPWM_AUX_CTRL_FIFO0_CLR_8);
 278:Generated_Source\PSoC4/FanController.c **** 
 279:Generated_Source\PSoC4/FanController.c ****                     CyExitCriticalSection(interruptState);
 280:Generated_Source\PSoC4/FanController.c **** 
 281:Generated_Source\PSoC4/FanController.c ****                 /* 10-bit firmware controlled PWM */
 282:Generated_Source\PSoC4/FanController.c ****                 #else
 283:Generated_Source\PSoC4/FanController.c ****                     CY_SET_REG16(FanController_fanPwmInitRegs[counti].pwmPeriodReg, FanController_P
 284:Generated_Source\PSoC4/FanController.c **** 
 285:Generated_Source\PSoC4/FanController.c ****                     interruptState = CyEnterCriticalSection();
 286:Generated_Source\PSoC4/FanController.c **** 
 287:Generated_Source\PSoC4/FanController.c ****                     CY_SET_REG16(FanController_fanPwmInitRegs[counti].pwmAuxControlReg,
 288:Generated_Source\PSoC4/FanController.c ****                         CY_GET_REG16(FanController_fanPwmInitRegs[counti].pwmAuxControlReg) |
 289:Generated_Source\PSoC4/FanController.c ****                             FanController_FANPWM_AUX_CTRL_FIFO0_CLR_10);
 290:Generated_Source\PSoC4/FanController.c **** 
 291:Generated_Source\PSoC4/FanController.c ****                     CyExitCriticalSection(interruptState);
 292:Generated_Source\PSoC4/FanController.c **** 
 293:Generated_Source\PSoC4/FanController.c ****                 #endif /* FanController_PWMRES == FanController_PWMRES_EIGHTBIT */
 294:Generated_Source\PSoC4/FanController.c ****             }
 295:Generated_Source\PSoC4/FanController.c **** 
 296:Generated_Source\PSoC4/FanController.c ****             for (counti = 0u; counti < FanController_NUMBER_OF_FAN_OUTPUTS; counti++)
 297:Generated_Source\PSoC4/FanController.c ****             {
 298:Generated_Source\PSoC4/FanController.c ****                 /* Set Desired speed to initial RPM from the customizer */
 299:Generated_Source\PSoC4/FanController.c ****                 FanController_SetDesiredSpeed((counti + 1u), FanController_fanProperties[counti].in
 300:Generated_Source\PSoC4/FanController.c ****             }
 301:Generated_Source\PSoC4/FanController.c **** 
 302:Generated_Source\PSoC4/FanController.c ****         #endif /* ((FanController_IS_AUTO_HARDWARE_MODE) || (FanController_IS_AUTO_FIRMWARE_MODE)) 
 303:Generated_Source\PSoC4/FanController.c **** 
 304:Generated_Source\PSoC4/FanController.c ****     #else
 305:Generated_Source\PSoC4/FanController.c **** 
 306:Generated_Source\PSoC4/FanController.c ****         /***********************************************************************
 307:Generated_Source\PSoC4/FanController.c ****         * Configure the PWMs (TCPWMs)
 308:Generated_Source\PSoC4/FanController.c ****         ***********************************************************************/
 309:Generated_Source\PSoC4/FanController.c **** 
 310:Generated_Source\PSoC4/FanController.c ****         /* Initialize PWMs */
 311:Generated_Source\PSoC4/FanController.c ****         #if(FanController_NUMBER_OF_FAN_OUTPUTS == 1u)
 312:Generated_Source\PSoC4/FanController.c ****             FanController_FW_PWM1_Init();
 313:Generated_Source\PSoC4/FanController.c ****         #elif(FanController_NUMBER_OF_FAN_OUTPUTS == 2u)
 314:Generated_Source\PSoC4/FanController.c ****             FanController_FW_PWM1_Init();
 315:Generated_Source\PSoC4/FanController.c ****             FanController_FW_PWM2_Init();
ARM GAS  C:\Users\Ade0n\AppData\Local\Temp\ccn6i87z.s 			page 7


 316:Generated_Source\PSoC4/FanController.c ****         #elif(FanController_NUMBER_OF_FAN_OUTPUTS == 3u)
 317:Generated_Source\PSoC4/FanController.c ****             FanController_FW_PWM1_Init();
 318:Generated_Source\PSoC4/FanController.c ****             FanController_FW_PWM2_Init();
 319:Generated_Source\PSoC4/FanController.c ****             FanController_FW_PWM3_Init();
 320:Generated_Source\PSoC4/FanController.c ****         #else
 321:Generated_Source\PSoC4/FanController.c ****             FanController_FW_PWM1_Init();
 322:Generated_Source\PSoC4/FanController.c ****             FanController_FW_PWM2_Init();
 323:Generated_Source\PSoC4/FanController.c ****             FanController_FW_PWM3_Init();
 324:Generated_Source\PSoC4/FanController.c ****             FanController_FW_PWM4_Init();
 325:Generated_Source\PSoC4/FanController.c ****         #endif /* (FanController_NUMBER_OF_FAN_OUTPUTS == 1u) */
 326:Generated_Source\PSoC4/FanController.c **** 
 327:Generated_Source\PSoC4/FanController.c ****         for (counti = 0u; counti < FanController_NUMBER_OF_FAN_OUTPUTS; counti++)
 328:Generated_Source\PSoC4/FanController.c ****         {
 329:Generated_Source\PSoC4/FanController.c ****             /* Set the hard-coded PWM period */
 330:Generated_Source\PSoC4/FanController.c ****             CY_SET_REG32(FanController_fanPwmInitRegs[counti].pwmPeriodReg, FanController_PWM_PERIO
 331:Generated_Source\PSoC4/FanController.c **** 
 332:Generated_Source\PSoC4/FanController.c ****             #if(FanController_IS_AUTO_FIRMWARE_MODE)
 333:Generated_Source\PSoC4/FanController.c ****                 /* In Auto Firmware Mode it is required to set duty cycle directly on the
 334:Generated_Source\PSoC4/FanController.c ****                 * start.
 335:Generated_Source\PSoC4/FanController.c ****                 */
 336:Generated_Source\PSoC4/FanController.c ****                 FanController_SetDutyCycle((counti + 1u), FanController_fanProperties[counti].initD
 337:Generated_Source\PSoC4/FanController.c ****             #endif /* (FanController_IS_AUTO_FIRMWARE_MODE) */
 338:Generated_Source\PSoC4/FanController.c **** 
 339:Generated_Source\PSoC4/FanController.c ****             /* Set Desired speed to initial RPM from the customizer */
 340:Generated_Source\PSoC4/FanController.c ****             FanController_SetDesiredSpeed((counti + 1u), FanController_fanProperties[counti].initRp
 341:Generated_Source\PSoC4/FanController.c ****         }
 342:Generated_Source\PSoC4/FanController.c **** 
 343:Generated_Source\PSoC4/FanController.c ****     #endif /* (!CY_PSOC4) */
 344:Generated_Source\PSoC4/FanController.c **** 
 345:Generated_Source\PSoC4/FanController.c ****     /***********************************************************************
 346:Generated_Source\PSoC4/FanController.c ****     * Initialize the Tachometer
 347:Generated_Source\PSoC4/FanController.c ****     ***********************************************************************/
 348:Generated_Source\PSoC4/FanController.c **** 
 349:Generated_Source\PSoC4/FanController.c ****     interruptState = CyEnterCriticalSection();
 350:Generated_Source\PSoC4/FanController.c ****     #if (CY_PSOC4)
 351:Generated_Source\PSoC4/FanController.c ****         /* Clear the tachometer FIFO */
 352:Generated_Source\PSoC4/FanController.c ****         FanController_TACH_CUNTER_AUX_CTL_REG |= FanController_TACH_COUNTER_FIFO_CLR;
 353:Generated_Source\PSoC4/FanController.c ****         FanController_TACH_CUNTER_AUX_CTL_REG &= ((uint8) ~FanController_TACH_COUNTER_FIFO_CLR);
 354:Generated_Source\PSoC4/FanController.c ****     #else
 355:Generated_Source\PSoC4/FanController.c ****         /* Enable count7 hardware block to drive fan address */
 356:Generated_Source\PSoC4/FanController.c ****         FanController_TACH_FAN_COUNTR_AUX_CTL_REG |= FanController_COUNT7_ENABLE;
 357:Generated_Source\PSoC4/FanController.c ****     #endif /* (!CY_PSOC4) */
 358:Generated_Source\PSoC4/FanController.c ****     (void)CyExitCriticalSection(interruptState);
 359:Generated_Source\PSoC4/FanController.c ****     
 360:Generated_Source\PSoC4/FanController.c ****     /* Initialize glitch filter counter */
 361:Generated_Source\PSoC4/FanController.c ****     FanController_TACH_GLITCH_FILTER_PERIOD_REG = FanController_GLITCH_FILTER_VAL;
 362:Generated_Source\PSoC4/FanController.c **** 
 363:Generated_Source\PSoC4/FanController.c ****     #if((!FanController_IS_MANUAL_MODE) && (FanController_DAMPING_FACTOR > 0u))
 364:Generated_Source\PSoC4/FanController.c **** 
 365:Generated_Source\PSoC4/FanController.c ****         /* Set the divider by 10 */
 366:Generated_Source\PSoC4/FanController.c ****         FanController_DAMPING_COUNTER_DIVIDER_REG = FanController_DAMPING_FACTOR_DIVIDER_VAL;
 367:Generated_Source\PSoC4/FanController.c **** 
 368:Generated_Source\PSoC4/FanController.c ****         /* Init lower 8 bits of 16-bit Damping Factor Counter */
 369:Generated_Source\PSoC4/FanController.c ****          FanController_TACH_DAMPING_PERIOD_LOW_LSB_REG = FanController_DAMPING_FACTOR_PERIOD_LOW;
 370:Generated_Source\PSoC4/FanController.c **** 
 371:Generated_Source\PSoC4/FanController.c ****         /* Init high 8 bits of 16-bit Damping Factor Counter */
 372:Generated_Source\PSoC4/FanController.c ****         FanController_TACH_DAMPING_PERIOD_HIGH_LSB_REG = FanController_DAMPING_FACTOR_PERIOD_HIGH;
ARM GAS  C:\Users\Ade0n\AppData\Local\Temp\ccn6i87z.s 			page 8


 373:Generated_Source\PSoC4/FanController.c **** 
 374:Generated_Source\PSoC4/FanController.c ****     #endif /* ((!FanController_IS_MANUAL_MODE) && (FanController_DAMPING_FACTOR > 0u)) */
 375:Generated_Source\PSoC4/FanController.c **** 
 376:Generated_Source\PSoC4/FanController.c ****     /***********************************************************************
 377:Generated_Source\PSoC4/FanController.c ****     * Initialize the Alert Mask Register based on customizer defaults
 378:Generated_Source\PSoC4/FanController.c ****     ***********************************************************************/
 379:Generated_Source\PSoC4/FanController.c ****     FanController_SetAlertMask(FanController_INIT_ALERT_MASK);
 380:Generated_Source\PSoC4/FanController.c **** 
 381:Generated_Source\PSoC4/FanController.c ****     #if(FanController_IS_AUTO_FIRMWARE_MODE)
 382:Generated_Source\PSoC4/FanController.c ****         /***********************************************************************
 383:Generated_Source\PSoC4/FanController.c ****         * Set PID coefficients for fans
 384:Generated_Source\PSoC4/FanController.c ****         ***********************************************************************/
 385:Generated_Source\PSoC4/FanController.c ****         for(counti = 0u; counti < FanController_NUMBER_OF_FANS; counti++)
 386:Generated_Source\PSoC4/FanController.c ****         {
 387:Generated_Source\PSoC4/FanController.c ****             /* Disable interrupts while updating PID constants */
 388:Generated_Source\PSoC4/FanController.c ****             interruptState = CyEnterCriticalSection();
 389:Generated_Source\PSoC4/FanController.c **** 
 390:Generated_Source\PSoC4/FanController.c ****             /* Initialize both PID parameters and output saturation with
 391:Generated_Source\PSoC4/FanController.c ****             * default values from the customizer.
 392:Generated_Source\PSoC4/FanController.c ****             */
 393:Generated_Source\PSoC4/FanController.c ****             FanController_pidA1[counti] = FanController_PID_A1;
 394:Generated_Source\PSoC4/FanController.c ****             FanController_pidA2[counti] = FanController_PID_A2;
 395:Generated_Source\PSoC4/FanController.c ****             FanController_pidA3[counti] = FanController_PID_A3;
 396:Generated_Source\PSoC4/FanController.c **** 
 397:Generated_Source\PSoC4/FanController.c ****             FanController_outputSatL[counti] = FanController_PID_OUTPUT_SAT_L;
 398:Generated_Source\PSoC4/FanController.c ****             FanController_outputSatH[counti] = FanController_PID_OUTPUT_SAT_H;
 399:Generated_Source\PSoC4/FanController.c ****             CyExitCriticalSection(interruptState);
 400:Generated_Source\PSoC4/FanController.c ****         }
 401:Generated_Source\PSoC4/FanController.c ****     #endif /* (FanController_IS_AUTO_FIRMWARE_MODE) */
 402:Generated_Source\PSoC4/FanController.c **** 
 403:Generated_Source\PSoC4/FanController.c ****     /***********************************************************************
 404:Generated_Source\PSoC4/FanController.c ****     * Set up required interrupts
 405:Generated_Source\PSoC4/FanController.c ****     ***********************************************************************/
 406:Generated_Source\PSoC4/FanController.c ****     #if(CY_PSOC4)
 407:Generated_Source\PSoC4/FanController.c ****         FanController_DataSend_StartEx(&FanController_DATA_SEND_ISR);
 408:Generated_Source\PSoC4/FanController.c ****     #endif /* (CY_PSOC4) */
 409:Generated_Source\PSoC4/FanController.c **** 
 410:Generated_Source\PSoC4/FanController.c ****     #if(FanController_IS_AUTO_FIRMWARE_MODE)
 411:Generated_Source\PSoC4/FanController.c ****         FanController_PID_ISR_StartEx(&FanController_PID_CONTROL_ISR);
 412:Generated_Source\PSoC4/FanController.c ****     #endif /* (FanController_IS_AUTO_FIRMWARE_MODE) */
 413:Generated_Source\PSoC4/FanController.c **** }
 414:Generated_Source\PSoC4/FanController.c **** 
 415:Generated_Source\PSoC4/FanController.c **** 
 416:Generated_Source\PSoC4/FanController.c **** /******************************************************************************
 417:Generated_Source\PSoC4/FanController.c **** * Function Name: FanController_Enable
 418:Generated_Source\PSoC4/FanController.c **** *******************************************************************************
 419:Generated_Source\PSoC4/FanController.c **** *
 420:Generated_Source\PSoC4/FanController.c **** * Summary:
 421:Generated_Source\PSoC4/FanController.c **** *  Enables hardware blocks in the component.
 422:Generated_Source\PSoC4/FanController.c **** *
 423:Generated_Source\PSoC4/FanController.c **** * Parameters:
 424:Generated_Source\PSoC4/FanController.c **** *  None
 425:Generated_Source\PSoC4/FanController.c **** *
 426:Generated_Source\PSoC4/FanController.c **** * Return:
 427:Generated_Source\PSoC4/FanController.c **** *  None
 428:Generated_Source\PSoC4/FanController.c **** *
 429:Generated_Source\PSoC4/FanController.c **** * Side Effects:
ARM GAS  C:\Users\Ade0n\AppData\Local\Temp\ccn6i87z.s 			page 9


 430:Generated_Source\PSoC4/FanController.c **** *  None
 431:Generated_Source\PSoC4/FanController.c **** *
 432:Generated_Source\PSoC4/FanController.c **** ****************************************************************************/
 433:Generated_Source\PSoC4/FanController.c **** void FanController_Enable(void) 
 434:Generated_Source\PSoC4/FanController.c **** {
  28              		.loc 1 434 0
  29              		.cfi_startproc
  30              		@ args = 0, pretend = 0, frame = 0
  31              		@ frame_needed = 0, uses_anonymous_args = 0
  32 0000 10B5     		push	{r4, lr}
  33              		.cfi_def_cfa_offset 8
  34              		.cfi_offset 4, -8
  35              		.cfi_offset 14, -4
 435:Generated_Source\PSoC4/FanController.c ****     uint8 interruptState;
 436:Generated_Source\PSoC4/FanController.c **** 
 437:Generated_Source\PSoC4/FanController.c ****     #if(CY_PSOC4)
 438:Generated_Source\PSoC4/FanController.c ****         /* Ehable PWMs */
 439:Generated_Source\PSoC4/FanController.c ****         #if(FanController_NUMBER_OF_FAN_OUTPUTS == 1u)
 440:Generated_Source\PSoC4/FanController.c ****             FanController_FW_PWM1_Enable();
  36              		.loc 1 440 0
  37 0002 FFF7FEFF 		bl	FanController_FW_PWM1_Enable
  38              	.LVL0:
 441:Generated_Source\PSoC4/FanController.c ****         #elif(FanController_NUMBER_OF_FAN_OUTPUTS == 2u)
 442:Generated_Source\PSoC4/FanController.c ****             FanController_FW_PWM1_Enable();
 443:Generated_Source\PSoC4/FanController.c ****             FanController_FW_PWM2_Enable();
 444:Generated_Source\PSoC4/FanController.c ****         #elif(FanController_NUMBER_OF_FAN_OUTPUTS == 3u)
 445:Generated_Source\PSoC4/FanController.c ****             FanController_FW_PWM1_Enable();
 446:Generated_Source\PSoC4/FanController.c ****             FanController_FW_PWM2_Enable();
 447:Generated_Source\PSoC4/FanController.c ****             FanController_FW_PWM3_Enable();
 448:Generated_Source\PSoC4/FanController.c ****         #else
 449:Generated_Source\PSoC4/FanController.c ****             FanController_FW_PWM1_Enable();
 450:Generated_Source\PSoC4/FanController.c ****             FanController_FW_PWM2_Enable();
 451:Generated_Source\PSoC4/FanController.c ****             FanController_FW_PWM3_Enable();
 452:Generated_Source\PSoC4/FanController.c ****             FanController_FW_PWM4_Enable();
 453:Generated_Source\PSoC4/FanController.c ****         #endif /*(FanController_NUMBER_OF_FAN_OUTPUTS == 1u) */
 454:Generated_Source\PSoC4/FanController.c **** 
 455:Generated_Source\PSoC4/FanController.c ****     #endif /* (CY_PSOC4) */
 456:Generated_Source\PSoC4/FanController.c **** 
 457:Generated_Source\PSoC4/FanController.c ****     /* Write to control register based on customizer defaults */
 458:Generated_Source\PSoC4/FanController.c ****     FanController_GLOBAL_CONTROL_REG = FanController_ENABLE | FanController_ALERT_PIN_ENABLE |
  39              		.loc 1 458 0
  40 0006 2122     		movs	r2, #33
  41 0008 064B     		ldr	r3, .L2
  42 000a 1A70     		strb	r2, [r3]
 459:Generated_Source\PSoC4/FanController.c ****         ((uint8) (FanController_INIT_ALERT_ENABLE << FanController_ALERT_ENABLE_SHIFT));
 460:Generated_Source\PSoC4/FanController.c **** 
 461:Generated_Source\PSoC4/FanController.c ****     interruptState = CyEnterCriticalSection();
  43              		.loc 1 461 0
  44 000c FFF7FEFF 		bl	CyEnterCriticalSection
  45              	.LVL1:
 462:Generated_Source\PSoC4/FanController.c **** 
 463:Generated_Source\PSoC4/FanController.c ****     /* Enable alerts from the Alert Status register */
 464:Generated_Source\PSoC4/FanController.c ****     FanController_STATUS_ALERT_AUX_CTL_REG |= FanController_STATUS_ALERT_ENABLE;
  46              		.loc 1 464 0
  47 0010 054A     		ldr	r2, .L2+4
  48 0012 1178     		ldrb	r1, [r2]
  49 0014 1023     		movs	r3, #16
ARM GAS  C:\Users\Ade0n\AppData\Local\Temp\ccn6i87z.s 			page 10


  50 0016 0B43     		orrs	r3, r1
  51 0018 DBB2     		uxtb	r3, r3
  52 001a 1370     		strb	r3, [r2]
 465:Generated_Source\PSoC4/FanController.c ****     
 466:Generated_Source\PSoC4/FanController.c ****     #if(!CY_PSOC4)
 467:Generated_Source\PSoC4/FanController.c ****         
 468:Generated_Source\PSoC4/FanController.c ****         /* Enable DMA channels for operation */
 469:Generated_Source\PSoC4/FanController.c ****         (void) CyDmaChEnable(FanController_TachOutDMA_channel, 1u);
 470:Generated_Source\PSoC4/FanController.c ****         
 471:Generated_Source\PSoC4/FanController.c ****         #if(FanController_IS_AUTO_HARDWARE_MODE)
 472:Generated_Source\PSoC4/FanController.c ****             (void) CyDmaChEnable(FanController_TachInDMA_channel, 1u);
 473:Generated_Source\PSoC4/FanController.c **** 
 474:Generated_Source\PSoC4/FanController.c ****         #endif /* FanController_IS_AUTO_HARDWARE_MODE */
 475:Generated_Source\PSoC4/FanController.c ****     #endif /* !CY_PSOC4 */
 476:Generated_Source\PSoC4/FanController.c ****         
 477:Generated_Source\PSoC4/FanController.c ****     (void) CyExitCriticalSection(interruptState);
  53              		.loc 1 477 0
  54 001c FFF7FEFF 		bl	CyExitCriticalSection
  55              	.LVL2:
 478:Generated_Source\PSoC4/FanController.c **** }
  56              		.loc 1 478 0
  57              		@ sp needed
  58 0020 10BD     		pop	{r4, pc}
  59              	.L3:
  60 0022 C046     		.align	2
  61              	.L2:
  62 0024 71000F40 		.word	1074724977
  63 0028 91000F40 		.word	1074725009
  64              		.cfi_endproc
  65              	.LFE5:
  66              		.size	FanController_Enable, .-FanController_Enable
  67              		.section	.text.FanController_EnableAlert,"ax",%progbits
  68              		.align	2
  69              		.global	FanController_EnableAlert
  70              		.code	16
  71              		.thumb_func
  72              		.type	FanController_EnableAlert, %function
  73              	FanController_EnableAlert:
  74              	.LFB6:
 479:Generated_Source\PSoC4/FanController.c **** 
 480:Generated_Source\PSoC4/FanController.c **** 
 481:Generated_Source\PSoC4/FanController.c **** /******************************************************************************
 482:Generated_Source\PSoC4/FanController.c **** * Function Name: FanController_EnableAlert
 483:Generated_Source\PSoC4/FanController.c **** *******************************************************************************
 484:Generated_Source\PSoC4/FanController.c **** *
 485:Generated_Source\PSoC4/FanController.c **** * Summary:
 486:Generated_Source\PSoC4/FanController.c **** *  Enables alerts from this component. Specifically which alert sources are
 487:Generated_Source\PSoC4/FanController.c **** *  enabled is configured using SetAlertMode() API.  This API only
 488:Generated_Source\PSoC4/FanController.c **** *  enables alert conditions to propagate to the Fan Controller component
 489:Generated_Source\PSoC4/FanController.c **** *  Alert output pin.
 490:Generated_Source\PSoC4/FanController.c **** *
 491:Generated_Source\PSoC4/FanController.c **** * Parameters:
 492:Generated_Source\PSoC4/FanController.c **** *  None
 493:Generated_Source\PSoC4/FanController.c **** *
 494:Generated_Source\PSoC4/FanController.c **** * Return:
 495:Generated_Source\PSoC4/FanController.c **** *  None
 496:Generated_Source\PSoC4/FanController.c **** *
ARM GAS  C:\Users\Ade0n\AppData\Local\Temp\ccn6i87z.s 			page 11


 497:Generated_Source\PSoC4/FanController.c **** * Side Effects:
 498:Generated_Source\PSoC4/FanController.c **** *  None
 499:Generated_Source\PSoC4/FanController.c **** *
 500:Generated_Source\PSoC4/FanController.c **** ****************************************************************************/
 501:Generated_Source\PSoC4/FanController.c **** void FanController_EnableAlert(void) 
 502:Generated_Source\PSoC4/FanController.c **** {
  75              		.loc 1 502 0
  76              		.cfi_startproc
  77              		@ args = 0, pretend = 0, frame = 0
  78              		@ frame_needed = 0, uses_anonymous_args = 0
  79 0000 10B5     		push	{r4, lr}
  80              		.cfi_def_cfa_offset 8
  81              		.cfi_offset 4, -8
  82              		.cfi_offset 14, -4
 503:Generated_Source\PSoC4/FanController.c ****     uint8 interruptState = CyEnterCriticalSection();
  83              		.loc 1 503 0
  84 0002 FFF7FEFF 		bl	CyEnterCriticalSection
  85              	.LVL3:
 504:Generated_Source\PSoC4/FanController.c **** 
 505:Generated_Source\PSoC4/FanController.c ****     FanController_GLOBAL_CONTROL_REG |= FanController_ALERT_PIN_ENABLE;
  86              		.loc 1 505 0
  87 0006 044A     		ldr	r2, .L5
  88 0008 1178     		ldrb	r1, [r2]
  89 000a 0123     		movs	r3, #1
  90 000c 0B43     		orrs	r3, r1
  91 000e DBB2     		uxtb	r3, r3
  92 0010 1370     		strb	r3, [r2]
 506:Generated_Source\PSoC4/FanController.c **** 
 507:Generated_Source\PSoC4/FanController.c ****     (void) CyExitCriticalSection(interruptState);
  93              		.loc 1 507 0
  94 0012 FFF7FEFF 		bl	CyExitCriticalSection
  95              	.LVL4:
 508:Generated_Source\PSoC4/FanController.c **** }
  96              		.loc 1 508 0
  97              		@ sp needed
  98 0016 10BD     		pop	{r4, pc}
  99              	.L6:
 100              		.align	2
 101              	.L5:
 102 0018 71000F40 		.word	1074724977
 103              		.cfi_endproc
 104              	.LFE6:
 105              		.size	FanController_EnableAlert, .-FanController_EnableAlert
 106              		.section	.text.FanController_DisableAlert,"ax",%progbits
 107              		.align	2
 108              		.global	FanController_DisableAlert
 109              		.code	16
 110              		.thumb_func
 111              		.type	FanController_DisableAlert, %function
 112              	FanController_DisableAlert:
 113              	.LFB7:
 509:Generated_Source\PSoC4/FanController.c **** 
 510:Generated_Source\PSoC4/FanController.c **** 
 511:Generated_Source\PSoC4/FanController.c **** /******************************************************************************
 512:Generated_Source\PSoC4/FanController.c **** * Function Name: FanController_DisableAlert
 513:Generated_Source\PSoC4/FanController.c **** *******************************************************************************
 514:Generated_Source\PSoC4/FanController.c **** *
ARM GAS  C:\Users\Ade0n\AppData\Local\Temp\ccn6i87z.s 			page 12


 515:Generated_Source\PSoC4/FanController.c **** * Summary:
 516:Generated_Source\PSoC4/FanController.c **** *  Disables alerts from this component. This API only disables alert
 517:Generated_Source\PSoC4/FanController.c **** *  conditions from propagating to the fan controller component Alert output/pin
 518:Generated_Source\PSoC4/FanController.c **** *
 519:Generated_Source\PSoC4/FanController.c **** * Parameters:
 520:Generated_Source\PSoC4/FanController.c **** *  None
 521:Generated_Source\PSoC4/FanController.c **** *
 522:Generated_Source\PSoC4/FanController.c **** * Return:
 523:Generated_Source\PSoC4/FanController.c **** *  None
 524:Generated_Source\PSoC4/FanController.c **** *
 525:Generated_Source\PSoC4/FanController.c **** * Side Effects:
 526:Generated_Source\PSoC4/FanController.c **** *  None
 527:Generated_Source\PSoC4/FanController.c **** *
 528:Generated_Source\PSoC4/FanController.c **** ****************************************************************************/
 529:Generated_Source\PSoC4/FanController.c **** void FanController_DisableAlert(void) 
 530:Generated_Source\PSoC4/FanController.c **** {
 114              		.loc 1 530 0
 115              		.cfi_startproc
 116              		@ args = 0, pretend = 0, frame = 0
 117              		@ frame_needed = 0, uses_anonymous_args = 0
 118 0000 10B5     		push	{r4, lr}
 119              		.cfi_def_cfa_offset 8
 120              		.cfi_offset 4, -8
 121              		.cfi_offset 14, -4
 531:Generated_Source\PSoC4/FanController.c ****     uint8 interruptState = CyEnterCriticalSection();
 122              		.loc 1 531 0
 123 0002 FFF7FEFF 		bl	CyEnterCriticalSection
 124              	.LVL5:
 532:Generated_Source\PSoC4/FanController.c **** 
 533:Generated_Source\PSoC4/FanController.c ****     FanController_GLOBAL_CONTROL_REG &= (uint8) ~FanController_ALERT_PIN_ENABLE;
 125              		.loc 1 533 0
 126 0006 044A     		ldr	r2, .L8
 127 0008 1378     		ldrb	r3, [r2]
 128 000a 0121     		movs	r1, #1
 129 000c 8B43     		bics	r3, r1
 130 000e 1370     		strb	r3, [r2]
 534:Generated_Source\PSoC4/FanController.c **** 
 535:Generated_Source\PSoC4/FanController.c ****     (void) CyExitCriticalSection(interruptState);
 131              		.loc 1 535 0
 132 0010 FFF7FEFF 		bl	CyExitCriticalSection
 133              	.LVL6:
 536:Generated_Source\PSoC4/FanController.c **** }
 134              		.loc 1 536 0
 135              		@ sp needed
 136 0014 10BD     		pop	{r4, pc}
 137              	.L9:
 138 0016 C046     		.align	2
 139              	.L8:
 140 0018 71000F40 		.word	1074724977
 141              		.cfi_endproc
 142              	.LFE7:
 143              		.size	FanController_DisableAlert, .-FanController_DisableAlert
 144              		.section	.text.FanController_Stop,"ax",%progbits
 145              		.align	2
 146              		.global	FanController_Stop
 147              		.code	16
 148              		.thumb_func
ARM GAS  C:\Users\Ade0n\AppData\Local\Temp\ccn6i87z.s 			page 13


 149              		.type	FanController_Stop, %function
 150              	FanController_Stop:
 151              	.LFB3:
 164:Generated_Source\PSoC4/FanController.c ****     /* Turn off the hardware sub-components */
 152              		.loc 1 164 0
 153              		.cfi_startproc
 154              		@ args = 0, pretend = 0, frame = 0
 155              		@ frame_needed = 0, uses_anonymous_args = 0
 156 0000 10B5     		push	{r4, lr}
 157              		.cfi_def_cfa_offset 8
 158              		.cfi_offset 4, -8
 159              		.cfi_offset 14, -4
 166:Generated_Source\PSoC4/FanController.c **** 
 160              		.loc 1 166 0
 161 0002 0022     		movs	r2, #0
 162 0004 034B     		ldr	r3, .L11
 163 0006 1A70     		strb	r2, [r3]
 169:Generated_Source\PSoC4/FanController.c **** 
 164              		.loc 1 169 0
 165 0008 FFF7FEFF 		bl	FanController_DisableAlert
 166              	.LVL7:
 184:Generated_Source\PSoC4/FanController.c ****         #elif(FanController_NUMBER_OF_FAN_OUTPUTS == 2u)
 167              		.loc 1 184 0
 168 000c FFF7FEFF 		bl	FanController_FW_PWM1_Stop
 169              	.LVL8:
 200:Generated_Source\PSoC4/FanController.c **** 
 170              		.loc 1 200 0
 171              		@ sp needed
 172 0010 10BD     		pop	{r4, pc}
 173              	.L12:
 174 0012 C046     		.align	2
 175              	.L11:
 176 0014 71000F40 		.word	1074724977
 177              		.cfi_endproc
 178              	.LFE3:
 179              		.size	FanController_Stop, .-FanController_Stop
 180              		.section	.text.FanController_SetAlertMode,"ax",%progbits
 181              		.align	2
 182              		.global	FanController_SetAlertMode
 183              		.code	16
 184              		.thumb_func
 185              		.type	FanController_SetAlertMode, %function
 186              	FanController_SetAlertMode:
 187              	.LFB8:
 537:Generated_Source\PSoC4/FanController.c **** 
 538:Generated_Source\PSoC4/FanController.c **** 
 539:Generated_Source\PSoC4/FanController.c **** /******************************************************************************
 540:Generated_Source\PSoC4/FanController.c **** * Function Name: FanController_SetAlertMode
 541:Generated_Source\PSoC4/FanController.c **** *******************************************************************************
 542:Generated_Source\PSoC4/FanController.c **** *
 543:Generated_Source\PSoC4/FanController.c **** * Summary:
 544:Generated_Source\PSoC4/FanController.c **** *  Enables alert sources from the component.
 545:Generated_Source\PSoC4/FanController.c **** *
 546:Generated_Source\PSoC4/FanController.c **** * Parameters:
 547:Generated_Source\PSoC4/FanController.c **** *  alertMode:
 548:Generated_Source\PSoC4/FanController.c **** *   b0:   STALL_ALERT_ENABLE (1==Enable, 0==Disable)
 549:Generated_Source\PSoC4/FanController.c **** *   b1:   SPEED_ALERT_ENABLE (1==Enable, 0==Disable)
ARM GAS  C:\Users\Ade0n\AppData\Local\Temp\ccn6i87z.s 			page 14


 550:Generated_Source\PSoC4/FanController.c **** *   b7-2: RESERVED (write with zeroes)
 551:Generated_Source\PSoC4/FanController.c **** *
 552:Generated_Source\PSoC4/FanController.c **** * Return:
 553:Generated_Source\PSoC4/FanController.c **** *  None
 554:Generated_Source\PSoC4/FanController.c **** *
 555:Generated_Source\PSoC4/FanController.c **** * Side Effects:
 556:Generated_Source\PSoC4/FanController.c **** *  None
 557:Generated_Source\PSoC4/FanController.c **** *
 558:Generated_Source\PSoC4/FanController.c **** ****************************************************************************/
 559:Generated_Source\PSoC4/FanController.c **** void FanController_SetAlertMode(uint8 alertMode) 
 560:Generated_Source\PSoC4/FanController.c **** {
 188              		.loc 1 560 0
 189              		.cfi_startproc
 190              		@ args = 0, pretend = 0, frame = 0
 191              		@ frame_needed = 0, uses_anonymous_args = 0
 192              	.LVL9:
 193 0000 70B5     		push	{r4, r5, r6, lr}
 194              		.cfi_def_cfa_offset 16
 195              		.cfi_offset 4, -16
 196              		.cfi_offset 5, -12
 197              		.cfi_offset 6, -8
 198              		.cfi_offset 14, -4
 199 0002 0400     		movs	r4, r0
 561:Generated_Source\PSoC4/FanController.c ****     uint8 interruptState = CyEnterCriticalSection();
 200              		.loc 1 561 0
 201 0004 FFF7FEFF 		bl	CyEnterCriticalSection
 202              	.LVL10:
 562:Generated_Source\PSoC4/FanController.c **** 
 563:Generated_Source\PSoC4/FanController.c ****     FanController_GLOBAL_CONTROL_REG = (FanController_GLOBAL_CONTROL_REG &
 203              		.loc 1 563 0
 204 0008 054D     		ldr	r5, .L14
 205 000a 2978     		ldrb	r1, [r5]
 564:Generated_Source\PSoC4/FanController.c ****             (uint8) ~FanController_ALERT_ENABLE_MASK) |
 565:Generated_Source\PSoC4/FanController.c ****                ((uint8) (alertMode << FanController_ALERT_ENABLE_SHIFT) & FanController_ALERT_ENABL
 206              		.loc 1 565 0
 207 000c 6300     		lsls	r3, r4, #1
 563:Generated_Source\PSoC4/FanController.c ****             (uint8) ~FanController_ALERT_ENABLE_MASK) |
 208              		.loc 1 563 0
 209 000e 0622     		movs	r2, #6
 210 0010 9143     		bics	r1, r2
 211 0012 1340     		ands	r3, r2
 212 0014 0B43     		orrs	r3, r1
 213 0016 2B70     		strb	r3, [r5]
 566:Generated_Source\PSoC4/FanController.c **** 
 567:Generated_Source\PSoC4/FanController.c ****     (void) CyExitCriticalSection(interruptState);
 214              		.loc 1 567 0
 215 0018 FFF7FEFF 		bl	CyExitCriticalSection
 216              	.LVL11:
 568:Generated_Source\PSoC4/FanController.c **** }
 217              		.loc 1 568 0
 218              		@ sp needed
 219 001c 70BD     		pop	{r4, r5, r6, pc}
 220              	.L15:
 221 001e C046     		.align	2
 222              	.L14:
 223 0020 71000F40 		.word	1074724977
 224              		.cfi_endproc
ARM GAS  C:\Users\Ade0n\AppData\Local\Temp\ccn6i87z.s 			page 15


 225              	.LFE8:
 226              		.size	FanController_SetAlertMode, .-FanController_SetAlertMode
 227              		.section	.text.FanController_GetAlertMode,"ax",%progbits
 228              		.align	2
 229              		.global	FanController_GetAlertMode
 230              		.code	16
 231              		.thumb_func
 232              		.type	FanController_GetAlertMode, %function
 233              	FanController_GetAlertMode:
 234              	.LFB9:
 569:Generated_Source\PSoC4/FanController.c **** 
 570:Generated_Source\PSoC4/FanController.c **** 
 571:Generated_Source\PSoC4/FanController.c **** /******************************************************************************
 572:Generated_Source\PSoC4/FanController.c **** * Function Name: FanController_GetAlertMode
 573:Generated_Source\PSoC4/FanController.c **** *******************************************************************************
 574:Generated_Source\PSoC4/FanController.c **** *
 575:Generated_Source\PSoC4/FanController.c **** * Summary:
 576:Generated_Source\PSoC4/FanController.c **** * Returns enabled alert sources from this component.
 577:Generated_Source\PSoC4/FanController.c **** *
 578:Generated_Source\PSoC4/FanController.c **** * Parameters:
 579:Generated_Source\PSoC4/FanController.c **** *  None
 580:Generated_Source\PSoC4/FanController.c **** *
 581:Generated_Source\PSoC4/FanController.c **** * Return:
 582:Generated_Source\PSoC4/FanController.c **** *  alertMode:
 583:Generated_Source\PSoC4/FanController.c **** *   b0:   STALL_ALERT_ENABLE (1==Enable, 0==Disable)
 584:Generated_Source\PSoC4/FanController.c **** *   b1:   SPEED_ALERT_ENABLE (1==Enable, 0==Disable)
 585:Generated_Source\PSoC4/FanController.c **** *   b7-2: RESERVED (write with zeroes)
 586:Generated_Source\PSoC4/FanController.c **** *
 587:Generated_Source\PSoC4/FanController.c **** * Side Effects:
 588:Generated_Source\PSoC4/FanController.c **** *  None
 589:Generated_Source\PSoC4/FanController.c **** *
 590:Generated_Source\PSoC4/FanController.c **** ****************************************************************************/
 591:Generated_Source\PSoC4/FanController.c **** uint8 FanController_GetAlertMode(void) 
 592:Generated_Source\PSoC4/FanController.c **** {
 235              		.loc 1 592 0
 236              		.cfi_startproc
 237              		@ args = 0, pretend = 0, frame = 0
 238              		@ frame_needed = 0, uses_anonymous_args = 0
 239              		@ link register save eliminated.
 593:Generated_Source\PSoC4/FanController.c ****     return((FanController_GLOBAL_CONTROL_REG & FanController_ALERT_ENABLE_MASK) >>
 240              		.loc 1 593 0
 241 0000 024B     		ldr	r3, .L17
 242 0002 1878     		ldrb	r0, [r3]
 243 0004 0623     		movs	r3, #6
 244 0006 1840     		ands	r0, r3
 245 0008 4008     		lsrs	r0, r0, #1
 594:Generated_Source\PSoC4/FanController.c ****                 FanController_ALERT_ENABLE_SHIFT);
 595:Generated_Source\PSoC4/FanController.c **** }
 246              		.loc 1 595 0
 247              		@ sp needed
 248 000a 7047     		bx	lr
 249              	.L18:
 250              		.align	2
 251              	.L17:
 252 000c 71000F40 		.word	1074724977
 253              		.cfi_endproc
 254              	.LFE9:
ARM GAS  C:\Users\Ade0n\AppData\Local\Temp\ccn6i87z.s 			page 16


 255              		.size	FanController_GetAlertMode, .-FanController_GetAlertMode
 256              		.section	.text.FanController_SetAlertMask,"ax",%progbits
 257              		.align	2
 258              		.global	FanController_SetAlertMask
 259              		.code	16
 260              		.thumb_func
 261              		.type	FanController_SetAlertMask, %function
 262              	FanController_SetAlertMask:
 263              	.LFB10:
 596:Generated_Source\PSoC4/FanController.c **** 
 597:Generated_Source\PSoC4/FanController.c **** 
 598:Generated_Source\PSoC4/FanController.c **** /******************************************************************************
 599:Generated_Source\PSoC4/FanController.c **** * Function Name: FanController_SetAlertMask
 600:Generated_Source\PSoC4/FanController.c **** *******************************************************************************
 601:Generated_Source\PSoC4/FanController.c **** *
 602:Generated_Source\PSoC4/FanController.c **** * Summary:
 603:Generated_Source\PSoC4/FanController.c **** *  Sets the per fan Alert Mask for both Stall and Speed errors.
 604:Generated_Source\PSoC4/FanController.c **** *
 605:Generated_Source\PSoC4/FanController.c **** * Parameters:
 606:Generated_Source\PSoC4/FanController.c **** *  alertMask (1==Enable Alert, 0==Disable Alert)
 607:Generated_Source\PSoC4/FanController.c **** *   b0:   FAN1 ALERT ENABLE/DISABLE
 608:Generated_Source\PSoC4/FanController.c **** *   b1:   FAN2 ALERT ENABLE/DISABLE
 609:Generated_Source\PSoC4/FanController.c **** *   ...
 610:Generated_Source\PSoC4/FanController.c **** *   b15:  FAN16 ALERT ENABLE/DISABLE
 611:Generated_Source\PSoC4/FanController.c **** *
 612:Generated_Source\PSoC4/FanController.c **** * Return:
 613:Generated_Source\PSoC4/FanController.c **** *  None
 614:Generated_Source\PSoC4/FanController.c **** *
 615:Generated_Source\PSoC4/FanController.c **** * Side Effects:
 616:Generated_Source\PSoC4/FanController.c **** *  None
 617:Generated_Source\PSoC4/FanController.c **** *
 618:Generated_Source\PSoC4/FanController.c **** ****************************************************************************/
 619:Generated_Source\PSoC4/FanController.c **** void FanController_SetAlertMask(uint16 alertMask) 
 620:Generated_Source\PSoC4/FanController.c **** {
 264              		.loc 1 620 0
 265              		.cfi_startproc
 266              		@ args = 0, pretend = 0, frame = 0
 267              		@ frame_needed = 0, uses_anonymous_args = 0
 268              		@ link register save eliminated.
 269              	.LVL12:
 621:Generated_Source\PSoC4/FanController.c ****     #if (CY_PSOC4)
 622:Generated_Source\PSoC4/FanController.c ****         FanController_alertMask = alertMask;
 270              		.loc 1 622 0
 271 0000 014B     		ldr	r3, .L20
 272 0002 1880     		strh	r0, [r3]
 623:Generated_Source\PSoC4/FanController.c ****     #else
 624:Generated_Source\PSoC4/FanController.c ****         FanController_ALERT_MASK_LSB_CONTROL_REG = LO8(alertMask);
 625:Generated_Source\PSoC4/FanController.c **** 
 626:Generated_Source\PSoC4/FanController.c ****         #if(FanController_NUMBER_OF_FANS > 8u)
 627:Generated_Source\PSoC4/FanController.c ****             FanController_ALERT_MASK_MSB_CONTROL_REG = HI8(alertMask);
 628:Generated_Source\PSoC4/FanController.c ****         #endif /* FanController_NUMBER_OF_FANS > 8u */
 629:Generated_Source\PSoC4/FanController.c ****     #endif /* (CY_PSOC4) */
 630:Generated_Source\PSoC4/FanController.c **** }
 273              		.loc 1 630 0
 274              		@ sp needed
 275 0004 7047     		bx	lr
 276              	.L21:
ARM GAS  C:\Users\Ade0n\AppData\Local\Temp\ccn6i87z.s 			page 17


 277 0006 C046     		.align	2
 278              	.L20:
 279 0008 00000000 		.word	.LANCHOR0
 280              		.cfi_endproc
 281              	.LFE10:
 282              		.size	FanController_SetAlertMask, .-FanController_SetAlertMask
 283              		.section	.text.FanController_GetAlertMask,"ax",%progbits
 284              		.align	2
 285              		.global	FanController_GetAlertMask
 286              		.code	16
 287              		.thumb_func
 288              		.type	FanController_GetAlertMask, %function
 289              	FanController_GetAlertMask:
 290              	.LFB11:
 631:Generated_Source\PSoC4/FanController.c **** 
 632:Generated_Source\PSoC4/FanController.c **** 
 633:Generated_Source\PSoC4/FanController.c **** /******************************************************************************
 634:Generated_Source\PSoC4/FanController.c **** * Function Name: FanController_GetAlertMask
 635:Generated_Source\PSoC4/FanController.c **** *******************************************************************************
 636:Generated_Source\PSoC4/FanController.c **** *
 637:Generated_Source\PSoC4/FanController.c **** * Summary:
 638:Generated_Source\PSoC4/FanController.c **** *  Gets the current per fan Alert Mask for both Stall and Speed errors.
 639:Generated_Source\PSoC4/FanController.c **** *
 640:Generated_Source\PSoC4/FanController.c **** * Parameters:
 641:Generated_Source\PSoC4/FanController.c **** *  None
 642:Generated_Source\PSoC4/FanController.c **** *
 643:Generated_Source\PSoC4/FanController.c **** * Return:
 644:Generated_Source\PSoC4/FanController.c **** *  alertMask (1==Alert Enabled, 0==Alert Disabled)
 645:Generated_Source\PSoC4/FanController.c **** *   b0:   FAN1 ALERT ENABLE/DISABLE
 646:Generated_Source\PSoC4/FanController.c **** *   b1:   FAN2 ALERT ENABLE/DISABLE
 647:Generated_Source\PSoC4/FanController.c **** *   ...
 648:Generated_Source\PSoC4/FanController.c **** *   b15:  FAN16 ALERT ENABLE/DISABLE
 649:Generated_Source\PSoC4/FanController.c **** *
 650:Generated_Source\PSoC4/FanController.c **** * Side Effects:
 651:Generated_Source\PSoC4/FanController.c **** *  None
 652:Generated_Source\PSoC4/FanController.c **** *
 653:Generated_Source\PSoC4/FanController.c **** ****************************************************************************/
 654:Generated_Source\PSoC4/FanController.c **** uint16 FanController_GetAlertMask(void) 
 655:Generated_Source\PSoC4/FanController.c **** {
 291              		.loc 1 655 0
 292              		.cfi_startproc
 293              		@ args = 0, pretend = 0, frame = 0
 294              		@ frame_needed = 0, uses_anonymous_args = 0
 295              		@ link register save eliminated.
 656:Generated_Source\PSoC4/FanController.c ****     uint16 alertMask;
 657:Generated_Source\PSoC4/FanController.c **** 
 658:Generated_Source\PSoC4/FanController.c ****     #if (CY_PSOC4)
 659:Generated_Source\PSoC4/FanController.c ****         alertMask = FanController_alertMask;
 296              		.loc 1 659 0
 297 0000 014B     		ldr	r3, .L23
 298 0002 1888     		ldrh	r0, [r3]
 299              	.LVL13:
 660:Generated_Source\PSoC4/FanController.c ****     #else
 661:Generated_Source\PSoC4/FanController.c ****         #if(FanController_NUMBER_OF_FANS > 8u)
 662:Generated_Source\PSoC4/FanController.c ****             alertMask = (uint16)FanController_ALERT_MASK_LSB_CONTROL_REG |
 663:Generated_Source\PSoC4/FanController.c ****                 (uint16)((uint16)FanController_ALERT_MASK_MSB_CONTROL_REG << 8u);
 664:Generated_Source\PSoC4/FanController.c ****         #else
ARM GAS  C:\Users\Ade0n\AppData\Local\Temp\ccn6i87z.s 			page 18


 665:Generated_Source\PSoC4/FanController.c ****             alertMask = (uint16)FanController_ALERT_MASK_LSB_CONTROL_REG;
 666:Generated_Source\PSoC4/FanController.c ****         #endif /* FanController_NUMBER_OF_FANS > 8u */
 667:Generated_Source\PSoC4/FanController.c ****     #endif /* (CY_PSOC4) */
 668:Generated_Source\PSoC4/FanController.c **** 
 669:Generated_Source\PSoC4/FanController.c ****     return(alertMask);
 670:Generated_Source\PSoC4/FanController.c **** }
 300              		.loc 1 670 0
 301              		@ sp needed
 302 0004 7047     		bx	lr
 303              	.L24:
 304 0006 C046     		.align	2
 305              	.L23:
 306 0008 00000000 		.word	.LANCHOR0
 307              		.cfi_endproc
 308              	.LFE11:
 309              		.size	FanController_GetAlertMask, .-FanController_GetAlertMask
 310              		.section	.text.FanController_GetAlertSource,"ax",%progbits
 311              		.align	2
 312              		.global	FanController_GetAlertSource
 313              		.code	16
 314              		.thumb_func
 315              		.type	FanController_GetAlertSource, %function
 316              	FanController_GetAlertSource:
 317              	.LFB12:
 671:Generated_Source\PSoC4/FanController.c **** 
 672:Generated_Source\PSoC4/FanController.c **** 
 673:Generated_Source\PSoC4/FanController.c **** /******************************************************************************
 674:Generated_Source\PSoC4/FanController.c **** * Function Name: FanController_GetAlertSource
 675:Generated_Source\PSoC4/FanController.c **** *******************************************************************************
 676:Generated_Source\PSoC4/FanController.c **** *
 677:Generated_Source\PSoC4/FanController.c **** * Summary:
 678:Generated_Source\PSoC4/FanController.c **** *  Returns pending alert sources. The alert pin is not de-asserted through
 679:Generated_Source\PSoC4/FanController.c **** *  this API call. If this API call returns a non-zero value, call the
 680:Generated_Source\PSoC4/FanController.c **** *  GetFanStallStatus() or GetFanSpeedStatus() APIs to determine the exact
 681:Generated_Source\PSoC4/FanController.c **** *  source of the alert and simultaneously de-assert the pending alert and
 682:Generated_Source\PSoC4/FanController.c **** *  alert pin.
 683:Generated_Source\PSoC4/FanController.c **** *
 684:Generated_Source\PSoC4/FanController.c **** * Parameters:
 685:Generated_Source\PSoC4/FanController.c **** *  None
 686:Generated_Source\PSoC4/FanController.c **** *
 687:Generated_Source\PSoC4/FanController.c **** * Return:
 688:Generated_Source\PSoC4/FanController.c **** *  alertSource:
 689:Generated_Source\PSoC4/FanController.c **** *   b0:   STALL_ALERT (1==Present, 0==Not Present)
 690:Generated_Source\PSoC4/FanController.c **** *   b1:   SPEED_ALERT (1==Present, 0==Not Present)
 691:Generated_Source\PSoC4/FanController.c **** *   b7-2: RESERVED (returns all zeroes)
 692:Generated_Source\PSoC4/FanController.c **** *
 693:Generated_Source\PSoC4/FanController.c **** * Side Effects:
 694:Generated_Source\PSoC4/FanController.c **** *  None
 695:Generated_Source\PSoC4/FanController.c **** *
 696:Generated_Source\PSoC4/FanController.c **** ****************************************************************************/
 697:Generated_Source\PSoC4/FanController.c **** uint8 FanController_GetAlertSource(void) 
 698:Generated_Source\PSoC4/FanController.c **** {
 318              		.loc 1 698 0
 319              		.cfi_startproc
 320              		@ args = 0, pretend = 0, frame = 0
 321              		@ frame_needed = 0, uses_anonymous_args = 0
 322              		@ link register save eliminated.
ARM GAS  C:\Users\Ade0n\AppData\Local\Temp\ccn6i87z.s 			page 19


 699:Generated_Source\PSoC4/FanController.c ****     return ((FanController_ALERT_STATUS_REG & FanController_ALERT_STATUS_MASK));
 323              		.loc 1 699 0
 324 0000 024B     		ldr	r3, .L26
 325 0002 1878     		ldrb	r0, [r3]
 326 0004 0323     		movs	r3, #3
 327 0006 1840     		ands	r0, r3
 700:Generated_Source\PSoC4/FanController.c **** }
 328              		.loc 1 700 0
 329              		@ sp needed
 330 0008 7047     		bx	lr
 331              	.L27:
 332 000a C046     		.align	2
 333              	.L26:
 334 000c 61000F40 		.word	1074724961
 335              		.cfi_endproc
 336              	.LFE12:
 337              		.size	FanController_GetAlertSource, .-FanController_GetAlertSource
 338              		.section	.text.FanController_GetFanStallStatus,"ax",%progbits
 339              		.align	2
 340              		.global	FanController_GetFanStallStatus
 341              		.code	16
 342              		.thumb_func
 343              		.type	FanController_GetFanStallStatus, %function
 344              	FanController_GetFanStallStatus:
 345              	.LFB13:
 701:Generated_Source\PSoC4/FanController.c **** 
 702:Generated_Source\PSoC4/FanController.c **** 
 703:Generated_Source\PSoC4/FanController.c **** /******************************************************************************
 704:Generated_Source\PSoC4/FanController.c **** * Function Name: FanController_GetFanStallStatus
 705:Generated_Source\PSoC4/FanController.c **** *******************************************************************************
 706:Generated_Source\PSoC4/FanController.c **** *
 707:Generated_Source\PSoC4/FanController.c **** * Summary:
 708:Generated_Source\PSoC4/FanController.c **** *  Returns the stall status of all fans
 709:Generated_Source\PSoC4/FanController.c **** *
 710:Generated_Source\PSoC4/FanController.c **** * Parameters:
 711:Generated_Source\PSoC4/FanController.c **** *  None
 712:Generated_Source\PSoC4/FanController.c **** *
 713:Generated_Source\PSoC4/FanController.c **** * Return:
 714:Generated_Source\PSoC4/FanController.c **** *  stallStatus (1==Fan Stalled, 0=Fan OK)
 715:Generated_Source\PSoC4/FanController.c **** *   b0:   FAN1 STALL
 716:Generated_Source\PSoC4/FanController.c **** *   b1:   FAN2 STALL
 717:Generated_Source\PSoC4/FanController.c **** *   ...
 718:Generated_Source\PSoC4/FanController.c **** *   b15:  FAN16 STALL
 719:Generated_Source\PSoC4/FanController.c **** *
 720:Generated_Source\PSoC4/FanController.c **** * Side Effects:
 721:Generated_Source\PSoC4/FanController.c **** *  Calling this API de-asserts the alert pin and clears all pending stall
 722:Generated_Source\PSoC4/FanController.c **** *  status alerts.
 723:Generated_Source\PSoC4/FanController.c **** *
 724:Generated_Source\PSoC4/FanController.c **** ******************************************************************************/
 725:Generated_Source\PSoC4/FanController.c **** uint16 FanController_GetFanStallStatus(void) 
 726:Generated_Source\PSoC4/FanController.c **** {
 346              		.loc 1 726 0
 347              		.cfi_startproc
 348              		@ args = 0, pretend = 0, frame = 0
 349              		@ frame_needed = 0, uses_anonymous_args = 0
 350              		@ link register save eliminated.
 727:Generated_Source\PSoC4/FanController.c ****     uint16 stallStatus;
ARM GAS  C:\Users\Ade0n\AppData\Local\Temp\ccn6i87z.s 			page 20


 728:Generated_Source\PSoC4/FanController.c **** 
 729:Generated_Source\PSoC4/FanController.c ****     #if (CY_PSOC4)
 730:Generated_Source\PSoC4/FanController.c ****         stallStatus = FanController_stallStatus;
 351              		.loc 1 730 0
 352 0000 044B     		ldr	r3, .L29
 353 0002 5888     		ldrh	r0, [r3, #2]
 354              	.LVL14:
 731:Generated_Source\PSoC4/FanController.c **** 
 732:Generated_Source\PSoC4/FanController.c ****         /* Clear stall status for individual fans */
 733:Generated_Source\PSoC4/FanController.c ****         FanController_stallStatus = 0u;
 355              		.loc 1 733 0
 356 0004 0022     		movs	r2, #0
 357 0006 5A80     		strh	r2, [r3, #2]
 734:Generated_Source\PSoC4/FanController.c **** 
 735:Generated_Source\PSoC4/FanController.c ****         /* Clear the common SW stall signal on the control register */
 736:Generated_Source\PSoC4/FanController.c ****         FanController_GLOBAL_CONTROL_REG &= ((uint8) ~FanController_SW_STALL);
 358              		.loc 1 736 0
 359 0008 034A     		ldr	r2, .L29+4
 360 000a 1178     		ldrb	r1, [r2]
 361 000c 7F23     		movs	r3, #127
 362 000e 0B40     		ands	r3, r1
 363 0010 1370     		strb	r3, [r2]
 737:Generated_Source\PSoC4/FanController.c ****     #else
 738:Generated_Source\PSoC4/FanController.c ****         
 739:Generated_Source\PSoC4/FanController.c ****         #if(FanController_NUMBER_OF_FANS > 8u)
 740:Generated_Source\PSoC4/FanController.c ****             stallStatus = (uint16)FanController_STALL_ERROR_LSB_STATUS_REG |
 741:Generated_Source\PSoC4/FanController.c ****                 (uint16)((uint16)FanController_STALL_ERROR_MSB_STATUS_REG << 8u);
 742:Generated_Source\PSoC4/FanController.c ****         #else
 743:Generated_Source\PSoC4/FanController.c ****             stallStatus = (uint16)FanController_STALL_ERROR_LSB_STATUS_REG;
 744:Generated_Source\PSoC4/FanController.c ****         #endif /* FanController_NUMBER_OF_FANS > 8u */
 745:Generated_Source\PSoC4/FanController.c ****     #endif /* (CY_PSOC4) */
 746:Generated_Source\PSoC4/FanController.c ****         
 747:Generated_Source\PSoC4/FanController.c ****     return(stallStatus);
 748:Generated_Source\PSoC4/FanController.c **** }
 364              		.loc 1 748 0
 365              		@ sp needed
 366 0012 7047     		bx	lr
 367              	.L30:
 368              		.align	2
 369              	.L29:
 370 0014 00000000 		.word	.LANCHOR0
 371 0018 71000F40 		.word	1074724977
 372              		.cfi_endproc
 373              	.LFE13:
 374              		.size	FanController_GetFanStallStatus, .-FanController_GetFanStallStatus
 375              		.section	.text.FanController_GetFanSpeedStatus,"ax",%progbits
 376              		.align	2
 377              		.global	FanController_GetFanSpeedStatus
 378              		.code	16
 379              		.thumb_func
 380              		.type	FanController_GetFanSpeedStatus, %function
 381              	FanController_GetFanSpeedStatus:
 382              	.LFB14:
 749:Generated_Source\PSoC4/FanController.c **** 
 750:Generated_Source\PSoC4/FanController.c **** 
 751:Generated_Source\PSoC4/FanController.c **** #if (!FanController_IS_MANUAL_MODE)
 752:Generated_Source\PSoC4/FanController.c ****     /******************************************************************************
ARM GAS  C:\Users\Ade0n\AppData\Local\Temp\ccn6i87z.s 			page 21


 753:Generated_Source\PSoC4/FanController.c ****     * Function Name: FanController_GetFanSpeedStatus
 754:Generated_Source\PSoC4/FanController.c ****     *******************************************************************************
 755:Generated_Source\PSoC4/FanController.c ****     *
 756:Generated_Source\PSoC4/FanController.c ****     * Summary:
 757:Generated_Source\PSoC4/FanController.c ****     *  Returns the speed regulation status of all fans.
 758:Generated_Source\PSoC4/FanController.c ****     *  This API is not available if Firmware Controller fan control method is
 759:Generated_Source\PSoC4/FanController.c ****     *  selected.
 760:Generated_Source\PSoC4/FanController.c ****     *
 761:Generated_Source\PSoC4/FanController.c ****     * Parameters:
 762:Generated_Source\PSoC4/FanController.c ****     *  None
 763:Generated_Source\PSoC4/FanController.c ****     *
 764:Generated_Source\PSoC4/FanController.c ****     * Return:
 765:Generated_Source\PSoC4/FanController.c ****     *  speedStatus (1==Fan Speed Failure, 0=Fan OK)
 766:Generated_Source\PSoC4/FanController.c ****     *   b0:   FAN1 SPEED REGULATION FAIL
 767:Generated_Source\PSoC4/FanController.c ****     *   b1:   FAN2 SPEED REGULATION FAIL
 768:Generated_Source\PSoC4/FanController.c ****     *   ...
 769:Generated_Source\PSoC4/FanController.c ****     *   b15:  FAN16 SPEED REGULATION FAIL
 770:Generated_Source\PSoC4/FanController.c ****     *
 771:Generated_Source\PSoC4/FanController.c ****     * Side Effects:
 772:Generated_Source\PSoC4/FanController.c ****     *  Calling this API de-asserts the alert pin and clears all pending speed
 773:Generated_Source\PSoC4/FanController.c ****     *  regulation failure status alerts.
 774:Generated_Source\PSoC4/FanController.c ****     *
 775:Generated_Source\PSoC4/FanController.c ****     ******************************************************************************/
 776:Generated_Source\PSoC4/FanController.c ****     uint16 FanController_GetFanSpeedStatus(void) 
 777:Generated_Source\PSoC4/FanController.c ****     {
 383              		.loc 1 777 0
 384              		.cfi_startproc
 385              		@ args = 0, pretend = 0, frame = 0
 386              		@ frame_needed = 0, uses_anonymous_args = 0
 387              		@ link register save eliminated.
 778:Generated_Source\PSoC4/FanController.c ****         uint16 speedStatus;
 779:Generated_Source\PSoC4/FanController.c **** 
 780:Generated_Source\PSoC4/FanController.c ****         /* In case of Auto Hardware mode speed status is received from hardware
 781:Generated_Source\PSoC4/FanController.c ****         * status register...
 782:Generated_Source\PSoC4/FanController.c ****         */
 783:Generated_Source\PSoC4/FanController.c ****         #if (FanController_IS_AUTO_HARDWARE_MODE)
 784:Generated_Source\PSoC4/FanController.c ****             #if (FanController_NUMBER_OF_FANS > 8u)
 785:Generated_Source\PSoC4/FanController.c ****                 speedStatus = (uint16)FanController_SPEED_ERROR_LSB_STATUS_REG |
 786:Generated_Source\PSoC4/FanController.c ****                     (uint16)((uint16)FanController_SPEED_ERROR_MSB_STATUS_REG << 8u);
 787:Generated_Source\PSoC4/FanController.c ****             #else
 788:Generated_Source\PSoC4/FanController.c ****                 speedStatus = (uint16)FanController_SPEED_ERROR_LSB_STATUS_REG;
 789:Generated_Source\PSoC4/FanController.c ****             #endif /* FanController_NUMBER_OF_FANS > 8u */
 790:Generated_Source\PSoC4/FanController.c ****         #endif /* FanController_IS_AUTO_HARDWARE_MODE */
 791:Generated_Source\PSoC4/FanController.c **** 
 792:Generated_Source\PSoC4/FanController.c ****         /* ... in case of Auto Firmware mode the software status is used. */
 793:Generated_Source\PSoC4/FanController.c ****         #if (FanController_IS_AUTO_FIRMWARE_MODE)
 794:Generated_Source\PSoC4/FanController.c **** 
 795:Generated_Source\PSoC4/FanController.c ****             speedStatus = FanController_speedStatus;
 388              		.loc 1 795 0
 389 0000 024B     		ldr	r3, .L32
 390 0002 1888     		ldrh	r0, [r3]
 391 0004 80B2     		uxth	r0, r0
 392              	.LVL15:
 796:Generated_Source\PSoC4/FanController.c **** 
 797:Generated_Source\PSoC4/FanController.c ****             /* Simulate clear-on-read status */
 798:Generated_Source\PSoC4/FanController.c ****             FanController_speedStatus = 0u;
 393              		.loc 1 798 0
ARM GAS  C:\Users\Ade0n\AppData\Local\Temp\ccn6i87z.s 			page 22


 394 0006 0022     		movs	r2, #0
 395 0008 1A80     		strh	r2, [r3]
 799:Generated_Source\PSoC4/FanController.c ****         #endif /* (FanController_IS_AUTO_FIRMWARE_MODE) */
 800:Generated_Source\PSoC4/FanController.c **** 
 801:Generated_Source\PSoC4/FanController.c ****         return(speedStatus);
 802:Generated_Source\PSoC4/FanController.c ****     }
 396              		.loc 1 802 0
 397              		@ sp needed
 398 000a 7047     		bx	lr
 399              	.L33:
 400              		.align	2
 401              	.L32:
 402 000c 00000000 		.word	FanController_speedStatus
 403              		.cfi_endproc
 404              	.LFE14:
 405              		.size	FanController_GetFanSpeedStatus, .-FanController_GetFanSpeedStatus
 406              		.global	__aeabi_uidiv
 407              		.section	.text.FanController_SetDutyCycle,"ax",%progbits
 408              		.align	2
 409              		.global	FanController_SetDutyCycle
 410              		.code	16
 411              		.thumb_func
 412              		.type	FanController_SetDutyCycle, %function
 413              	FanController_SetDutyCycle:
 414              	.LFB15:
 803:Generated_Source\PSoC4/FanController.c **** 
 804:Generated_Source\PSoC4/FanController.c **** #endif /* (!FanController_IS_MANUAL_MODE) */
 805:Generated_Source\PSoC4/FanController.c **** 
 806:Generated_Source\PSoC4/FanController.c **** 
 807:Generated_Source\PSoC4/FanController.c **** /******************************************************************************
 808:Generated_Source\PSoC4/FanController.c **** * Function Name: FanController_SetDutyCycle
 809:Generated_Source\PSoC4/FanController.c **** *******************************************************************************
 810:Generated_Source\PSoC4/FanController.c **** *
 811:Generated_Source\PSoC4/FanController.c **** * Summary:
 812:Generated_Source\PSoC4/FanController.c **** *  Sets the duty cycle of selected fan or bank in hundredths of a percent,
 813:Generated_Source\PSoC4/FanController.c **** *  i.e. 5000=50% duty cycle. In hardware controlled fan mode, if manual duty
 814:Generated_Source\PSoC4/FanController.c **** *  cycle control is desirable, call the OverrideAutomaticControl(true) API 
 815:Generated_Source\PSoC4/FanController.c **** *  prior to calling this API.
 816:Generated_Source\PSoC4/FanController.c **** *
 817:Generated_Source\PSoC4/FanController.c **** * Parameters:
 818:Generated_Source\PSoC4/FanController.c **** *  uint8 fanOrBankNumber
 819:Generated_Source\PSoC4/FanController.c **** *   Valid range is 1-16 and should not exceed the number of fans or banks in the
 820:Generated_Source\PSoC4/FanController.c **** *   system.
 821:Generated_Source\PSoC4/FanController.c **** *
 822:Generated_Source\PSoC4/FanController.c **** *  uint16 dutyCycle
 823:Generated_Source\PSoC4/FanController.c **** *   dutyCycle is entered in hundredths of a percent, i.e. 5000=50% duty cycle
 824:Generated_Source\PSoC4/FanController.c **** *   Valid range is 0 to 10000.
 825:Generated_Source\PSoC4/FanController.c **** *
 826:Generated_Source\PSoC4/FanController.c **** * Return:
 827:Generated_Source\PSoC4/FanController.c **** *  None
 828:Generated_Source\PSoC4/FanController.c **** *
 829:Generated_Source\PSoC4/FanController.c **** * Side Effects:
 830:Generated_Source\PSoC4/FanController.c **** *  None
 831:Generated_Source\PSoC4/FanController.c **** *
 832:Generated_Source\PSoC4/FanController.c **** ****************************************************************************/
 833:Generated_Source\PSoC4/FanController.c **** void FanController_SetDutyCycle(uint8 fanOrBankNumber, uint16 dutyCycle)
 834:Generated_Source\PSoC4/FanController.c ****         
ARM GAS  C:\Users\Ade0n\AppData\Local\Temp\ccn6i87z.s 			page 23


 835:Generated_Source\PSoC4/FanController.c **** {
 415              		.loc 1 835 0
 416              		.cfi_startproc
 417              		@ args = 0, pretend = 0, frame = 0
 418              		@ frame_needed = 0, uses_anonymous_args = 0
 419              	.LVL16:
 420 0000 10B5     		push	{r4, lr}
 421              		.cfi_def_cfa_offset 8
 422              		.cfi_offset 4, -8
 423              		.cfi_offset 14, -4
 836:Generated_Source\PSoC4/FanController.c ****     uint32 newCompare;      /* Needs to be 32-bit to allow for overflow during the math calculation
 837:Generated_Source\PSoC4/FanController.c **** 
 838:Generated_Source\PSoC4/FanController.c ****     /* Make sure the Fan/Bank number is valid */
 839:Generated_Source\PSoC4/FanController.c ****     if(fanOrBankNumber <= FanController_NUMBER_OF_FAN_OUTPUTS)
 424              		.loc 1 839 0
 425 0002 0128     		cmp	r0, #1
 426 0004 0BD8     		bhi	.L34
 840:Generated_Source\PSoC4/FanController.c ****     {
 841:Generated_Source\PSoC4/FanController.c ****         newCompare = (FanController_PWM_PERIOD * (uint32) dutyCycle) / FanController_PWM_DUTY_DIVID
 427              		.loc 1 841 0
 428 0006 0B01     		lsls	r3, r1, #4
 429 0008 591A     		subs	r1, r3, r1
 430              	.LVL17:
 431 000a 8801     		lsls	r0, r1, #6
 432              	.LVL18:
 433 000c 0449     		ldr	r1, .L36
 434 000e FFF7FEFF 		bl	__aeabi_uidiv
 435              	.LVL19:
 842:Generated_Source\PSoC4/FanController.c **** 
 843:Generated_Source\PSoC4/FanController.c ****         /* Make sure the Compare value is in range (user entered a valid duty
 844:Generated_Source\PSoC4/FanController.c ****         * cycle value).
 845:Generated_Source\PSoC4/FanController.c ****         */
 846:Generated_Source\PSoC4/FanController.c ****         if(newCompare <= FanController_PWM_PERIOD)
 436              		.loc 1 846 0
 437 0012 F023     		movs	r3, #240
 438 0014 9B00     		lsls	r3, r3, #2
 439 0016 9842     		cmp	r0, r3
 440 0018 01D8     		bhi	.L34
 847:Generated_Source\PSoC4/FanController.c ****         {
 848:Generated_Source\PSoC4/FanController.c ****             #if (!CY_PSOC4)
 849:Generated_Source\PSoC4/FanController.c ****                 #if(FanController_PWMRES == FanController_PWMRES_EIGHTBIT)
 850:Generated_Source\PSoC4/FanController.c ****                     CY_SET_REG8(FanController_fanDriverRegs[fanOrBankNumber - 1u].pwmSetDutyReg, (u
 851:Generated_Source\PSoC4/FanController.c ****                 #else
 852:Generated_Source\PSoC4/FanController.c ****                     CY_SET_REG16(FanController_fanDriverRegs[fanOrBankNumber - 1u].pwmSetDutyReg, (
 853:Generated_Source\PSoC4/FanController.c ****                 #endif /* FanController_PWMRES == FanController_PWMRES_EIGHTBIT */
 854:Generated_Source\PSoC4/FanController.c ****             #else
 855:Generated_Source\PSoC4/FanController.c ****                 CY_SET_REG32(FanController_fanDriverRegs[fanOrBankNumber - 1u].pwmSetDutyReg, newCo
 441              		.loc 1 855 0
 442 001a 024B     		ldr	r3, .L36+4
 443 001c 1860     		str	r0, [r3]
 444              	.LVL20:
 445              	.L34:
 856:Generated_Source\PSoC4/FanController.c ****             #endif /* (!CY_PSOC4) */
 857:Generated_Source\PSoC4/FanController.c ****         }
 858:Generated_Source\PSoC4/FanController.c ****     }
 859:Generated_Source\PSoC4/FanController.c **** }
 446              		.loc 1 859 0
ARM GAS  C:\Users\Ade0n\AppData\Local\Temp\ccn6i87z.s 			page 24


 447              		@ sp needed
 448 001e 10BD     		pop	{r4, pc}
 449              	.L37:
 450              		.align	2
 451              	.L36:
 452 0020 10270000 		.word	10000
 453 0024 4C012040 		.word	1075839308
 454              		.cfi_endproc
 455              	.LFE15:
 456              		.size	FanController_SetDutyCycle, .-FanController_SetDutyCycle
 457              		.section	.text.FanController_GetDutyCycle,"ax",%progbits
 458              		.align	2
 459              		.global	FanController_GetDutyCycle
 460              		.code	16
 461              		.thumb_func
 462              		.type	FanController_GetDutyCycle, %function
 463              	FanController_GetDutyCycle:
 464              	.LFB16:
 860:Generated_Source\PSoC4/FanController.c **** 
 861:Generated_Source\PSoC4/FanController.c **** 
 862:Generated_Source\PSoC4/FanController.c **** /******************************************************************************
 863:Generated_Source\PSoC4/FanController.c **** * Function Name: FanController_GetDutyCycle
 864:Generated_Source\PSoC4/FanController.c **** *******************************************************************************
 865:Generated_Source\PSoC4/FanController.c **** *
 866:Generated_Source\PSoC4/FanController.c **** * Summary:
 867:Generated_Source\PSoC4/FanController.c **** *  Returns the current duty cycle of the selected fan or bank in hundredths
 868:Generated_Source\PSoC4/FanController.c **** *  of a percent, i.e. 5000=50% duty cycle.
 869:Generated_Source\PSoC4/FanController.c **** *
 870:Generated_Source\PSoC4/FanController.c **** * Parameters:
 871:Generated_Source\PSoC4/FanController.c **** *  uint8 fanOrBankNumber
 872:Generated_Source\PSoC4/FanController.c **** *  Valid range is 1-16 and should not exceed the number of fans or banks in
 873:Generated_Source\PSoC4/FanController.c **** *  the system.
 874:Generated_Source\PSoC4/FanController.c **** *
 875:Generated_Source\PSoC4/FanController.c **** * Return:
 876:Generated_Source\PSoC4/FanController.c **** *  uint16 duyCycle
 877:Generated_Source\PSoC4/FanController.c **** *  Current duty cycle in hundredths of a percent.
 878:Generated_Source\PSoC4/FanController.c **** *
 879:Generated_Source\PSoC4/FanController.c **** * Side Effects:
 880:Generated_Source\PSoC4/FanController.c **** *  None
 881:Generated_Source\PSoC4/FanController.c **** *
 882:Generated_Source\PSoC4/FanController.c **** ****************************************************************************/
 883:Generated_Source\PSoC4/FanController.c **** uint16 FanController_GetDutyCycle(uint8 fanOrBankNumber) 
 884:Generated_Source\PSoC4/FanController.c **** {
 465              		.loc 1 884 0
 466              		.cfi_startproc
 467              		@ args = 0, pretend = 0, frame = 0
 468              		@ frame_needed = 0, uses_anonymous_args = 0
 469              	.LVL21:
 470 0000 10B5     		push	{r4, lr}
 471              		.cfi_def_cfa_offset 8
 472              		.cfi_offset 4, -8
 473              		.cfi_offset 14, -4
 474              	.LVL22:
 885:Generated_Source\PSoC4/FanController.c ****     uint16 duyCycle = 0u;
 886:Generated_Source\PSoC4/FanController.c **** 
 887:Generated_Source\PSoC4/FanController.c ****     if(fanOrBankNumber <= FanController_NUMBER_OF_FAN_OUTPUTS)
 475              		.loc 1 887 0
ARM GAS  C:\Users\Ade0n\AppData\Local\Temp\ccn6i87z.s 			page 25


 476 0002 0128     		cmp	r0, #1
 477 0004 09D8     		bhi	.L40
 888:Generated_Source\PSoC4/FanController.c ****     {
 889:Generated_Source\PSoC4/FanController.c ****         #if (!CY_PSOC4)
 890:Generated_Source\PSoC4/FanController.c ****             #if(FanController_PWMRES == FanController_PWMRES_EIGHTBIT)
 891:Generated_Source\PSoC4/FanController.c ****                 duyCycle = (uint16)
 892:Generated_Source\PSoC4/FanController.c ****                     ((((uint32) CY_GET_REG8(FanController_fanDriverRegs[fanOrBankNumber - 1u].pwmSe
 893:Generated_Source\PSoC4/FanController.c ****                             * FanController_PWM_DUTY_DIVIDER) / FanController_PWM_PERIOD);
 894:Generated_Source\PSoC4/FanController.c ****             #else
 895:Generated_Source\PSoC4/FanController.c ****                 duyCycle = (uint16)
 896:Generated_Source\PSoC4/FanController.c ****                     (((uint32) CY_GET_REG16(FanController_fanDriverRegs[fanOrBankNumber - 1u].pwmSe
 897:Generated_Source\PSoC4/FanController.c ****                                 * FanController_PWM_DUTY_DIVIDER) / FanController_PWM_PERIOD);
 898:Generated_Source\PSoC4/FanController.c ****             #endif /* FanController_PWMRES == FanController_PWMRES_EIGHTBIT */
 899:Generated_Source\PSoC4/FanController.c ****         #else
 900:Generated_Source\PSoC4/FanController.c ****             duyCycle = (uint16)
 901:Generated_Source\PSoC4/FanController.c ****                 (((uint32) CY_GET_REG32(FanController_fanDriverRegs[fanOrBankNumber - 1u].pwmSetDut
 478              		.loc 1 901 0
 479 0006 064B     		ldr	r3, .L41
 480 0008 1868     		ldr	r0, [r3]
 481              	.LVL23:
 902:Generated_Source\PSoC4/FanController.c ****                         * FanController_PWM_DUTY_DIVIDER) / FanController_PWM_PERIOD);
 482              		.loc 1 902 0
 483 000a 064B     		ldr	r3, .L41+4
 484 000c 5843     		muls	r0, r3
 485 000e F021     		movs	r1, #240
 486 0010 8900     		lsls	r1, r1, #2
 487 0012 FFF7FEFF 		bl	__aeabi_uidiv
 488              	.LVL24:
 900:Generated_Source\PSoC4/FanController.c ****                 (((uint32) CY_GET_REG32(FanController_fanDriverRegs[fanOrBankNumber - 1u].pwmSetDut
 489              		.loc 1 900 0
 490 0016 80B2     		uxth	r0, r0
 491              	.LVL25:
 492 0018 00E0     		b	.L39
 493              	.LVL26:
 494              	.L40:
 885:Generated_Source\PSoC4/FanController.c **** 
 495              		.loc 1 885 0
 496 001a 0020     		movs	r0, #0
 497              	.LVL27:
 498              	.L39:
 903:Generated_Source\PSoC4/FanController.c ****         #endif /* (!CY_PSOC4) */
 904:Generated_Source\PSoC4/FanController.c ****     }
 905:Generated_Source\PSoC4/FanController.c **** 
 906:Generated_Source\PSoC4/FanController.c ****     return(duyCycle);
 907:Generated_Source\PSoC4/FanController.c **** }
 499              		.loc 1 907 0
 500              		@ sp needed
 501 001c 10BD     		pop	{r4, pc}
 502              	.L42:
 503 001e C046     		.align	2
 504              	.L41:
 505 0020 4C012040 		.word	1075839308
 506 0024 10270000 		.word	10000
 507              		.cfi_endproc
 508              	.LFE16:
 509              		.size	FanController_GetDutyCycle, .-FanController_GetDutyCycle
 510              		.section	.text.FanController_SetDesiredSpeed,"ax",%progbits
ARM GAS  C:\Users\Ade0n\AppData\Local\Temp\ccn6i87z.s 			page 26


 511              		.align	2
 512              		.global	FanController_SetDesiredSpeed
 513              		.code	16
 514              		.thumb_func
 515              		.type	FanController_SetDesiredSpeed, %function
 516              	FanController_SetDesiredSpeed:
 517              	.LFB17:
 908:Generated_Source\PSoC4/FanController.c **** 
 909:Generated_Source\PSoC4/FanController.c **** 
 910:Generated_Source\PSoC4/FanController.c **** /******************************************************************************
 911:Generated_Source\PSoC4/FanController.c **** * Function Name: FanController_SetDesiredSpeed
 912:Generated_Source\PSoC4/FanController.c **** *******************************************************************************
 913:Generated_Source\PSoC4/FanController.c **** *
 914:Generated_Source\PSoC4/FanController.c **** * Summary:
 915:Generated_Source\PSoC4/FanController.c **** *  Sets the desired RPM of specified fan. If the AcousticNoiseReduction
 916:Generated_Source\PSoC4/FanController.c **** *  parameter is true (enabled via the component customizer) in hardware
 917:Generated_Source\PSoC4/FanController.c **** *  controlled fan mode, the desired speed is converted to a fan rotation period
 918:Generated_Source\PSoC4/FanController.c **** *  and written to SRAM for subsequent DMA into the tachometer block. If the
 919:Generated_Source\PSoC4/FanController.c **** *  AcousticNoiseReduction parameter is false, the desired speed is converted to
 920:Generated_Source\PSoC4/FanController.c **** *  a duty cycle and written directly into the PWM register for the selected fan.
 921:Generated_Source\PSoC4/FanController.c **** *
 922:Generated_Source\PSoC4/FanController.c **** * Parameters:
 923:Generated_Source\PSoC4/FanController.c **** *  uint8 fanNumber
 924:Generated_Source\PSoC4/FanController.c **** *  Valid range is 1-16 and should not exceed the number of fans in the system.
 925:Generated_Source\PSoC4/FanController.c **** *
 926:Generated_Source\PSoC4/FanController.c **** * uint16 rpm
 927:Generated_Source\PSoC4/FanController.c **** *  Valid range is 500 to 25,000, but should not exceed the max RPM of the
 928:Generated_Source\PSoC4/FanController.c **** *  selected fan.
 929:Generated_Source\PSoC4/FanController.c **** *
 930:Generated_Source\PSoC4/FanController.c **** * Return:
 931:Generated_Source\PSoC4/FanController.c **** *  None
 932:Generated_Source\PSoC4/FanController.c **** *
 933:Generated_Source\PSoC4/FanController.c **** * Side Effects:
 934:Generated_Source\PSoC4/FanController.c **** *  None
 935:Generated_Source\PSoC4/FanController.c **** *
 936:Generated_Source\PSoC4/FanController.c **** ****************************************************************************/
 937:Generated_Source\PSoC4/FanController.c **** void FanController_SetDesiredSpeed(uint8 fanNumber, uint16 rpm) 
 938:Generated_Source\PSoC4/FanController.c **** {
 518              		.loc 1 938 0
 519              		.cfi_startproc
 520              		@ args = 0, pretend = 0, frame = 0
 521              		@ frame_needed = 0, uses_anonymous_args = 0
 522              		@ link register save eliminated.
 523              	.LVL28:
 939:Generated_Source\PSoC4/FanController.c ****     uint32 overrideDuty;        /* Needs to be 32-bit to allow for overflow during the math calcula
 940:Generated_Source\PSoC4/FanController.c ****     uint16 currentSpeed;
 941:Generated_Source\PSoC4/FanController.c **** 
 942:Generated_Source\PSoC4/FanController.c ****     /* Check for valid Fan number */
 943:Generated_Source\PSoC4/FanController.c ****     if(fanNumber <= FanController_NUMBER_OF_FANS)
 524              		.loc 1 943 0
 525 0000 0128     		cmp	r0, #1
 526 0002 03D8     		bhi	.L43
 944:Generated_Source\PSoC4/FanController.c ****     {
 945:Generated_Source\PSoC4/FanController.c ****         /* Get the actual speed */
 946:Generated_Source\PSoC4/FanController.c ****         currentSpeed = FanController_GetActualSpeed(fanNumber);
 947:Generated_Source\PSoC4/FanController.c **** 
 948:Generated_Source\PSoC4/FanController.c ****         /* 3 cases where we will directly write a new duty cycle in firmware: */
ARM GAS  C:\Users\Ade0n\AppData\Local\Temp\ccn6i87z.s 			page 27


 949:Generated_Source\PSoC4/FanController.c ****             /* Case 1) Manual Control fan mode */
 950:Generated_Source\PSoC4/FanController.c ****         if((FanController_IS_MANUAL_MODE)   ||
 951:Generated_Source\PSoC4/FanController.c ****             /* Case 2) Auto controlled fan mode and noise reduction is off */
 952:Generated_Source\PSoC4/FanController.c ****             ((FanController_IS_AUTO_HARDWARE_MODE) &&
 953:Generated_Source\PSoC4/FanController.c ****                 (FanController_NOISE_REDUCTION_MODE == FanController_NOISE_REDUCTION_OFF)) ||
 954:Generated_Source\PSoC4/FanController.c ****             /* Case 3) hardware controlled fan mode and new rpm is slower than current */
 955:Generated_Source\PSoC4/FanController.c ****             ((FanController_IS_AUTO_HARDWARE_MODE) && (rpm < currentSpeed)))
 956:Generated_Source\PSoC4/FanController.c ****         {
 957:Generated_Source\PSoC4/FanController.c ****             /* Override hardware controlled fan mode temporarily to write new duty cycle */
 958:Generated_Source\PSoC4/FanController.c ****             #if(FanController_IS_AUTO_HARDWARE_MODE)
 959:Generated_Source\PSoC4/FanController.c ****                 FanController_OverrideAutomaticControl(1u);
 960:Generated_Source\PSoC4/FanController.c ****             #endif /* FanController_IS_AUTO_HARDWARE_MODE */
 961:Generated_Source\PSoC4/FanController.c **** 
 962:Generated_Source\PSoC4/FanController.c ****             /* Desired speed is slower than rpmA */
 963:Generated_Source\PSoC4/FanController.c ****             if(rpm < FanController_fanProperties[fanNumber - 1u].rpmA)
 964:Generated_Source\PSoC4/FanController.c ****             {
 965:Generated_Source\PSoC4/FanController.c ****                 overrideDuty =  (uint32)FanController_fanProperties[fanNumber - 1u].dutyA -
 966:Generated_Source\PSoC4/FanController.c ****                                 (((uint32)FanController_fanProperties[fanNumber - 1u].dutyRpmSlope 
 967:Generated_Source\PSoC4/FanController.c ****                                    ((uint32)FanController_fanProperties[fanNumber - 1u].rpmA - (uin
 968:Generated_Source\PSoC4/FanController.c **** 
 969:Generated_Source\PSoC4/FanController.c ****                 /* Check for math underflow */
 970:Generated_Source\PSoC4/FanController.c ****                 if(overrideDuty > 10000u)
 971:Generated_Source\PSoC4/FanController.c ****                 {
 972:Generated_Source\PSoC4/FanController.c ****                     overrideDuty = 0u;
 973:Generated_Source\PSoC4/FanController.c ****                 }
 974:Generated_Source\PSoC4/FanController.c ****             }
 975:Generated_Source\PSoC4/FanController.c **** 
 976:Generated_Source\PSoC4/FanController.c ****             /* Desired speed is faster than rpmA */
 977:Generated_Source\PSoC4/FanController.c ****             else
 978:Generated_Source\PSoC4/FanController.c ****             {
 979:Generated_Source\PSoC4/FanController.c ****                 overrideDuty =  (uint32)FanController_fanProperties[fanNumber - 1u].dutyA +
 980:Generated_Source\PSoC4/FanController.c ****                                 (((uint32)FanController_fanProperties[fanNumber - 1u].dutyRpmSlope 
 981:Generated_Source\PSoC4/FanController.c ****                                    ((uint32)rpm - (uint32)FanController_fanProperties[fanNumber - 1
 982:Generated_Source\PSoC4/FanController.c **** 
 983:Generated_Source\PSoC4/FanController.c ****                 /* Check for math overflow */
 984:Generated_Source\PSoC4/FanController.c ****                 if(overrideDuty > 10000u)
 985:Generated_Source\PSoC4/FanController.c ****                 {
 986:Generated_Source\PSoC4/FanController.c ****                     overrideDuty = 10000u;
 987:Generated_Source\PSoC4/FanController.c ****                 }
 988:Generated_Source\PSoC4/FanController.c ****             }
 989:Generated_Source\PSoC4/FanController.c **** 
 990:Generated_Source\PSoC4/FanController.c ****             /* Set the newly calculated duty cycle */
 991:Generated_Source\PSoC4/FanController.c ****             FanController_SetDutyCycle(fanNumber, (uint16) overrideDuty);
 992:Generated_Source\PSoC4/FanController.c ****         }
 993:Generated_Source\PSoC4/FanController.c **** 
 994:Generated_Source\PSoC4/FanController.c ****         /* Set newly requested desired rpm including tolerance calculation and store
 995:Generated_Source\PSoC4/FanController.c ****         * in SRAM for the tachometer block DMA controller.
 996:Generated_Source\PSoC4/FanController.c ****         */
 997:Generated_Source\PSoC4/FanController.c ****         #if(FanController_IS_AUTO_HARDWARE_MODE)
 998:Generated_Source\PSoC4/FanController.c **** 
 999:Generated_Source\PSoC4/FanController.c ****             FanController_fanControl.desiredPeriod[fanNumber - 1u] =
1000:Generated_Source\PSoC4/FanController.c ****                 (uint16) (FanController_RPM_PERIOD_CONV_FACTOR /
1001:Generated_Source\PSoC4/FanController.c ****                     (uint32) ((uint32) rpm + (((uint32) rpm * FanController_TOLERANCE) /
1002:Generated_Source\PSoC4/FanController.c ****                         FanController_TOLERANCE_DIVIDER)));
1003:Generated_Source\PSoC4/FanController.c **** 
1004:Generated_Source\PSoC4/FanController.c ****             if(rpm > 500u)
1005:Generated_Source\PSoC4/FanController.c ****             {
ARM GAS  C:\Users\Ade0n\AppData\Local\Temp\ccn6i87z.s 			page 28


1006:Generated_Source\PSoC4/FanController.c ****                 FanController_fanControl.tolerance[fanNumber - 1u] =
1007:Generated_Source\PSoC4/FanController.c ****                     (uint16) (((FanController_RPM_PERIOD_CONV_FACTOR * FanController_TOLERANCE) /
1008:Generated_Source\PSoC4/FanController.c ****                         FanController_TOLERANCE_DIVIDER) / (uint32) rpm);
1009:Generated_Source\PSoC4/FanController.c ****             }
1010:Generated_Source\PSoC4/FanController.c ****             else
1011:Generated_Source\PSoC4/FanController.c ****             {
1012:Generated_Source\PSoC4/FanController.c ****                 FanController_fanControl.tolerance[fanNumber - 1u] = 100u;
1013:Generated_Source\PSoC4/FanController.c ****             }
1014:Generated_Source\PSoC4/FanController.c **** 
1015:Generated_Source\PSoC4/FanController.c ****             /* Go back to hardware controlled fan mode */
1016:Generated_Source\PSoC4/FanController.c ****             FanController_OverrideAutomaticControl(0u);
1017:Generated_Source\PSoC4/FanController.c **** 
1018:Generated_Source\PSoC4/FanController.c ****         #endif /* FanController_IS_AUTO_HARDWARE_MODE */
1019:Generated_Source\PSoC4/FanController.c ****         
1020:Generated_Source\PSoC4/FanController.c ****         /* Store the desired speed to RAM if we are in auto mode. It will be used by 
1021:Generated_Source\PSoC4/FanController.c ****         * FanController_GetDesiredSpeed() and PID algorithm.
1022:Generated_Source\PSoC4/FanController.c ****         */
1023:Generated_Source\PSoC4/FanController.c ****         #if((FanController_IS_AUTO_FIRMWARE_MODE) || (FanController_IS_AUTO_HARDWARE_MODE))
1024:Generated_Source\PSoC4/FanController.c ****             FanController_desiredFansSpeed[fanNumber - 1u] = rpm;
 527              		.loc 1 1024 0
 528 0004 0138     		subs	r0, r0, #1
 529              	.LVL29:
 530 0006 4000     		lsls	r0, r0, #1
 531 0008 014B     		ldr	r3, .L45
 532 000a C152     		strh	r1, [r0, r3]
 533              	.L43:
1025:Generated_Source\PSoC4/FanController.c ****         #endif /* (FanController_IS_AUTO_HARDWARE_MODE) */
1026:Generated_Source\PSoC4/FanController.c ****     }
1027:Generated_Source\PSoC4/FanController.c **** }
 534              		.loc 1 1027 0
 535              		@ sp needed
 536 000c 7047     		bx	lr
 537              	.L46:
 538 000e C046     		.align	2
 539              	.L45:
 540 0010 00000000 		.word	FanController_desiredFansSpeed
 541              		.cfi_endproc
 542              	.LFE17:
 543              		.size	FanController_SetDesiredSpeed, .-FanController_SetDesiredSpeed
 544              		.section	.text.FanController_Init,"ax",%progbits
 545              		.align	2
 546              		.global	FanController_Init
 547              		.code	16
 548              		.thumb_func
 549              		.type	FanController_Init, %function
 550              	FanController_Init:
 551              	.LFB4:
 223:Generated_Source\PSoC4/FanController.c ****     uint8 counti;
 552              		.loc 1 223 0
 553              		.cfi_startproc
 554              		@ args = 0, pretend = 0, frame = 0
 555              		@ frame_needed = 0, uses_anonymous_args = 0
 556 0000 F8B5     		push	{r3, r4, r5, r6, r7, lr}
 557              		.cfi_def_cfa_offset 24
 558              		.cfi_offset 3, -24
 559              		.cfi_offset 4, -20
 560              		.cfi_offset 5, -16
ARM GAS  C:\Users\Ade0n\AppData\Local\Temp\ccn6i87z.s 			page 29


 561              		.cfi_offset 6, -12
 562              		.cfi_offset 7, -8
 563              		.cfi_offset 14, -4
 312:Generated_Source\PSoC4/FanController.c ****         #elif(FanController_NUMBER_OF_FAN_OUTPUTS == 2u)
 564              		.loc 1 312 0
 565 0002 FFF7FEFF 		bl	FanController_FW_PWM1_Init
 566              	.LVL30:
 327:Generated_Source\PSoC4/FanController.c ****         {
 567              		.loc 1 327 0
 568 0006 0024     		movs	r4, #0
 569 0008 16E0     		b	.L48
 570              	.LVL31:
 571              	.L49:
 330:Generated_Source\PSoC4/FanController.c **** 
 572              		.loc 1 330 0 discriminator 3
 573 000a F022     		movs	r2, #240
 574 000c 9200     		lsls	r2, r2, #2
 575 000e 2C4B     		ldr	r3, .L52
 576 0010 1A60     		str	r2, [r3]
 336:Generated_Source\PSoC4/FanController.c ****             #endif /* (FanController_IS_AUTO_FIRMWARE_MODE) */
 577              		.loc 1 336 0 discriminator 3
 578 0012 651C     		adds	r5, r4, #1
 579 0014 EDB2     		uxtb	r5, r5
 580 0016 2B4F     		ldr	r7, .L52+4
 581 0018 E600     		lsls	r6, r4, #3
 582 001a 321B     		subs	r2, r6, r4
 583 001c 5300     		lsls	r3, r2, #1
 584 001e FB18     		adds	r3, r7, r3
 585 0020 9989     		ldrh	r1, [r3, #12]
 586 0022 2800     		movs	r0, r5
 587 0024 FFF7FEFF 		bl	FanController_SetDutyCycle
 588              	.LVL32:
 340:Generated_Source\PSoC4/FanController.c ****         }
 589              		.loc 1 340 0 discriminator 3
 590 0028 341B     		subs	r4, r6, r4
 591              	.LVL33:
 592 002a 6300     		lsls	r3, r4, #1
 593 002c FB18     		adds	r3, r7, r3
 594 002e 5989     		ldrh	r1, [r3, #10]
 595 0030 2800     		movs	r0, r5
 596 0032 FFF7FEFF 		bl	FanController_SetDesiredSpeed
 597              	.LVL34:
 327:Generated_Source\PSoC4/FanController.c ****         {
 598              		.loc 1 327 0 discriminator 3
 599 0036 2C00     		movs	r4, r5
 600              	.LVL35:
 601              	.L48:
 327:Generated_Source\PSoC4/FanController.c ****         {
 602              		.loc 1 327 0 is_stmt 0 discriminator 1
 603 0038 002C     		cmp	r4, #0
 604 003a E6D0     		beq	.L49
 349:Generated_Source\PSoC4/FanController.c ****     #if (CY_PSOC4)
 605              		.loc 1 349 0 is_stmt 1
 606 003c FFF7FEFF 		bl	CyEnterCriticalSection
 607              	.LVL36:
 352:Generated_Source\PSoC4/FanController.c ****         FanController_TACH_CUNTER_AUX_CTL_REG &= ((uint8) ~FanController_TACH_COUNTER_FIFO_CLR);
 608              		.loc 1 352 0
ARM GAS  C:\Users\Ade0n\AppData\Local\Temp\ccn6i87z.s 			page 30


 609 0040 214B     		ldr	r3, .L52+8
 610 0042 1988     		ldrh	r1, [r3]
 611 0044 0222     		movs	r2, #2
 612 0046 FF32     		adds	r2, r2, #255
 613 0048 0A43     		orrs	r2, r1
 614 004a 1A80     		strh	r2, [r3]
 353:Generated_Source\PSoC4/FanController.c ****     #else
 615              		.loc 1 353 0
 616 004c 1988     		ldrh	r1, [r3]
 617 004e FE22     		movs	r2, #254
 618 0050 0A40     		ands	r2, r1
 619 0052 1A80     		strh	r2, [r3]
 358:Generated_Source\PSoC4/FanController.c ****     
 620              		.loc 1 358 0
 621 0054 FFF7FEFF 		bl	CyExitCriticalSection
 622              	.LVL37:
 361:Generated_Source\PSoC4/FanController.c **** 
 623              		.loc 1 361 0
 624 0058 3C22     		movs	r2, #60
 625 005a 1C4B     		ldr	r3, .L52+12
 626 005c 1A70     		strb	r2, [r3]
 366:Generated_Source\PSoC4/FanController.c **** 
 627              		.loc 1 366 0
 628 005e 323A     		subs	r2, r2, #50
 629 0060 1B4B     		ldr	r3, .L52+16
 630 0062 1A70     		strb	r2, [r3]
 369:Generated_Source\PSoC4/FanController.c **** 
 631              		.loc 1 369 0
 632 0064 F032     		adds	r2, r2, #240
 633 0066 1B4B     		ldr	r3, .L52+20
 634 0068 1A70     		strb	r2, [r3]
 372:Generated_Source\PSoC4/FanController.c **** 
 635              		.loc 1 372 0
 636 006a F93A     		subs	r2, r2, #249
 637 006c 1A4B     		ldr	r3, .L52+24
 638 006e 1A70     		strb	r2, [r3]
 379:Generated_Source\PSoC4/FanController.c **** 
 639              		.loc 1 379 0
 640 0070 0120     		movs	r0, #1
 641 0072 FFF7FEFF 		bl	FanController_SetAlertMask
 642              	.LVL38:
 385:Generated_Source\PSoC4/FanController.c ****         {
 643              		.loc 1 385 0
 644 0076 0024     		movs	r4, #0
 645 0078 18E0     		b	.L50
 646              	.LVL39:
 647              	.L51:
 388:Generated_Source\PSoC4/FanController.c **** 
 648              		.loc 1 388 0 discriminator 3
 649 007a FFF7FEFF 		bl	CyEnterCriticalSection
 650              	.LVL40:
 393:Generated_Source\PSoC4/FanController.c ****             FanController_pidA2[counti] = FanController_PID_A2;
 651              		.loc 1 393 0 discriminator 3
 652 007e 6300     		lsls	r3, r4, #1
 653 0080 1649     		ldr	r1, .L52+28
 654 0082 174A     		ldr	r2, .L52+32
 655 0084 9952     		strh	r1, [r3, r2]
ARM GAS  C:\Users\Ade0n\AppData\Local\Temp\ccn6i87z.s 			page 31


 394:Generated_Source\PSoC4/FanController.c ****             FanController_pidA3[counti] = FanController_PID_A3;
 656              		.loc 1 394 0 discriminator 3
 657 0086 1749     		ldr	r1, .L52+36
 658 0088 174A     		ldr	r2, .L52+40
 659 008a 9952     		strh	r1, [r3, r2]
 395:Generated_Source\PSoC4/FanController.c **** 
 660              		.loc 1 395 0 discriminator 3
 661 008c 0021     		movs	r1, #0
 662 008e 174A     		ldr	r2, .L52+44
 663 0090 9952     		strh	r1, [r3, r2]
 397:Generated_Source\PSoC4/FanController.c ****             FanController_outputSatH[counti] = FanController_PID_OUTPUT_SAT_H;
 664              		.loc 1 397 0 discriminator 3
 665 0092 A300     		lsls	r3, r4, #2
 666 0094 C021     		movs	r1, #192
 667 0096 4905     		lsls	r1, r1, #21
 668 0098 154A     		ldr	r2, .L52+48
 669 009a 9950     		str	r1, [r3, r2]
 398:Generated_Source\PSoC4/FanController.c ****             CyExitCriticalSection(interruptState);
 670              		.loc 1 398 0 discriminator 3
 671 009c F021     		movs	r1, #240
 672 009e 8905     		lsls	r1, r1, #22
 673 00a0 144A     		ldr	r2, .L52+52
 674 00a2 9950     		str	r1, [r3, r2]
 399:Generated_Source\PSoC4/FanController.c ****         }
 675              		.loc 1 399 0 discriminator 3
 676 00a4 FFF7FEFF 		bl	CyExitCriticalSection
 677              	.LVL41:
 385:Generated_Source\PSoC4/FanController.c ****         {
 678              		.loc 1 385 0 discriminator 3
 679 00a8 0134     		adds	r4, r4, #1
 680              	.LVL42:
 681 00aa E4B2     		uxtb	r4, r4
 682              	.LVL43:
 683              	.L50:
 385:Generated_Source\PSoC4/FanController.c ****         {
 684              		.loc 1 385 0 is_stmt 0 discriminator 1
 685 00ac 002C     		cmp	r4, #0
 686 00ae E4D0     		beq	.L51
 407:Generated_Source\PSoC4/FanController.c ****     #endif /* (CY_PSOC4) */
 687              		.loc 1 407 0 is_stmt 1
 688 00b0 1148     		ldr	r0, .L52+56
 689 00b2 FFF7FEFF 		bl	FanController_DataSend_StartEx
 690              	.LVL44:
 411:Generated_Source\PSoC4/FanController.c ****     #endif /* (FanController_IS_AUTO_FIRMWARE_MODE) */
 691              		.loc 1 411 0
 692 00b6 1148     		ldr	r0, .L52+60
 693 00b8 FFF7FEFF 		bl	FanController_PID_ISR_StartEx
 694              	.LVL45:
 413:Generated_Source\PSoC4/FanController.c **** 
 695              		.loc 1 413 0
 696              		@ sp needed
 697              	.LVL46:
 698 00bc F8BD     		pop	{r3, r4, r5, r6, r7, pc}
 699              	.L53:
 700 00be C046     		.align	2
 701              	.L52:
 702 00c0 54012040 		.word	1075839316
ARM GAS  C:\Users\Ade0n\AppData\Local\Temp\ccn6i87z.s 			page 32


 703 00c4 00000000 		.word	.LANCHOR1
 704 00c8 24110F40 		.word	1074729252
 705 00cc 20000F40 		.word	1074724896
 706 00d0 30000F40 		.word	1074724912
 707 00d4 21000F40 		.word	1074724897
 708 00d8 31000F40 		.word	1074724913
 709 00dc 99190000 		.word	6553
 710 00e0 00000000 		.word	FanController_pidA1
 711 00e4 00F0FFFF 		.word	-4096
 712 00e8 00000000 		.word	FanController_pidA2
 713 00ec 00000000 		.word	FanController_pidA3
 714 00f0 00000000 		.word	FanController_outputSatL
 715 00f4 00000000 		.word	FanController_outputSatH
 716 00f8 00000000 		.word	FanController_DATA_SEND_ISR
 717 00fc 00000000 		.word	FanController_PID_CONTROL_ISR
 718              		.cfi_endproc
 719              	.LFE4:
 720              		.size	FanController_Init, .-FanController_Init
 721              		.section	.text.FanController_Start,"ax",%progbits
 722              		.align	2
 723              		.global	FanController_Start
 724              		.code	16
 725              		.thumb_func
 726              		.type	FanController_Start, %function
 727              	FanController_Start:
 728              	.LFB2:
 133:Generated_Source\PSoC4/FanController.c ****     /* If not already initialized, then initialize hardware and variables */
 729              		.loc 1 133 0
 730              		.cfi_startproc
 731              		@ args = 0, pretend = 0, frame = 0
 732              		@ frame_needed = 0, uses_anonymous_args = 0
 733 0000 10B5     		push	{r4, lr}
 734              		.cfi_def_cfa_offset 8
 735              		.cfi_offset 4, -8
 736              		.cfi_offset 14, -4
 135:Generated_Source\PSoC4/FanController.c ****     {
 737              		.loc 1 135 0
 738 0002 064B     		ldr	r3, .L56
 739 0004 1B79     		ldrb	r3, [r3, #4]
 740 0006 002B     		cmp	r3, #0
 741 0008 04D1     		bne	.L55
 137:Generated_Source\PSoC4/FanController.c ****         FanController_initVar = 1u;
 742              		.loc 1 137 0
 743 000a FFF7FEFF 		bl	FanController_Init
 744              	.LVL47:
 138:Generated_Source\PSoC4/FanController.c ****     }
 745              		.loc 1 138 0
 746 000e 0122     		movs	r2, #1
 747 0010 024B     		ldr	r3, .L56
 748 0012 1A71     		strb	r2, [r3, #4]
 749              	.L55:
 140:Generated_Source\PSoC4/FanController.c **** }
 750              		.loc 1 140 0
 751 0014 FFF7FEFF 		bl	FanController_Enable
 752              	.LVL48:
 141:Generated_Source\PSoC4/FanController.c **** 
 753              		.loc 1 141 0
ARM GAS  C:\Users\Ade0n\AppData\Local\Temp\ccn6i87z.s 			page 33


 754              		@ sp needed
 755 0018 10BD     		pop	{r4, pc}
 756              	.L57:
 757 001a C046     		.align	2
 758              	.L56:
 759 001c 00000000 		.word	.LANCHOR0
 760              		.cfi_endproc
 761              	.LFE2:
 762              		.size	FanController_Start, .-FanController_Start
 763              		.section	.text.FanController_GetDesiredSpeed,"ax",%progbits
 764              		.align	2
 765              		.global	FanController_GetDesiredSpeed
 766              		.code	16
 767              		.thumb_func
 768              		.type	FanController_GetDesiredSpeed, %function
 769              	FanController_GetDesiredSpeed:
 770              	.LFB18:
1028:Generated_Source\PSoC4/FanController.c **** 
1029:Generated_Source\PSoC4/FanController.c **** 
1030:Generated_Source\PSoC4/FanController.c **** #if (!FanController_IS_MANUAL_MODE)
1031:Generated_Source\PSoC4/FanController.c ****     /******************************************************************************
1032:Generated_Source\PSoC4/FanController.c ****     * Function Name: FanController_GetDesiredSpeed
1033:Generated_Source\PSoC4/FanController.c ****     *******************************************************************************
1034:Generated_Source\PSoC4/FanController.c ****     *
1035:Generated_Source\PSoC4/FanController.c ****     * Summary:
1036:Generated_Source\PSoC4/FanController.c ****     *  Returns the currently desired speed of the selected fan in RPMs in hardware
1037:Generated_Source\PSoC4/FanController.c ****     *  controlled fan mode. This API is not available if firmware controlled fan
1038:Generated_Source\PSoC4/FanController.c ****     *  mode is selected.
1039:Generated_Source\PSoC4/FanController.c ****     *
1040:Generated_Source\PSoC4/FanController.c ****     * Parameters:
1041:Generated_Source\PSoC4/FanController.c ****     *  uint8 fanNumber
1042:Generated_Source\PSoC4/FanController.c ****     *  Valid range is 1-16 and should not exceed the number of fans in the system.
1043:Generated_Source\PSoC4/FanController.c ****     *
1044:Generated_Source\PSoC4/FanController.c ****     * Return:
1045:Generated_Source\PSoC4/FanController.c ****     *  uint16 desiredSpeed: Current desired speed for selected fan.
1046:Generated_Source\PSoC4/FanController.c ****     *
1047:Generated_Source\PSoC4/FanController.c ****     * Side Effects:
1048:Generated_Source\PSoC4/FanController.c ****     *  None
1049:Generated_Source\PSoC4/FanController.c ****     *
1050:Generated_Source\PSoC4/FanController.c ****     ******************************************************************************/
1051:Generated_Source\PSoC4/FanController.c ****     uint16 FanController_GetDesiredSpeed(uint8 fanNumber) 
1052:Generated_Source\PSoC4/FanController.c ****     {
 771              		.loc 1 1052 0
 772              		.cfi_startproc
 773              		@ args = 0, pretend = 0, frame = 0
 774              		@ frame_needed = 0, uses_anonymous_args = 0
 775              		@ link register save eliminated.
 776              	.LVL49:
1053:Generated_Source\PSoC4/FanController.c ****         return(FanController_desiredFansSpeed[fanNumber - 1u]);
 777              		.loc 1 1053 0
 778 0000 0138     		subs	r0, r0, #1
 779              	.LVL50:
 780 0002 4000     		lsls	r0, r0, #1
 781 0004 014B     		ldr	r3, .L59
 782 0006 185A     		ldrh	r0, [r3, r0]
1054:Generated_Source\PSoC4/FanController.c ****     }
 783              		.loc 1 1054 0
ARM GAS  C:\Users\Ade0n\AppData\Local\Temp\ccn6i87z.s 			page 34


 784              		@ sp needed
 785 0008 7047     		bx	lr
 786              	.L60:
 787 000a C046     		.align	2
 788              	.L59:
 789 000c 00000000 		.word	FanController_desiredFansSpeed
 790              		.cfi_endproc
 791              	.LFE18:
 792              		.size	FanController_GetDesiredSpeed, .-FanController_GetDesiredSpeed
 793              		.section	.text.FanController_GetActualSpeed,"ax",%progbits
 794              		.align	2
 795              		.global	FanController_GetActualSpeed
 796              		.code	16
 797              		.thumb_func
 798              		.type	FanController_GetActualSpeed, %function
 799              	FanController_GetActualSpeed:
 800              	.LFB19:
1055:Generated_Source\PSoC4/FanController.c **** 
1056:Generated_Source\PSoC4/FanController.c **** #endif /* (!FanController_IS_MANUAL_MODE) */
1057:Generated_Source\PSoC4/FanController.c **** 
1058:Generated_Source\PSoC4/FanController.c **** 
1059:Generated_Source\PSoC4/FanController.c **** /******************************************************************************
1060:Generated_Source\PSoC4/FanController.c **** * Function Name: FanController_GetActualSpeed
1061:Generated_Source\PSoC4/FanController.c **** *******************************************************************************
1062:Generated_Source\PSoC4/FanController.c **** *
1063:Generated_Source\PSoC4/FanController.c **** * Summary:
1064:Generated_Source\PSoC4/FanController.c **** *  Returns the actual measured RPM of selected fan. This function should be 
1065:Generated_Source\PSoC4/FanController.c **** *  called first time in the design only after the requested fan is made a full
1066:Generated_Source\PSoC4/FanController.c **** *  rotation. This can be ensured by calling the function after End-of-Cycle 
1067:Generated_Source\PSoC4/FanController.c **** *  (eoc) pulse generation.
1068:Generated_Source\PSoC4/FanController.c **** *
1069:Generated_Source\PSoC4/FanController.c **** * Parameters:
1070:Generated_Source\PSoC4/FanController.c **** *  uint8 fanNumber
1071:Generated_Source\PSoC4/FanController.c **** *  Valid range is 1-16 and should not exceed the number of fans in the system.
1072:Generated_Source\PSoC4/FanController.c **** *
1073:Generated_Source\PSoC4/FanController.c **** * Return:
1074:Generated_Source\PSoC4/FanController.c **** *  uint16 actualSpeed: Actual measured RPM of target fan.
1075:Generated_Source\PSoC4/FanController.c **** *
1076:Generated_Source\PSoC4/FanController.c **** * Side Effects:
1077:Generated_Source\PSoC4/FanController.c **** *  None
1078:Generated_Source\PSoC4/FanController.c **** *
1079:Generated_Source\PSoC4/FanController.c **** ****************************************************************************/
1080:Generated_Source\PSoC4/FanController.c **** uint16 FanController_GetActualSpeed(uint8 fanNumber) 
1081:Generated_Source\PSoC4/FanController.c **** {
 801              		.loc 1 1081 0
 802              		.cfi_startproc
 803              		@ args = 0, pretend = 0, frame = 0
 804              		@ frame_needed = 0, uses_anonymous_args = 0
 805              	.LVL51:
 806 0000 10B5     		push	{r4, lr}
 807              		.cfi_def_cfa_offset 8
 808              		.cfi_offset 4, -8
 809              		.cfi_offset 14, -4
 810              	.LVL52:
1082:Generated_Source\PSoC4/FanController.c ****     uint16 actualSpeed = 0u;
1083:Generated_Source\PSoC4/FanController.c **** 
1084:Generated_Source\PSoC4/FanController.c ****     if(fanNumber <= FanController_NUMBER_OF_FANS)
ARM GAS  C:\Users\Ade0n\AppData\Local\Temp\ccn6i87z.s 			page 35


 811              		.loc 1 1084 0
 812 0002 0128     		cmp	r0, #1
 813 0004 0AD8     		bhi	.L63
1085:Generated_Source\PSoC4/FanController.c ****     {
1086:Generated_Source\PSoC4/FanController.c ****         #if(CY_PSOC3)
1087:Generated_Source\PSoC4/FanController.c **** 
1088:Generated_Source\PSoC4/FanController.c ****             if(0u != (FanController_DMA_STATUS_REG & FanController_DMA1))
1089:Generated_Source\PSoC4/FanController.c ****             {
1090:Generated_Source\PSoC4/FanController.c ****                 /* If DMA writes to actualPeriodDma1 (DMA1 state) then read
1091:Generated_Source\PSoC4/FanController.c ****                 * actualPeriodDma2.
1092:Generated_Source\PSoC4/FanController.c ****                 */
1093:Generated_Source\PSoC4/FanController.c ****                 if(FanController_fanControl.actualPeriodDma2[fanNumber - 1u] != 0u)
1094:Generated_Source\PSoC4/FanController.c ****                 {
1095:Generated_Source\PSoC4/FanController.c ****                     /* Calculate RPM from value measured by tachometer counter */
1096:Generated_Source\PSoC4/FanController.c ****                     actualSpeed = (uint16) (FanController_RPM_PERIOD_CONV_FACTOR /
1097:Generated_Source\PSoC4/FanController.c ****                         (uint32) FanController_fanControl.actualPeriodDma2[fanNumber - 1u]);
1098:Generated_Source\PSoC4/FanController.c ****                 }
1099:Generated_Source\PSoC4/FanController.c ****             }
1100:Generated_Source\PSoC4/FanController.c ****             else
1101:Generated_Source\PSoC4/FanController.c ****             {
1102:Generated_Source\PSoC4/FanController.c ****                 /* If DMA writes to actualPeriodDma2 (DMA2 state) then read
1103:Generated_Source\PSoC4/FanController.c ****                 * actualPeriodDma1.
1104:Generated_Source\PSoC4/FanController.c ****                 */
1105:Generated_Source\PSoC4/FanController.c ****                 if(FanController_fanControl.actualPeriodDma1[fanNumber - 1u] != 0u)
1106:Generated_Source\PSoC4/FanController.c ****                 {
1107:Generated_Source\PSoC4/FanController.c ****                     /* Calculate RPM from value measured bu tachometer counter */
1108:Generated_Source\PSoC4/FanController.c ****                     actualSpeed = (uint16) (FanController_RPM_PERIOD_CONV_FACTOR /
1109:Generated_Source\PSoC4/FanController.c ****                         (uint32) FanController_fanControl.actualPeriodDma1[fanNumber - 1u]);
1110:Generated_Source\PSoC4/FanController.c ****                 }
1111:Generated_Source\PSoC4/FanController.c ****             }
1112:Generated_Source\PSoC4/FanController.c **** 
1113:Generated_Source\PSoC4/FanController.c ****         #else
1114:Generated_Source\PSoC4/FanController.c **** 
1115:Generated_Source\PSoC4/FanController.c ****             if(FanController_fanControl.actualPeriod[fanNumber - 1u] != 0u)
 814              		.loc 1 1115 0
 815 0006 0138     		subs	r0, r0, #1
 816              	.LVL53:
 817 0008 4000     		lsls	r0, r0, #1
 818 000a 064B     		ldr	r3, .L65
 819 000c C15A     		ldrh	r1, [r0, r3]
 820 000e 0029     		cmp	r1, #0
 821 0010 06D0     		beq	.L64
1116:Generated_Source\PSoC4/FanController.c ****             {
1117:Generated_Source\PSoC4/FanController.c ****                 /* Calculate RPM from value measured by tachometer counter */
1118:Generated_Source\PSoC4/FanController.c ****                 actualSpeed = (uint16) (FanController_RPM_PERIOD_CONV_FACTOR /
 822              		.loc 1 1118 0
 823 0012 0548     		ldr	r0, .L65+4
 824 0014 FFF7FEFF 		bl	__aeabi_uidiv
 825              	.LVL54:
 826 0018 80B2     		uxth	r0, r0
 827              	.LVL55:
 828 001a 02E0     		b	.L62
 829              	.LVL56:
 830              	.L63:
1082:Generated_Source\PSoC4/FanController.c **** 
 831              		.loc 1 1082 0
 832 001c 0020     		movs	r0, #0
ARM GAS  C:\Users\Ade0n\AppData\Local\Temp\ccn6i87z.s 			page 36


 833              	.LVL57:
 834 001e 00E0     		b	.L62
 835              	.L64:
 836 0020 0020     		movs	r0, #0
 837              	.LVL58:
 838              	.L62:
1119:Generated_Source\PSoC4/FanController.c ****                     (uint32) FanController_fanControl.actualPeriod[fanNumber - 1u]);
1120:Generated_Source\PSoC4/FanController.c ****             }
1121:Generated_Source\PSoC4/FanController.c **** 
1122:Generated_Source\PSoC4/FanController.c ****         #endif /* (CY_PSOC3) */
1123:Generated_Source\PSoC4/FanController.c ****     }
1124:Generated_Source\PSoC4/FanController.c **** 
1125:Generated_Source\PSoC4/FanController.c ****     return(actualSpeed);
1126:Generated_Source\PSoC4/FanController.c **** }
 839              		.loc 1 1126 0
 840              		@ sp needed
 841 0022 10BD     		pop	{r4, pc}
 842              	.L66:
 843              		.align	2
 844              	.L65:
 845 0024 00000000 		.word	FanController_fanControl
 846 0028 80C3C901 		.word	30000000
 847              		.cfi_endproc
 848              	.LFE19:
 849              		.size	FanController_GetActualSpeed, .-FanController_GetActualSpeed
 850              		.section	.text.FanController_SetSaturation,"ax",%progbits
 851              		.align	2
 852              		.global	FanController_SetSaturation
 853              		.code	16
 854              		.thumb_func
 855              		.type	FanController_SetSaturation, %function
 856              	FanController_SetSaturation:
 857              	.LFB20:
1127:Generated_Source\PSoC4/FanController.c **** 
1128:Generated_Source\PSoC4/FanController.c **** 
1129:Generated_Source\PSoC4/FanController.c **** #if (FanController_IS_AUTO_HARDWARE_MODE)
1130:Generated_Source\PSoC4/FanController.c ****     /******************************************************************************
1131:Generated_Source\PSoC4/FanController.c ****     * Function Name: FanController_OverrideAutomaticControl
1132:Generated_Source\PSoC4/FanController.c ****     *******************************************************************************
1133:Generated_Source\PSoC4/FanController.c ****     *
1134:Generated_Source\PSoC4/FanController.c ****     * Summary:
1135:Generated_Source\PSoC4/FanController.c ****     *  Allows firmware to take over fan control when hardware controlled fan mode
1136:Generated_Source\PSoC4/FanController.c ****     *  is enabled. That is, directly control fan speed using the SetDutyCycle() API.
1137:Generated_Source\PSoC4/FanController.c ****     *  This API is not available if firmware controlled fan mode is selected.
1138:Generated_Source\PSoC4/FanController.c ****     *
1139:Generated_Source\PSoC4/FanController.c ****     * Parameters:
1140:Generated_Source\PSoC4/FanController.c ****     *  uint8 override
1141:Generated_Source\PSoC4/FanController.c ****     *   non-zero = firmware assumes control of fans
1142:Generated_Source\PSoC4/FanController.c ****     *   zero     = hardware assumes control of fans
1143:Generated_Source\PSoC4/FanController.c ****     *
1144:Generated_Source\PSoC4/FanController.c ****     * Return:
1145:Generated_Source\PSoC4/FanController.c ****     *  None
1146:Generated_Source\PSoC4/FanController.c ****     *
1147:Generated_Source\PSoC4/FanController.c ****     * Side Effects:
1148:Generated_Source\PSoC4/FanController.c ****     *  None
1149:Generated_Source\PSoC4/FanController.c ****     ******************************************************************************/
1150:Generated_Source\PSoC4/FanController.c **** 
ARM GAS  C:\Users\Ade0n\AppData\Local\Temp\ccn6i87z.s 			page 37


1151:Generated_Source\PSoC4/FanController.c ****     void FanController_OverrideAutomaticControl(uint8 override)
1152:Generated_Source\PSoC4/FanController.c ****                                 
1153:Generated_Source\PSoC4/FanController.c ****     {
1154:Generated_Source\PSoC4/FanController.c ****         uint8 interruptState = CyEnterCriticalSection();
1155:Generated_Source\PSoC4/FanController.c **** 
1156:Generated_Source\PSoC4/FanController.c ****         if(override != 0u)
1157:Generated_Source\PSoC4/FanController.c ****         {
1158:Generated_Source\PSoC4/FanController.c ****             FanController_GLOBAL_CONTROL_REG |= FanController_OVERRIDE;
1159:Generated_Source\PSoC4/FanController.c ****         }
1160:Generated_Source\PSoC4/FanController.c ****         else
1161:Generated_Source\PSoC4/FanController.c ****         {
1162:Generated_Source\PSoC4/FanController.c ****             FanController_GLOBAL_CONTROL_REG &= ((uint8) ~FanController_OVERRIDE);
1163:Generated_Source\PSoC4/FanController.c ****         }
1164:Generated_Source\PSoC4/FanController.c **** 
1165:Generated_Source\PSoC4/FanController.c ****         CyExitCriticalSection(interruptState);
1166:Generated_Source\PSoC4/FanController.c ****     }
1167:Generated_Source\PSoC4/FanController.c **** 
1168:Generated_Source\PSoC4/FanController.c **** #endif /* (FanController_IS_AUTO_HARDWARE_MODE) */
1169:Generated_Source\PSoC4/FanController.c **** 
1170:Generated_Source\PSoC4/FanController.c **** 
1171:Generated_Source\PSoC4/FanController.c **** #if(FanController_IS_AUTO_FIRMWARE_MODE)
1172:Generated_Source\PSoC4/FanController.c ****     /******************************************************************************
1173:Generated_Source\PSoC4/FanController.c ****     * Function Name: FanController_SetSaturation
1174:Generated_Source\PSoC4/FanController.c ****     *******************************************************************************
1175:Generated_Source\PSoC4/FanController.c ****     *
1176:Generated_Source\PSoC4/FanController.c ****     * Summary:
1177:Generated_Source\PSoC4/FanController.c ****     *  Changes the PID controller output saturation. This bounds the output PWM to
1178:Generated_Source\PSoC4/FanController.c ****     *  the fan and prevents what is known as integrator windup.
1179:Generated_Source\PSoC4/FanController.c ****     *
1180:Generated_Source\PSoC4/FanController.c ****     * Parameters:
1181:Generated_Source\PSoC4/FanController.c ****     *  uint8 fanNum : Valid range is 1..16 but should not exceed the number of fans
1182:Generated_Source\PSoC4/FanController.c ****     *                 in the system.
1183:Generated_Source\PSoC4/FanController.c ****     *  uint16 satH  : The upper threshold for saturation. Valid range is 0 to
1184:Generated_Source\PSoC4/FanController.c ****     *                 65535. A value of 0 represents 0% of the duty cycle. A value
1185:Generated_Source\PSoC4/FanController.c ****     *                 of 65535 represents 100% duty cycle.
1186:Generated_Source\PSoC4/FanController.c ****     *
1187:Generated_Source\PSoC4/FanController.c ****     *  uint16 satL  : The lower threshold for saturation. Valid range is 0 to
1188:Generated_Source\PSoC4/FanController.c ****     *                 65535. A value of 0 represents 0% of the duty cycle. A value
1189:Generated_Source\PSoC4/FanController.c ****     *                 of 65535 represents 100% duty cycle.
1190:Generated_Source\PSoC4/FanController.c ****     *
1191:Generated_Source\PSoC4/FanController.c ****     * Return:
1192:Generated_Source\PSoC4/FanController.c ****     *  None
1193:Generated_Source\PSoC4/FanController.c ****     *
1194:Generated_Source\PSoC4/FanController.c ****     * Side Effects:
1195:Generated_Source\PSoC4/FanController.c ****     *  None
1196:Generated_Source\PSoC4/FanController.c ****     *
1197:Generated_Source\PSoC4/FanController.c ****     ****************************************************************************/
1198:Generated_Source\PSoC4/FanController.c ****     void FanController_SetSaturation(uint8 fanNum, uint16 satH, uint16 satL)
1199:Generated_Source\PSoC4/FanController.c ****                                                     
1200:Generated_Source\PSoC4/FanController.c ****     {
 858              		.loc 1 1200 0
 859              		.cfi_startproc
 860              		@ args = 0, pretend = 0, frame = 0
 861              		@ frame_needed = 0, uses_anonymous_args = 0
 862              	.LVL59:
 863 0000 70B5     		push	{r4, r5, r6, lr}
 864              		.cfi_def_cfa_offset 16
ARM GAS  C:\Users\Ade0n\AppData\Local\Temp\ccn6i87z.s 			page 38


 865              		.cfi_offset 4, -16
 866              		.cfi_offset 5, -12
 867              		.cfi_offset 6, -8
 868              		.cfi_offset 14, -4
 869 0002 0400     		movs	r4, r0
1201:Generated_Source\PSoC4/FanController.c ****         uint8 interruptState;
1202:Generated_Source\PSoC4/FanController.c ****         uint32 tmpOutL;
1203:Generated_Source\PSoC4/FanController.c ****         uint32 tmpOutH;
1204:Generated_Source\PSoC4/FanController.c **** 
1205:Generated_Source\PSoC4/FanController.c ****         if((fanNum - 1u) < FanController_NUMBER_OF_FANS)
 870              		.loc 1 1205 0
 871 0004 0128     		cmp	r0, #1
 872 0006 0FD1     		bne	.L67
1206:Generated_Source\PSoC4/FanController.c ****         {
1207:Generated_Source\PSoC4/FanController.c ****             /* Calculate PID Constants for fan and store them into temporary variables to
1208:Generated_Source\PSoC4/FanController.c ****             * be later written to PID vars. This is done so to not disable interrupt for a
1209:Generated_Source\PSoC4/FanController.c ****             * long time.
1210:Generated_Source\PSoC4/FanController.c ****             */
1211:Generated_Source\PSoC4/FanController.c ****             tmpOutH = ((FanController_PWM_PERIOD * ((uint32) (((uint32) 1u) << FanController_PID_PO
 873              		.loc 1 1211 0
 874 0008 0B01     		lsls	r3, r1, #4
 875 000a 591A     		subs	r1, r3, r1
 876              	.LVL60:
 877 000c 8D02     		lsls	r5, r1, #10
 878              	.LVL61:
1212:Generated_Source\PSoC4/FanController.c ****                                            FanController_MAX_GAIN) * satH;
1213:Generated_Source\PSoC4/FanController.c ****             tmpOutL = ((FanController_PWM_PERIOD * ((uint32) (((uint32) 1u) << FanController_PID_PO
 879              		.loc 1 1213 0
 880 000e 1301     		lsls	r3, r2, #4
 881 0010 9A1A     		subs	r2, r3, r2
 882              	.LVL62:
 883 0012 9602     		lsls	r6, r2, #10
 884              	.LVL63:
1214:Generated_Source\PSoC4/FanController.c ****                                            FanController_MAX_GAIN) * satL;
1215:Generated_Source\PSoC4/FanController.c **** 
1216:Generated_Source\PSoC4/FanController.c ****             /* Disable interrupts while updating PID constants */
1217:Generated_Source\PSoC4/FanController.c ****             interruptState = CyEnterCriticalSection();
 885              		.loc 1 1217 0
 886 0014 FFF7FEFF 		bl	CyEnterCriticalSection
 887              	.LVL64:
1218:Generated_Source\PSoC4/FanController.c **** 
1219:Generated_Source\PSoC4/FanController.c ****             FanController_outputSatH[fanNum - 1u] = tmpOutH;
 888              		.loc 1 1219 0
 889 0018 013C     		subs	r4, r4, #1
 890 001a A400     		lsls	r4, r4, #2
 891 001c 034B     		ldr	r3, .L69
 892 001e E550     		str	r5, [r4, r3]
1220:Generated_Source\PSoC4/FanController.c ****             FanController_outputSatL[fanNum - 1u] = tmpOutL;
 893              		.loc 1 1220 0
 894 0020 034B     		ldr	r3, .L69+4
 895 0022 E650     		str	r6, [r4, r3]
1221:Generated_Source\PSoC4/FanController.c **** 
1222:Generated_Source\PSoC4/FanController.c ****             CyExitCriticalSection(interruptState);
 896              		.loc 1 1222 0
 897 0024 FFF7FEFF 		bl	CyExitCriticalSection
 898              	.LVL65:
 899              	.L67:
ARM GAS  C:\Users\Ade0n\AppData\Local\Temp\ccn6i87z.s 			page 39


1223:Generated_Source\PSoC4/FanController.c ****         }
1224:Generated_Source\PSoC4/FanController.c ****     }
 900              		.loc 1 1224 0
 901              		@ sp needed
 902 0028 70BD     		pop	{r4, r5, r6, pc}
 903              	.L70:
 904 002a C046     		.align	2
 905              	.L69:
 906 002c 00000000 		.word	FanController_outputSatH
 907 0030 00000000 		.word	FanController_outputSatL
 908              		.cfi_endproc
 909              	.LFE20:
 910              		.size	FanController_SetSaturation, .-FanController_SetSaturation
 911              		.global	__aeabi_idiv
 912              		.section	.text.FanController_SetPID,"ax",%progbits
 913              		.align	2
 914              		.global	FanController_SetPID
 915              		.code	16
 916              		.thumb_func
 917              		.type	FanController_SetPID, %function
 918              	FanController_SetPID:
 919              	.LFB21:
1225:Generated_Source\PSoC4/FanController.c **** 
1226:Generated_Source\PSoC4/FanController.c **** 
1227:Generated_Source\PSoC4/FanController.c ****     /******************************************************************************
1228:Generated_Source\PSoC4/FanController.c ****     * Function Name: FanController_SetPID
1229:Generated_Source\PSoC4/FanController.c ****     *******************************************************************************
1230:Generated_Source\PSoC4/FanController.c ****     *
1231:Generated_Source\PSoC4/FanController.c ****     * Summary:
1232:Generated_Source\PSoC4/FanController.c ****     *  Changes the PID controller coefficients for the controlled fan. The
1233:Generated_Source\PSoC4/FanController.c ****     *  coefficients are integers that are proportional to the gain.
1234:Generated_Source\PSoC4/FanController.c ****     *
1235:Generated_Source\PSoC4/FanController.c ****     * Parameters:
1236:Generated_Source\PSoC4/FanController.c ****     *  uint8 fanNum : Valid range is 1..16 but should not exceed the number of fans
1237:Generated_Source\PSoC4/FanController.c ****     *                 in the system.
1238:Generated_Source\PSoC4/FanController.c ****     *  uint16 kp    : Proportional gain. Valid range is 0 to 65535. A value of 0
1239:Generated_Source\PSoC4/FanController.c ****     *                 represents 0% gain. A value of 65535 represents 100% gain.
1240:Generated_Source\PSoC4/FanController.c ****     *
1241:Generated_Source\PSoC4/FanController.c ****     *  uint16 ki    : Integral gain. Valid range is 0 to 65535. A value of 0
1242:Generated_Source\PSoC4/FanController.c ****     *                 represents 0% gain. A value of 65535 represents 100% gain.
1243:Generated_Source\PSoC4/FanController.c ****     *
1244:Generated_Source\PSoC4/FanController.c ****     *  uint16 kd    : Derivative gain. Valid range is 0 to 65535. A value of 0
1245:Generated_Source\PSoC4/FanController.c ****     *                 represents 0% gain. A value of 65535 represents 100% gain.
1246:Generated_Source\PSoC4/FanController.c ****     *
1247:Generated_Source\PSoC4/FanController.c ****     * Return:
1248:Generated_Source\PSoC4/FanController.c ****     *  None
1249:Generated_Source\PSoC4/FanController.c ****     *
1250:Generated_Source\PSoC4/FanController.c ****     * Side Effects:
1251:Generated_Source\PSoC4/FanController.c ****     *  None
1252:Generated_Source\PSoC4/FanController.c ****     *
1253:Generated_Source\PSoC4/FanController.c ****     ****************************************************************************/
1254:Generated_Source\PSoC4/FanController.c ****     void FanController_SetPID(uint8 fanNum, uint16 kp, uint16 ki, uint16 kd)
1255:Generated_Source\PSoC4/FanController.c ****                                                                         
1256:Generated_Source\PSoC4/FanController.c ****     {
 920              		.loc 1 1256 0
 921              		.cfi_startproc
 922              		@ args = 0, pretend = 0, frame = 0
ARM GAS  C:\Users\Ade0n\AppData\Local\Temp\ccn6i87z.s 			page 40


 923              		@ frame_needed = 0, uses_anonymous_args = 0
 924              	.LVL66:
 925 0000 F8B5     		push	{r3, r4, r5, r6, r7, lr}
 926              		.cfi_def_cfa_offset 24
 927              		.cfi_offset 3, -24
 928              		.cfi_offset 4, -20
 929              		.cfi_offset 5, -16
 930              		.cfi_offset 6, -12
 931              		.cfi_offset 7, -8
 932              		.cfi_offset 14, -4
 933 0002 0400     		movs	r4, r0
 934 0004 0E00     		movs	r6, r1
 935 0006 1D00     		movs	r5, r3
1257:Generated_Source\PSoC4/FanController.c ****         uint8 interruptState;
1258:Generated_Source\PSoC4/FanController.c ****         /* Variables for temporary storing of a calculated PID constants */
1259:Generated_Source\PSoC4/FanController.c ****         int16 tmpA1;
1260:Generated_Source\PSoC4/FanController.c ****         int16 tmpA2;
1261:Generated_Source\PSoC4/FanController.c ****         int16 tmpA3;
1262:Generated_Source\PSoC4/FanController.c **** 
1263:Generated_Source\PSoC4/FanController.c ****         if((fanNum - 1u) < FanController_NUMBER_OF_FANS)
 936              		.loc 1 1263 0
 937 0008 0128     		cmp	r0, #1
 938 000a 20D1     		bne	.L71
1264:Generated_Source\PSoC4/FanController.c ****         {
1265:Generated_Source\PSoC4/FanController.c ****             /* Calculate PID Constants for fan and store them into temporary variables to
1266:Generated_Source\PSoC4/FanController.c ****             * be later written to PID vars. This is done so to not disable interrupt for a
1267:Generated_Source\PSoC4/FanController.c ****             * long time.
1268:Generated_Source\PSoC4/FanController.c ****             */
1269:Generated_Source\PSoC4/FanController.c ****             tmpA1 = (int16) ((((int32) kp + (int32) ki + (int32) kd) * ((int32) FanController_GAIN_
 939              		.loc 1 1269 0
 940 000c 8818     		adds	r0, r1, r2
 941              	.LVL67:
 942 000e C018     		adds	r0, r0, r3
 943 0010 0003     		lsls	r0, r0, #12
 944 0012 0F49     		ldr	r1, .L73
 945              	.LVL68:
 946 0014 FFF7FEFF 		bl	__aeabi_idiv
 947              	.LVL69:
 948 0018 07B2     		sxth	r7, r0
 949              	.LVL70:
1270:Generated_Source\PSoC4/FanController.c ****                     (int32) FanController_MAX_GAIN);
1271:Generated_Source\PSoC4/FanController.c ****             tmpA2 = (int16) (((-((int32) kp + (2 * (int32) kd))) * ((int32) FanController_GAIN_MULT
 950              		.loc 1 1271 0
 951 001a 6B00     		lsls	r3, r5, #1
 952 001c F618     		adds	r6, r6, r3
 953 001e 3305     		lsls	r3, r6, #20
 954 0020 9E1B     		subs	r6, r3, r6
 955 0022 3003     		lsls	r0, r6, #12
 956 0024 0A49     		ldr	r1, .L73
 957 0026 FFF7FEFF 		bl	__aeabi_idiv
 958              	.LVL71:
 959 002a 06B2     		sxth	r6, r0
 960              	.LVL72:
1272:Generated_Source\PSoC4/FanController.c ****                     (int32) FanController_MAX_GAIN);
1273:Generated_Source\PSoC4/FanController.c ****             tmpA3 = (int16) ((((int32) kd) * ((int32) FanController_GAIN_MULTIPLIER )) /
 961              		.loc 1 1273 0
 962 002c 2803     		lsls	r0, r5, #12
ARM GAS  C:\Users\Ade0n\AppData\Local\Temp\ccn6i87z.s 			page 41


 963 002e 0849     		ldr	r1, .L73
 964 0030 FFF7FEFF 		bl	__aeabi_idiv
 965              	.LVL73:
 966 0034 05B2     		sxth	r5, r0
 967              	.LVL74:
1274:Generated_Source\PSoC4/FanController.c ****                     (int32) FanController_MAX_GAIN);
1275:Generated_Source\PSoC4/FanController.c **** 
1276:Generated_Source\PSoC4/FanController.c ****             /* Disable interrupts while updating PID constants */
1277:Generated_Source\PSoC4/FanController.c ****             interruptState = CyEnterCriticalSection();
 968              		.loc 1 1277 0
 969 0036 FFF7FEFF 		bl	CyEnterCriticalSection
 970              	.LVL75:
1278:Generated_Source\PSoC4/FanController.c **** 
1279:Generated_Source\PSoC4/FanController.c ****             FanController_pidA1[fanNum - 1u] = tmpA1;
 971              		.loc 1 1279 0
 972 003a 013C     		subs	r4, r4, #1
 973 003c 6400     		lsls	r4, r4, #1
 974 003e 054B     		ldr	r3, .L73+4
 975 0040 E752     		strh	r7, [r4, r3]
1280:Generated_Source\PSoC4/FanController.c ****             FanController_pidA2[fanNum - 1u] = tmpA2;
 976              		.loc 1 1280 0
 977 0042 054B     		ldr	r3, .L73+8
 978 0044 E652     		strh	r6, [r4, r3]
1281:Generated_Source\PSoC4/FanController.c ****             FanController_pidA3[fanNum - 1u] = tmpA3;
 979              		.loc 1 1281 0
 980 0046 054B     		ldr	r3, .L73+12
 981 0048 E552     		strh	r5, [r4, r3]
1282:Generated_Source\PSoC4/FanController.c **** 
1283:Generated_Source\PSoC4/FanController.c ****             CyExitCriticalSection(interruptState);
 982              		.loc 1 1283 0
 983 004a FFF7FEFF 		bl	CyExitCriticalSection
 984              	.LVL76:
 985              	.L71:
1284:Generated_Source\PSoC4/FanController.c ****         }
1285:Generated_Source\PSoC4/FanController.c ****     }
 986              		.loc 1 1285 0
 987              		@ sp needed
 988 004e F8BD     		pop	{r3, r4, r5, r6, r7, pc}
 989              	.L74:
 990              		.align	2
 991              	.L73:
 992 0050 FFFF0000 		.word	65535
 993 0054 00000000 		.word	FanController_pidA1
 994 0058 00000000 		.word	FanController_pidA2
 995 005c 00000000 		.word	FanController_pidA3
 996              		.cfi_endproc
 997              	.LFE21:
 998              		.size	FanController_SetPID, .-FanController_SetPID
 999              		.global	FanController_fanProperties
 1000              		.comm	FanController_fanControl,2,4
 1001              		.global	FanController_fanPwmInitRegs
 1002              		.global	FanController_fanDriverRegs
 1003              		.comm	FanController_desiredFansSpeed,2,4
 1004              		.comm	FanController_outputSatH,4,4
 1005              		.comm	FanController_outputSatL,4,4
 1006              		.comm	FanController_pidA3,2,4
 1007              		.comm	FanController_pidA2,2,4
ARM GAS  C:\Users\Ade0n\AppData\Local\Temp\ccn6i87z.s 			page 42


 1008              		.comm	FanController_pidA1,2,4
 1009              		.global	FanController_stallStatus
 1010              		.global	FanController_alertMask
 1011              		.global	FanController_initVar
 1012              		.section	.rodata
 1013              		.align	2
 1014              		.type	FanController_fanPwmInitRegs, %object
 1015              		.size	FanController_fanPwmInitRegs, 4
 1016              	FanController_fanPwmInitRegs:
 1017 0000 54012040 		.word	1075839316
 1018              		.type	FanController_fanDriverRegs, %object
 1019              		.size	FanController_fanDriverRegs, 4
 1020              	FanController_fanDriverRegs:
 1021 0004 4C012040 		.word	1075839308
 1022              		.data
 1023              		.align	2
 1024              		.set	.LANCHOR1,. + 0
 1025              		.type	FanController_fanProperties, %object
 1026              		.size	FanController_fanProperties, 14
 1027              	FanController_fanProperties:
 1028 0000 9808     		.short	2200
 1029 0002 C012     		.short	4800
 1030 0004 7C15     		.short	5500
 1031 0006 1027     		.short	10000
 1032 0008 AD00     		.short	173
 1033 000a A00F     		.short	4000
 1034 000c 9821     		.short	8600
 1035              		.bss
 1036              		.align	1
 1037              		.set	.LANCHOR0,. + 0
 1038              		.type	FanController_alertMask, %object
 1039              		.size	FanController_alertMask, 2
 1040              	FanController_alertMask:
 1041 0000 0000     		.space	2
 1042              		.type	FanController_stallStatus, %object
 1043              		.size	FanController_stallStatus, 2
 1044              	FanController_stallStatus:
 1045 0002 0000     		.space	2
 1046              		.type	FanController_initVar, %object
 1047              		.size	FanController_initVar, 1
 1048              	FanController_initVar:
 1049 0004 00       		.space	1
 1050              		.text
 1051              	.Letext0:
 1052              		.file 2 "Generated_Source\\PSoC4\\cytypes.h"
 1053              		.file 3 "Generated_Source\\PSoC4\\FanController.h"
 1054              		.file 4 "Generated_Source\\PSoC4\\FanController_FW_PWM1.h"
 1055              		.file 5 "Generated_Source\\PSoC4\\CyLib.h"
 1056              		.file 6 "Generated_Source\\PSoC4\\FanController_DataSend.h"
 1057              		.file 7 "Generated_Source\\PSoC4\\FanController_PID_ISR.h"