ARM GAS  C:\Users\Ade0n\AppData\Local\Temp\ccx18Kxr.s 			page 1


   1              		.syntax unified
   2              		.cpu cortex-m0
   3              		.fpu softvfp
   4              		.eabi_attribute 20, 1
   5              		.eabi_attribute 21, 1
   6              		.eabi_attribute 23, 3
   7              		.eabi_attribute 24, 1
   8              		.eabi_attribute 25, 1
   9              		.eabi_attribute 26, 1
  10              		.eabi_attribute 30, 1
  11              		.eabi_attribute 34, 0
  12              		.eabi_attribute 18, 4
  13              		.thumb
  14              		.syntax unified
  15              		.file	"I2C_EZI2C.c"
  16              		.text
  17              	.Ltext0:
  18              		.cfi_sections	.debug_frame
  19              		.section	.text.I2C_EzI2CInit,"ax",%progbits
  20              		.align	2
  21              		.global	I2C_EzI2CInit
  22              		.code	16
  23              		.thumb_func
  24              		.type	I2C_EzI2CInit, %function
  25              	I2C_EzI2CInit:
  26              	.LFB2:
  27              		.file 1 "Generated_Source\\PSoC4\\I2C_EZI2C.c"
   1:Generated_Source\PSoC4/I2C_EZI2C.c **** /***************************************************************************//**
   2:Generated_Source\PSoC4/I2C_EZI2C.c **** * \file I2C_EZI2C.c
   3:Generated_Source\PSoC4/I2C_EZI2C.c **** * \version 4.0
   4:Generated_Source\PSoC4/I2C_EZI2C.c **** *
   5:Generated_Source\PSoC4/I2C_EZI2C.c **** * \brief
   6:Generated_Source\PSoC4/I2C_EZI2C.c **** *  This file provides the source code to the API for the SCB Component in
   7:Generated_Source\PSoC4/I2C_EZI2C.c **** *  EZI2C mode.
   8:Generated_Source\PSoC4/I2C_EZI2C.c **** *
   9:Generated_Source\PSoC4/I2C_EZI2C.c **** * Note:
  10:Generated_Source\PSoC4/I2C_EZI2C.c **** *
  11:Generated_Source\PSoC4/I2C_EZI2C.c **** *******************************************************************************
  12:Generated_Source\PSoC4/I2C_EZI2C.c **** * \copyright
  13:Generated_Source\PSoC4/I2C_EZI2C.c **** * Copyright 2013-2017, Cypress Semiconductor Corporation.  All rights reserved.
  14:Generated_Source\PSoC4/I2C_EZI2C.c **** * You may use this file only in accordance with the license, terms, conditions,
  15:Generated_Source\PSoC4/I2C_EZI2C.c **** * disclaimers, and limitations in the end user license agreement accompanying
  16:Generated_Source\PSoC4/I2C_EZI2C.c **** * the software package with which this file was provided.
  17:Generated_Source\PSoC4/I2C_EZI2C.c **** *******************************************************************************/
  18:Generated_Source\PSoC4/I2C_EZI2C.c **** 
  19:Generated_Source\PSoC4/I2C_EZI2C.c **** #include "I2C_PVT.h"
  20:Generated_Source\PSoC4/I2C_EZI2C.c **** #include "I2C_EZI2C_PVT.h"
  21:Generated_Source\PSoC4/I2C_EZI2C.c **** 
  22:Generated_Source\PSoC4/I2C_EZI2C.c **** 
  23:Generated_Source\PSoC4/I2C_EZI2C.c **** /***************************************
  24:Generated_Source\PSoC4/I2C_EZI2C.c **** *      EZI2C Private Vars
  25:Generated_Source\PSoC4/I2C_EZI2C.c **** ***************************************/
  26:Generated_Source\PSoC4/I2C_EZI2C.c **** 
  27:Generated_Source\PSoC4/I2C_EZI2C.c **** volatile uint8 I2C_curStatus; /* Status byte */
  28:Generated_Source\PSoC4/I2C_EZI2C.c **** uint8 I2C_fsmState;           /* FSM state   */
  29:Generated_Source\PSoC4/I2C_EZI2C.c **** 
  30:Generated_Source\PSoC4/I2C_EZI2C.c **** /* Variables intended to be used with Buffer 1: Primary slave address */
ARM GAS  C:\Users\Ade0n\AppData\Local\Temp\ccx18Kxr.s 			page 2


  31:Generated_Source\PSoC4/I2C_EZI2C.c **** volatile uint8 * I2C_dataBuffer1; /* Pointer to data buffer 1 */
  32:Generated_Source\PSoC4/I2C_EZI2C.c **** uint16 I2C_bufSizeBuf1;           /* Size of buffer 1 in bytes      */
  33:Generated_Source\PSoC4/I2C_EZI2C.c **** uint16 I2C_protectBuf1;           /* Start index of write protected area buffer 1 */
  34:Generated_Source\PSoC4/I2C_EZI2C.c **** uint8 I2C_offsetBuf1; /* Current offset within buffer 1 */
  35:Generated_Source\PSoC4/I2C_EZI2C.c **** uint16 I2C_indexBuf1;             /* Current index within buffer 1  */
  36:Generated_Source\PSoC4/I2C_EZI2C.c **** 
  37:Generated_Source\PSoC4/I2C_EZI2C.c **** #if(I2C_SECONDARY_ADDRESS_ENABLE_CONST)
  38:Generated_Source\PSoC4/I2C_EZI2C.c ****     uint8 I2C_addrBuf1; /* Primary slave address. Used for software comparison   */
  39:Generated_Source\PSoC4/I2C_EZI2C.c ****     uint8 I2C_addrBuf2; /* Secondary slave address. Used for software comparison */
  40:Generated_Source\PSoC4/I2C_EZI2C.c **** 
  41:Generated_Source\PSoC4/I2C_EZI2C.c ****     /* Variables intended to be used with Buffer 2: Primary slave address */
  42:Generated_Source\PSoC4/I2C_EZI2C.c ****     volatile uint8 * I2C_dataBuffer2; /* Pointer to data buffer 2 */
  43:Generated_Source\PSoC4/I2C_EZI2C.c ****     uint16 I2C_bufSizeBuf2;           /* Size of buffer 2 in bytes */
  44:Generated_Source\PSoC4/I2C_EZI2C.c ****     uint16 I2C_protectBuf2;           /* Start index of write protected area buffer 2 */
  45:Generated_Source\PSoC4/I2C_EZI2C.c ****     uint8 I2C_offsetBuf2; /* Current offset within buffer 2 */
  46:Generated_Source\PSoC4/I2C_EZI2C.c ****     uint16 I2C_indexBuf2;             /* Current index within buffer 2 */
  47:Generated_Source\PSoC4/I2C_EZI2C.c **** #endif /* (I2C_SECONDARY_ADDRESS_ENABLE_CONST) */
  48:Generated_Source\PSoC4/I2C_EZI2C.c **** 
  49:Generated_Source\PSoC4/I2C_EZI2C.c **** 
  50:Generated_Source\PSoC4/I2C_EZI2C.c **** /***************************************
  51:Generated_Source\PSoC4/I2C_EZI2C.c **** *      EZI2C Private Functions
  52:Generated_Source\PSoC4/I2C_EZI2C.c **** ***************************************/
  53:Generated_Source\PSoC4/I2C_EZI2C.c **** 
  54:Generated_Source\PSoC4/I2C_EZI2C.c **** #if(I2C_SECONDARY_ADDRESS_ENABLE_CONST)
  55:Generated_Source\PSoC4/I2C_EZI2C.c ****     static uint32 I2C_EzI2CUpdateRxMatchReg(uint32 addr1, uint32 addr2);
  56:Generated_Source\PSoC4/I2C_EZI2C.c **** #endif /* (I2C_SECONDARY_ADDRESS_ENABLE_CONST) */
  57:Generated_Source\PSoC4/I2C_EZI2C.c **** 
  58:Generated_Source\PSoC4/I2C_EZI2C.c **** #if(I2C_SCB_MODE_UNCONFIG_CONST_CFG)
  59:Generated_Source\PSoC4/I2C_EZI2C.c **** 
  60:Generated_Source\PSoC4/I2C_EZI2C.c ****     /***************************************
  61:Generated_Source\PSoC4/I2C_EZI2C.c ****     *  Configuration Structure Initialization
  62:Generated_Source\PSoC4/I2C_EZI2C.c ****     ***************************************/
  63:Generated_Source\PSoC4/I2C_EZI2C.c **** 
  64:Generated_Source\PSoC4/I2C_EZI2C.c ****     /* Constant configuration of EZI2C */
  65:Generated_Source\PSoC4/I2C_EZI2C.c ****     const I2C_EZI2C_INIT_STRUCT I2C_configEzI2C =
  66:Generated_Source\PSoC4/I2C_EZI2C.c ****     {
  67:Generated_Source\PSoC4/I2C_EZI2C.c ****         I2C_EZI2C_CLOCK_STRETCHING,
  68:Generated_Source\PSoC4/I2C_EZI2C.c ****         I2C_EZI2C_MEDIAN_FILTER_ENABLE,
  69:Generated_Source\PSoC4/I2C_EZI2C.c ****         I2C_EZI2C_NUMBER_OF_ADDRESSES,
  70:Generated_Source\PSoC4/I2C_EZI2C.c ****         I2C_EZI2C_PRIMARY_SLAVE_ADDRESS,
  71:Generated_Source\PSoC4/I2C_EZI2C.c ****         I2C_EZI2C_SECONDARY_SLAVE_ADDRESS,
  72:Generated_Source\PSoC4/I2C_EZI2C.c ****         I2C_EZI2C_SUB_ADDRESS_SIZE,
  73:Generated_Source\PSoC4/I2C_EZI2C.c ****         I2C_EZI2C_WAKE_ENABLE,
  74:Generated_Source\PSoC4/I2C_EZI2C.c ****         I2C_EZI2C_BYTE_MODE_ENABLE
  75:Generated_Source\PSoC4/I2C_EZI2C.c ****     };
  76:Generated_Source\PSoC4/I2C_EZI2C.c **** 
  77:Generated_Source\PSoC4/I2C_EZI2C.c ****     /*******************************************************************************
  78:Generated_Source\PSoC4/I2C_EZI2C.c ****     * Function Name: I2C_EzI2CInit
  79:Generated_Source\PSoC4/I2C_EZI2C.c ****     ****************************************************************************//**
  80:Generated_Source\PSoC4/I2C_EZI2C.c ****     *
  81:Generated_Source\PSoC4/I2C_EZI2C.c ****     *  Configures the I2C for EZI2C operation.
  82:Generated_Source\PSoC4/I2C_EZI2C.c ****     *
  83:Generated_Source\PSoC4/I2C_EZI2C.c ****     *  This function is intended specifically to be used when the I2C 
  84:Generated_Source\PSoC4/I2C_EZI2C.c ****     *  configuration is set to “Unconfigured I2C” in the customizer. 
  85:Generated_Source\PSoC4/I2C_EZI2C.c ****     *  After initializing the I2C in EZI2C mode using this function, 
  86:Generated_Source\PSoC4/I2C_EZI2C.c ****     *  the component can be enabled using the I2C_Start() or 
  87:Generated_Source\PSoC4/I2C_EZI2C.c ****     * I2C_Enable() function.
ARM GAS  C:\Users\Ade0n\AppData\Local\Temp\ccx18Kxr.s 			page 3


  88:Generated_Source\PSoC4/I2C_EZI2C.c ****     *  This function uses a pointer to a structure that provides the configuration 
  89:Generated_Source\PSoC4/I2C_EZI2C.c ****     *  settings. This structure contains the same information that would otherwise 
  90:Generated_Source\PSoC4/I2C_EZI2C.c ****     *  be provided by the customizer settings.
  91:Generated_Source\PSoC4/I2C_EZI2C.c ****     *
  92:Generated_Source\PSoC4/I2C_EZI2C.c ****     * \param config: pointer to a structure that contains the following list of 
  93:Generated_Source\PSoC4/I2C_EZI2C.c ****     *  fields. These fields match the selections available in the customizer. 
  94:Generated_Source\PSoC4/I2C_EZI2C.c ****     *  Refer to the customizer for further description of the settings.
  95:Generated_Source\PSoC4/I2C_EZI2C.c ****     *
  96:Generated_Source\PSoC4/I2C_EZI2C.c ****     *******************************************************************************/
  97:Generated_Source\PSoC4/I2C_EZI2C.c ****     void I2C_EzI2CInit(const I2C_EZI2C_INIT_STRUCT *config)
  98:Generated_Source\PSoC4/I2C_EZI2C.c ****     {
  99:Generated_Source\PSoC4/I2C_EZI2C.c ****         if(NULL == config)
 100:Generated_Source\PSoC4/I2C_EZI2C.c ****         {
 101:Generated_Source\PSoC4/I2C_EZI2C.c ****             CYASSERT(0u != 0u); /* Halt execution due to bad function parameter */
 102:Generated_Source\PSoC4/I2C_EZI2C.c ****         }
 103:Generated_Source\PSoC4/I2C_EZI2C.c ****         else
 104:Generated_Source\PSoC4/I2C_EZI2C.c ****         {
 105:Generated_Source\PSoC4/I2C_EZI2C.c ****             /* Configure pins */
 106:Generated_Source\PSoC4/I2C_EZI2C.c ****             I2C_SetPins(I2C_SCB_MODE_EZI2C, I2C_DUMMY_PARAM,
 107:Generated_Source\PSoC4/I2C_EZI2C.c ****                                                                       I2C_DUMMY_PARAM);
 108:Generated_Source\PSoC4/I2C_EZI2C.c **** 
 109:Generated_Source\PSoC4/I2C_EZI2C.c ****             /* Store internal configuration */
 110:Generated_Source\PSoC4/I2C_EZI2C.c ****             I2C_scbMode       = (uint8) I2C_SCB_MODE_EZI2C;
 111:Generated_Source\PSoC4/I2C_EZI2C.c ****             I2C_scbEnableWake = (uint8) config->enableWake;
 112:Generated_Source\PSoC4/I2C_EZI2C.c ****             I2C_scbEnableIntr = (uint8) I2C_SCB_IRQ_INTERNAL;
 113:Generated_Source\PSoC4/I2C_EZI2C.c **** 
 114:Generated_Source\PSoC4/I2C_EZI2C.c ****             I2C_numberOfAddr  = (uint8) config->numberOfAddresses;
 115:Generated_Source\PSoC4/I2C_EZI2C.c ****             I2C_subAddrSize   = (uint8) config->subAddrSize;
 116:Generated_Source\PSoC4/I2C_EZI2C.c **** 
 117:Generated_Source\PSoC4/I2C_EZI2C.c ****         #if (I2C_CY_SCBIP_V0)
 118:Generated_Source\PSoC4/I2C_EZI2C.c ****             /* Adjust SDA filter settings. Ticket ID#150521 */
 119:Generated_Source\PSoC4/I2C_EZI2C.c ****             I2C_SET_I2C_CFG_SDA_FILT_TRIM(I2C_EC_AM_I2C_CFG_SDA_FILT_TRIM);
 120:Generated_Source\PSoC4/I2C_EZI2C.c ****         #endif /* (I2C_CY_SCBIP_V0) */
 121:Generated_Source\PSoC4/I2C_EZI2C.c **** 
 122:Generated_Source\PSoC4/I2C_EZI2C.c ****             /* Adjust AF and DF filter settings, AF = 1, DF = 0. Ticket ID#176179 */
 123:Generated_Source\PSoC4/I2C_EZI2C.c ****             I2C_I2C_CFG_ANALOG_FITER_ENABLE;
 124:Generated_Source\PSoC4/I2C_EZI2C.c **** 
 125:Generated_Source\PSoC4/I2C_EZI2C.c ****             /* Configure I2C interface */
 126:Generated_Source\PSoC4/I2C_EZI2C.c ****             I2C_CTRL_REG     = I2C_GET_CTRL_BYTE_MODE  (config->enableByteMode)    |
 127:Generated_Source\PSoC4/I2C_EZI2C.c ****                                             I2C_GET_CTRL_ADDR_ACCEPT(config->numberOfAddresses) |
 128:Generated_Source\PSoC4/I2C_EZI2C.c ****                                             I2C_GET_CTRL_EC_AM_MODE (config->enableWake);
 129:Generated_Source\PSoC4/I2C_EZI2C.c **** 
 130:Generated_Source\PSoC4/I2C_EZI2C.c ****             I2C_I2C_CTRL_REG = I2C_EZI2C_CTRL;
 131:Generated_Source\PSoC4/I2C_EZI2C.c **** 
 132:Generated_Source\PSoC4/I2C_EZI2C.c ****             /* Configure RX direction */
 133:Generated_Source\PSoC4/I2C_EZI2C.c ****             I2C_RX_CTRL_REG = I2C_EZI2C_RX_CTRL |
 134:Generated_Source\PSoC4/I2C_EZI2C.c ****                                         I2C_GET_RX_CTRL_MEDIAN(I2C_DIGITAL_FILTER_DISABLE);
 135:Generated_Source\PSoC4/I2C_EZI2C.c ****                                                 ;
 136:Generated_Source\PSoC4/I2C_EZI2C.c ****             I2C_RX_FIFO_CTRL_REG = I2C_CLEAR_REG;
 137:Generated_Source\PSoC4/I2C_EZI2C.c **** 
 138:Generated_Source\PSoC4/I2C_EZI2C.c ****             /* Set default address and mask */
 139:Generated_Source\PSoC4/I2C_EZI2C.c ****             if(I2C_EZI2C_PRIMARY_ADDRESS == config->numberOfAddresses)
 140:Generated_Source\PSoC4/I2C_EZI2C.c ****             {
 141:Generated_Source\PSoC4/I2C_EZI2C.c ****                 I2C_RX_MATCH_REG = I2C_EzI2CUpdateRxMatchReg(config->primarySlaveAddr,
 142:Generated_Source\PSoC4/I2C_EZI2C.c ****                                                                                        config->prim
 143:Generated_Source\PSoC4/I2C_EZI2C.c ****             }
 144:Generated_Source\PSoC4/I2C_EZI2C.c ****             else
ARM GAS  C:\Users\Ade0n\AppData\Local\Temp\ccx18Kxr.s 			page 4


 145:Generated_Source\PSoC4/I2C_EZI2C.c ****             {
 146:Generated_Source\PSoC4/I2C_EZI2C.c ****                 I2C_RX_MATCH_REG = I2C_EzI2CUpdateRxMatchReg(config->primarySlaveAddr,
 147:Generated_Source\PSoC4/I2C_EZI2C.c ****                                                                                        config->seco
 148:Generated_Source\PSoC4/I2C_EZI2C.c ****             }
 149:Generated_Source\PSoC4/I2C_EZI2C.c **** 
 150:Generated_Source\PSoC4/I2C_EZI2C.c ****             /* Configure TX direction */
 151:Generated_Source\PSoC4/I2C_EZI2C.c ****             I2C_TX_CTRL_REG      = I2C_EZI2C_TX_CTRL;
 152:Generated_Source\PSoC4/I2C_EZI2C.c ****             I2C_TX_FIFO_CTRL_REG = ((0u != (config->enableClockStretch)) ?
 153:Generated_Source\PSoC4/I2C_EZI2C.c ****                                                  I2C_CLEAR_REG : I2C_EZI2C_TX_FIFO_CTRL);
 154:Generated_Source\PSoC4/I2C_EZI2C.c **** 
 155:Generated_Source\PSoC4/I2C_EZI2C.c ****             /* Configure interrupt sources */
 156:Generated_Source\PSoC4/I2C_EZI2C.c ****         #if (!I2C_CY_SCBIP_V1)
 157:Generated_Source\PSoC4/I2C_EZI2C.c ****            I2C_INTR_SPI_EC_MASK_REG = I2C_NO_INTR_SOURCES;
 158:Generated_Source\PSoC4/I2C_EZI2C.c ****         #endif /* (!I2C_CY_SCBIP_V1) */
 159:Generated_Source\PSoC4/I2C_EZI2C.c **** 
 160:Generated_Source\PSoC4/I2C_EZI2C.c ****             I2C_INTR_I2C_EC_MASK_REG = I2C_NO_INTR_SOURCES;
 161:Generated_Source\PSoC4/I2C_EZI2C.c ****             I2C_INTR_MASTER_MASK_REG = I2C_NO_INTR_SOURCES;
 162:Generated_Source\PSoC4/I2C_EZI2C.c ****             I2C_INTR_SLAVE_MASK_REG  = I2C_EZI2C_INTR_SLAVE_MASK;
 163:Generated_Source\PSoC4/I2C_EZI2C.c ****             I2C_INTR_TX_MASK_REG     = I2C_NO_INTR_SOURCES;
 164:Generated_Source\PSoC4/I2C_EZI2C.c **** 
 165:Generated_Source\PSoC4/I2C_EZI2C.c ****             /* Configure interrupt with EZI2C handler but do not enable it */
 166:Generated_Source\PSoC4/I2C_EZI2C.c ****             CyIntDisable    (I2C_ISR_NUMBER);
 167:Generated_Source\PSoC4/I2C_EZI2C.c ****             CyIntSetPriority(I2C_ISR_NUMBER, I2C_ISR_PRIORITY);
 168:Generated_Source\PSoC4/I2C_EZI2C.c ****             (void) CyIntSetVector(I2C_ISR_NUMBER, (0u != (config->enableClockStretch)) ?
 169:Generated_Source\PSoC4/I2C_EZI2C.c ****                                                                       (&I2C_EZI2C_STRETCH_ISR) :
 170:Generated_Source\PSoC4/I2C_EZI2C.c ****                                                                       (&I2C_EZI2C_NO_STRETCH_ISR));
 171:Generated_Source\PSoC4/I2C_EZI2C.c **** 
 172:Generated_Source\PSoC4/I2C_EZI2C.c ****             if(0u != (config->enableClockStretch))
 173:Generated_Source\PSoC4/I2C_EZI2C.c ****             {
 174:Generated_Source\PSoC4/I2C_EZI2C.c ****                 /* Configure interrupt sources */
 175:Generated_Source\PSoC4/I2C_EZI2C.c ****                 I2C_INTR_SLAVE_MASK_REG |= I2C_INTR_SLAVE_I2C_ADDR_MATCH;
 176:Generated_Source\PSoC4/I2C_EZI2C.c ****                 I2C_INTR_RX_MASK_REG     = I2C_NO_INTR_SOURCES;
 177:Generated_Source\PSoC4/I2C_EZI2C.c ****             }
 178:Generated_Source\PSoC4/I2C_EZI2C.c ****             else
 179:Generated_Source\PSoC4/I2C_EZI2C.c ****             {
 180:Generated_Source\PSoC4/I2C_EZI2C.c ****                 /* Enable Auto ACK/NACK features */
 181:Generated_Source\PSoC4/I2C_EZI2C.c ****                 I2C_I2C_CTRL_REG |= I2C_EZI2C_CTRL_AUTO;
 182:Generated_Source\PSoC4/I2C_EZI2C.c **** 
 183:Generated_Source\PSoC4/I2C_EZI2C.c ****                 /* Configure RX interrupt source */
 184:Generated_Source\PSoC4/I2C_EZI2C.c ****                 I2C_INTR_SLAVE_MASK_REG |= I2C_INTR_SLAVE_I2C_START;
 185:Generated_Source\PSoC4/I2C_EZI2C.c ****                 I2C_INTR_RX_MASK_REG     = I2C_INTR_RX_NOT_EMPTY;
 186:Generated_Source\PSoC4/I2C_EZI2C.c ****             }
 187:Generated_Source\PSoC4/I2C_EZI2C.c **** 
 188:Generated_Source\PSoC4/I2C_EZI2C.c ****             /* Configure global variables */
 189:Generated_Source\PSoC4/I2C_EZI2C.c ****             I2C_fsmState = I2C_EZI2C_FSM_IDLE;
 190:Generated_Source\PSoC4/I2C_EZI2C.c **** 
 191:Generated_Source\PSoC4/I2C_EZI2C.c ****             I2C_curStatus  = 0u;
 192:Generated_Source\PSoC4/I2C_EZI2C.c ****             I2C_indexBuf1  = 0u;
 193:Generated_Source\PSoC4/I2C_EZI2C.c ****             I2C_offsetBuf1 = 0u;
 194:Generated_Source\PSoC4/I2C_EZI2C.c ****             I2C_indexBuf2  = 0u;
 195:Generated_Source\PSoC4/I2C_EZI2C.c ****             I2C_offsetBuf2 = 0u;
 196:Generated_Source\PSoC4/I2C_EZI2C.c **** 
 197:Generated_Source\PSoC4/I2C_EZI2C.c ****             I2C_addrBuf1 = (uint8) config->primarySlaveAddr;
 198:Generated_Source\PSoC4/I2C_EZI2C.c ****             I2C_addrBuf2 = (uint8) config->secondarySlaveAddr;
 199:Generated_Source\PSoC4/I2C_EZI2C.c ****         }
 200:Generated_Source\PSoC4/I2C_EZI2C.c ****     }
 201:Generated_Source\PSoC4/I2C_EZI2C.c **** 
ARM GAS  C:\Users\Ade0n\AppData\Local\Temp\ccx18Kxr.s 			page 5


 202:Generated_Source\PSoC4/I2C_EZI2C.c **** #else
 203:Generated_Source\PSoC4/I2C_EZI2C.c **** 
 204:Generated_Source\PSoC4/I2C_EZI2C.c ****     /*******************************************************************************
 205:Generated_Source\PSoC4/I2C_EZI2C.c ****     * Function Name: I2C_EzI2CInit
 206:Generated_Source\PSoC4/I2C_EZI2C.c ****     ****************************************************************************//**
 207:Generated_Source\PSoC4/I2C_EZI2C.c ****     *
 208:Generated_Source\PSoC4/I2C_EZI2C.c ****     *  Configures the SCB for the EZI2C operation.
 209:Generated_Source\PSoC4/I2C_EZI2C.c ****     *
 210:Generated_Source\PSoC4/I2C_EZI2C.c ****     *******************************************************************************/
 211:Generated_Source\PSoC4/I2C_EZI2C.c ****     void I2C_EzI2CInit(void)
 212:Generated_Source\PSoC4/I2C_EZI2C.c ****     {
  28              		.loc 1 212 0
  29              		.cfi_startproc
  30              		@ args = 0, pretend = 0, frame = 0
  31              		@ frame_needed = 0, uses_anonymous_args = 0
  32 0000 10B5     		push	{r4, lr}
  33              		.cfi_def_cfa_offset 8
  34              		.cfi_offset 4, -8
  35              		.cfi_offset 14, -4
 213:Generated_Source\PSoC4/I2C_EZI2C.c ****         /* Configure I2C interface */
 214:Generated_Source\PSoC4/I2C_EZI2C.c ****         I2C_CTRL_REG     = I2C_EZI2C_DEFAULT_CTRL;
  36              		.loc 1 214 0
  37 0002 0024     		movs	r4, #0
  38 0004 194B     		ldr	r3, .L2
  39 0006 1C60     		str	r4, [r3]
 215:Generated_Source\PSoC4/I2C_EZI2C.c ****         I2C_I2C_CTRL_REG = I2C_EZI2C_DEFAULT_I2C_CTRL;
  40              		.loc 1 215 0
  41 0008 194A     		ldr	r2, .L2+4
  42 000a 1A4B     		ldr	r3, .L2+8
  43 000c 1A60     		str	r2, [r3]
 216:Generated_Source\PSoC4/I2C_EZI2C.c **** 
 217:Generated_Source\PSoC4/I2C_EZI2C.c ****     #if (I2C_CY_SCBIP_V0)
 218:Generated_Source\PSoC4/I2C_EZI2C.c ****         /* Adjust SDA filter settings. Ticket ID#150521 */
 219:Generated_Source\PSoC4/I2C_EZI2C.c ****         I2C_SET_I2C_CFG_SDA_FILT_TRIM(I2C_EC_AM_I2C_CFG_SDA_FILT_TRIM);
 220:Generated_Source\PSoC4/I2C_EZI2C.c ****     #endif /* (I2C_CY_SCBIP_V0) */
 221:Generated_Source\PSoC4/I2C_EZI2C.c **** 
 222:Generated_Source\PSoC4/I2C_EZI2C.c ****         /* Configure RX direction */
 223:Generated_Source\PSoC4/I2C_EZI2C.c ****         I2C_RX_CTRL_REG      = I2C_EZI2C_DEFAULT_RX_CTRL;
  44              		.loc 1 223 0
  45 000e 1A4B     		ldr	r3, .L2+12
  46 0010 1A4A     		ldr	r2, .L2+16
  47 0012 1360     		str	r3, [r2]
 224:Generated_Source\PSoC4/I2C_EZI2C.c ****         I2C_RX_FIFO_CTRL_REG = I2C_EZI2C_DEFAULT_RX_FIFO_CTRL;
  48              		.loc 1 224 0
  49 0014 1A4A     		ldr	r2, .L2+20
  50 0016 1460     		str	r4, [r2]
 225:Generated_Source\PSoC4/I2C_EZI2C.c **** 
 226:Generated_Source\PSoC4/I2C_EZI2C.c ****         /* Set default address and mask */
 227:Generated_Source\PSoC4/I2C_EZI2C.c ****         I2C_RX_MATCH_REG     = I2C_EZI2C_DEFAULT_RX_MATCH;
  51              		.loc 1 227 0
  52 0018 1A49     		ldr	r1, .L2+24
  53 001a 1B4A     		ldr	r2, .L2+28
  54 001c 1160     		str	r1, [r2]
 228:Generated_Source\PSoC4/I2C_EZI2C.c **** 
 229:Generated_Source\PSoC4/I2C_EZI2C.c ****         /* Configure TX direction */
 230:Generated_Source\PSoC4/I2C_EZI2C.c ****         I2C_TX_CTRL_REG      = I2C_EZI2C_DEFAULT_TX_CTRL;
  55              		.loc 1 230 0
ARM GAS  C:\Users\Ade0n\AppData\Local\Temp\ccx18Kxr.s 			page 6


  56 001e 1B4A     		ldr	r2, .L2+32
  57 0020 1360     		str	r3, [r2]
 231:Generated_Source\PSoC4/I2C_EZI2C.c ****         I2C_TX_FIFO_CTRL_REG = I2C_EZI2C_DEFAULT_TX_FIFO_CTRL;
  58              		.loc 1 231 0
  59 0022 1B4B     		ldr	r3, .L2+36
  60 0024 1C60     		str	r4, [r3]
 232:Generated_Source\PSoC4/I2C_EZI2C.c **** 
 233:Generated_Source\PSoC4/I2C_EZI2C.c ****         /* Configure interrupt with EZI2C handler but do not enable it */
 234:Generated_Source\PSoC4/I2C_EZI2C.c ****     #if !defined (CY_EXTERNAL_INTERRUPT_CONFIG)
 235:Generated_Source\PSoC4/I2C_EZI2C.c ****         CyIntDisable    (I2C_ISR_NUMBER);
  61              		.loc 1 235 0
  62 0026 0A20     		movs	r0, #10
  63 0028 FFF7FEFF 		bl	CyIntDisable
  64              	.LVL0:
 236:Generated_Source\PSoC4/I2C_EZI2C.c ****         CyIntSetPriority(I2C_ISR_NUMBER, I2C_ISR_PRIORITY);
  65              		.loc 1 236 0
  66 002c 0321     		movs	r1, #3
  67 002e 0A20     		movs	r0, #10
  68 0030 FFF7FEFF 		bl	CyIntSetPriority
  69              	.LVL1:
 237:Generated_Source\PSoC4/I2C_EZI2C.c **** 
 238:Generated_Source\PSoC4/I2C_EZI2C.c ****     #if (I2C_EZI2C_SCL_STRETCH_ENABLE_CONST)
 239:Generated_Source\PSoC4/I2C_EZI2C.c ****         (void) CyIntSetVector(I2C_ISR_NUMBER, &I2C_EZI2C_STRETCH_ISR);
  70              		.loc 1 239 0
  71 0034 1749     		ldr	r1, .L2+40
  72 0036 0A20     		movs	r0, #10
  73 0038 FFF7FEFF 		bl	CyIntSetVector
  74              	.LVL2:
 240:Generated_Source\PSoC4/I2C_EZI2C.c ****     #else
 241:Generated_Source\PSoC4/I2C_EZI2C.c ****         (void) CyIntSetVector(I2C_ISR_NUMBER, &I2C_EZI2C_NO_STRETCH_ISR);
 242:Generated_Source\PSoC4/I2C_EZI2C.c ****     #endif /* (I2C_EZI2C_SCL_STRETCH_ENABLE_CONST) */
 243:Generated_Source\PSoC4/I2C_EZI2C.c **** 
 244:Generated_Source\PSoC4/I2C_EZI2C.c ****     #endif /* !defined (CY_EXTERNAL_INTERRUPT_CONFIG) */
 245:Generated_Source\PSoC4/I2C_EZI2C.c **** 
 246:Generated_Source\PSoC4/I2C_EZI2C.c ****         /* Configure interrupt sources */
 247:Generated_Source\PSoC4/I2C_EZI2C.c ****     #if (!I2C_CY_SCBIP_V1)
 248:Generated_Source\PSoC4/I2C_EZI2C.c ****         I2C_INTR_SPI_EC_MASK_REG = I2C_EZI2C_DEFAULT_INTR_SPI_EC_MASK;
  75              		.loc 1 248 0
  76 003c 164B     		ldr	r3, .L2+44
  77 003e 1C60     		str	r4, [r3]
 249:Generated_Source\PSoC4/I2C_EZI2C.c ****     #endif /* (!I2C_CY_SCBIP_V1) */
 250:Generated_Source\PSoC4/I2C_EZI2C.c **** 
 251:Generated_Source\PSoC4/I2C_EZI2C.c ****         I2C_INTR_I2C_EC_MASK_REG = I2C_EZI2C_DEFAULT_INTR_I2C_EC_MASK;
  78              		.loc 1 251 0
  79 0040 164B     		ldr	r3, .L2+48
  80 0042 1C60     		str	r4, [r3]
 252:Generated_Source\PSoC4/I2C_EZI2C.c ****         I2C_INTR_SLAVE_MASK_REG  = I2C_EZI2C_DEFAULT_INTR_SLAVE_MASK;
  81              		.loc 1 252 0
  82 0044 5222     		movs	r2, #82
  83 0046 FF32     		adds	r2, r2, #255
  84 0048 154B     		ldr	r3, .L2+52
  85 004a 1A60     		str	r2, [r3]
 253:Generated_Source\PSoC4/I2C_EZI2C.c ****         I2C_INTR_MASTER_MASK_REG = I2C_EZI2C_DEFAULT_INTR_MASTER_MASK;
  86              		.loc 1 253 0
  87 004c 154B     		ldr	r3, .L2+56
  88 004e 1C60     		str	r4, [r3]
 254:Generated_Source\PSoC4/I2C_EZI2C.c ****         I2C_INTR_RX_MASK_REG     = I2C_EZI2C_DEFAULT_INTR_RX_MASK;
ARM GAS  C:\Users\Ade0n\AppData\Local\Temp\ccx18Kxr.s 			page 7


  89              		.loc 1 254 0
  90 0050 154B     		ldr	r3, .L2+60
  91 0052 1C60     		str	r4, [r3]
 255:Generated_Source\PSoC4/I2C_EZI2C.c ****         I2C_INTR_TX_MASK_REG     = I2C_EZI2C_DEFAULT_INTR_TX_MASK;
  92              		.loc 1 255 0
  93 0054 154B     		ldr	r3, .L2+64
  94 0056 1C60     		str	r4, [r3]
 256:Generated_Source\PSoC4/I2C_EZI2C.c **** 
 257:Generated_Source\PSoC4/I2C_EZI2C.c ****         /* Configure global variables */
 258:Generated_Source\PSoC4/I2C_EZI2C.c ****         I2C_fsmState = I2C_EZI2C_FSM_IDLE;
  95              		.loc 1 258 0
  96 0058 154B     		ldr	r3, .L2+68
  97 005a 1C70     		strb	r4, [r3]
 259:Generated_Source\PSoC4/I2C_EZI2C.c **** 
 260:Generated_Source\PSoC4/I2C_EZI2C.c ****         I2C_curStatus  = 0u;
  98              		.loc 1 260 0
  99 005c 154B     		ldr	r3, .L2+72
 100 005e 1C70     		strb	r4, [r3]
 261:Generated_Source\PSoC4/I2C_EZI2C.c ****         I2C_indexBuf1  = 0u;
 101              		.loc 1 261 0
 102 0060 154B     		ldr	r3, .L2+76
 103 0062 1C80     		strh	r4, [r3]
 262:Generated_Source\PSoC4/I2C_EZI2C.c ****         I2C_offsetBuf1 = 0u;
 104              		.loc 1 262 0
 105 0064 154B     		ldr	r3, .L2+80
 106 0066 0022     		movs	r2, #0
 107 0068 1A70     		strb	r2, [r3]
 263:Generated_Source\PSoC4/I2C_EZI2C.c **** 
 264:Generated_Source\PSoC4/I2C_EZI2C.c ****     #if(I2C_SECONDARY_ADDRESS_ENABLE_CONST)
 265:Generated_Source\PSoC4/I2C_EZI2C.c ****         I2C_indexBuf2  = 0u;
 266:Generated_Source\PSoC4/I2C_EZI2C.c ****         I2C_offsetBuf2 = 0u;
 267:Generated_Source\PSoC4/I2C_EZI2C.c **** 
 268:Generated_Source\PSoC4/I2C_EZI2C.c ****         I2C_addrBuf1 = I2C_EZI2C_PRIMARY_SLAVE_ADDRESS;
 269:Generated_Source\PSoC4/I2C_EZI2C.c ****         I2C_addrBuf2 = I2C_EZI2C_SECONDARY_SLAVE_ADDRESS;
 270:Generated_Source\PSoC4/I2C_EZI2C.c ****     #endif /* (I2C_SECONDARY_ADDRESS_ENABLE_CONST) */
 271:Generated_Source\PSoC4/I2C_EZI2C.c ****     }
 108              		.loc 1 271 0
 109              		@ sp needed
 110 006a 10BD     		pop	{r4, pc}
 111              	.L3:
 112              		.align	2
 113              	.L2:
 114 006c 00002540 		.word	1076166656
 115 0070 00080040 		.word	1073743872
 116 0074 60002540 		.word	1076166752
 117 0078 07010080 		.word	-2147483385
 118 007c 00032540 		.word	1076167424
 119 0080 04032540 		.word	1076167428
 120 0084 1000FE00 		.word	16646160
 121 0088 10032540 		.word	1076167440
 122 008c 00022540 		.word	1076167168
 123 0090 04022540 		.word	1076167172
 124 0094 00000000 		.word	I2C_EZI2C_STRETCH_ISR
 125 0098 C80E2540 		.word	1076170440
 126 009c 880E2540 		.word	1076170376
 127 00a0 480F2540 		.word	1076170568
 128 00a4 080F2540 		.word	1076170504
ARM GAS  C:\Users\Ade0n\AppData\Local\Temp\ccx18Kxr.s 			page 8


 129 00a8 C80F2540 		.word	1076170696
 130 00ac 880F2540 		.word	1076170632
 131 00b0 00000000 		.word	I2C_fsmState
 132 00b4 00000000 		.word	I2C_curStatus
 133 00b8 00000000 		.word	I2C_indexBuf1
 134 00bc 00000000 		.word	I2C_offsetBuf1
 135              		.cfi_endproc
 136              	.LFE2:
 137              		.size	I2C_EzI2CInit, .-I2C_EzI2CInit
 138              		.section	.text.I2C_EzI2CStop,"ax",%progbits
 139              		.align	2
 140              		.global	I2C_EzI2CStop
 141              		.code	16
 142              		.thumb_func
 143              		.type	I2C_EzI2CStop, %function
 144              	I2C_EzI2CStop:
 145              	.LFB3:
 272:Generated_Source\PSoC4/I2C_EZI2C.c **** #endif /* (I2C_SCB_MODE_UNCONFIG_CONST_CFG) */
 273:Generated_Source\PSoC4/I2C_EZI2C.c **** 
 274:Generated_Source\PSoC4/I2C_EZI2C.c **** 
 275:Generated_Source\PSoC4/I2C_EZI2C.c **** /*******************************************************************************
 276:Generated_Source\PSoC4/I2C_EZI2C.c **** * Function Name: I2C_EzI2CStop
 277:Generated_Source\PSoC4/I2C_EZI2C.c **** ****************************************************************************//**
 278:Generated_Source\PSoC4/I2C_EZI2C.c **** *
 279:Generated_Source\PSoC4/I2C_EZI2C.c **** *  Resets the EZI2C FSM into the default state.
 280:Generated_Source\PSoC4/I2C_EZI2C.c **** *
 281:Generated_Source\PSoC4/I2C_EZI2C.c **** *******************************************************************************/
 282:Generated_Source\PSoC4/I2C_EZI2C.c **** void I2C_EzI2CStop(void)
 283:Generated_Source\PSoC4/I2C_EZI2C.c **** {
 146              		.loc 1 283 0
 147              		.cfi_startproc
 148              		@ args = 0, pretend = 0, frame = 0
 149              		@ frame_needed = 0, uses_anonymous_args = 0
 150              		@ link register save eliminated.
 284:Generated_Source\PSoC4/I2C_EZI2C.c ****     I2C_fsmState = I2C_EZI2C_FSM_IDLE;
 151              		.loc 1 284 0
 152 0000 0022     		movs	r2, #0
 153 0002 014B     		ldr	r3, .L5
 154 0004 1A70     		strb	r2, [r3]
 285:Generated_Source\PSoC4/I2C_EZI2C.c **** }
 155              		.loc 1 285 0
 156              		@ sp needed
 157 0006 7047     		bx	lr
 158              	.L6:
 159              		.align	2
 160              	.L5:
 161 0008 00000000 		.word	I2C_fsmState
 162              		.cfi_endproc
 163              	.LFE3:
 164              		.size	I2C_EzI2CStop, .-I2C_EzI2CStop
 165              		.section	.text.I2C_EzI2CGetActivity,"ax",%progbits
 166              		.align	2
 167              		.global	I2C_EzI2CGetActivity
 168              		.code	16
 169              		.thumb_func
 170              		.type	I2C_EzI2CGetActivity, %function
 171              	I2C_EzI2CGetActivity:
ARM GAS  C:\Users\Ade0n\AppData\Local\Temp\ccx18Kxr.s 			page 9


 172              	.LFB4:
 286:Generated_Source\PSoC4/I2C_EZI2C.c **** 
 287:Generated_Source\PSoC4/I2C_EZI2C.c **** 
 288:Generated_Source\PSoC4/I2C_EZI2C.c **** /*******************************************************************************
 289:Generated_Source\PSoC4/I2C_EZI2C.c **** * Function Name: I2C_EzI2CGetActivity
 290:Generated_Source\PSoC4/I2C_EZI2C.c **** ****************************************************************************//**
 291:Generated_Source\PSoC4/I2C_EZI2C.c **** *
 292:Generated_Source\PSoC4/I2C_EZI2C.c **** *  Returns the EZI2C slave status.
 293:Generated_Source\PSoC4/I2C_EZI2C.c **** *  The read, write and error status flags reset to zero after this function
 294:Generated_Source\PSoC4/I2C_EZI2C.c **** *  call. The busy status flag is cleared when the transaction intended for
 295:Generated_Source\PSoC4/I2C_EZI2C.c **** *  the EZI2C slave completes.
 296:Generated_Source\PSoC4/I2C_EZI2C.c **** *
 297:Generated_Source\PSoC4/I2C_EZI2C.c **** * \return
 298:Generated_Source\PSoC4/I2C_EZI2C.c **** *  Returns the status of the EZI2C Slave activity.
 299:Generated_Source\PSoC4/I2C_EZI2C.c **** *  - I2C_EZI2C_STATUS_READ1 - Read transfer complete. The transfer 
 300:Generated_Source\PSoC4/I2C_EZI2C.c **** *    used the primary slave address. The error condition status bit must be 
 301:Generated_Source\PSoC4/I2C_EZI2C.c **** *    checked to ensure that read transfer was completed successfully.
 302:Generated_Source\PSoC4/I2C_EZI2C.c **** *  - I2C_EZI2C_STATUS_WRITE1 - Write transfer complete. The buffer 
 303:Generated_Source\PSoC4/I2C_EZI2C.c **** *    content was modified. The transfer used the primary slave address. 
 304:Generated_Source\PSoC4/I2C_EZI2C.c **** *    The error condition status bit must be checked to ensure that write 
 305:Generated_Source\PSoC4/I2C_EZI2C.c **** *    transfer was completed successfully.
 306:Generated_Source\PSoC4/I2C_EZI2C.c **** *  - I2C_EZI2C_STATUS_READ2 - Read transfer complete. The transfer
 307:Generated_Source\PSoC4/I2C_EZI2C.c **** *    used the secondary slave address. The error condition status bit must be 
 308:Generated_Source\PSoC4/I2C_EZI2C.c **** *    checked to ensure that read transfer was completed successfully.
 309:Generated_Source\PSoC4/I2C_EZI2C.c **** *  - I2C_EZI2C_STATUS_WRITE2 - Write transfer complete. The buffer
 310:Generated_Source\PSoC4/I2C_EZI2C.c **** *    content was modified. The transfer used the secondary slave address. 
 311:Generated_Source\PSoC4/I2C_EZI2C.c **** *    The error condition status bit must be checked to ensure that write 
 312:Generated_Source\PSoC4/I2C_EZI2C.c **** *    transfer was completed successfully.
 313:Generated_Source\PSoC4/I2C_EZI2C.c **** *  - I2C_EZI2C_STATUS_BUSY - A transfer intended for the primary 
 314:Generated_Source\PSoC4/I2C_EZI2C.c **** *    or secondary address is in progress. The status bit is set after an 
 315:Generated_Source\PSoC4/I2C_EZI2C.c **** *    address match and cleared on a Stop or ReStart condition.
 316:Generated_Source\PSoC4/I2C_EZI2C.c **** *  - I2C_EZI2C_STATUS_ERR - An error occurred during a transfer 
 317:Generated_Source\PSoC4/I2C_EZI2C.c **** *    intended for the primary or secondary slave address. The sources of error
 318:Generated_Source\PSoC4/I2C_EZI2C.c **** *    are: misplaced Start or Stop condition or lost arbitration while slave 
 319:Generated_Source\PSoC4/I2C_EZI2C.c **** *    drives SDA.
 320:Generated_Source\PSoC4/I2C_EZI2C.c **** *    The write buffer may contain invalid byte or part of the transaction when 
 321:Generated_Source\PSoC4/I2C_EZI2C.c **** *    I2C_EZI2C_STATUS_ERR and I2C_EZI2C_STATUS_WRITE1/2 
 322:Generated_Source\PSoC4/I2C_EZI2C.c **** *    is set. It is recommended to discard buffer content in this case.
 323:Generated_Source\PSoC4/I2C_EZI2C.c **** *
 324:Generated_Source\PSoC4/I2C_EZI2C.c **** * \globalvars
 325:Generated_Source\PSoC4/I2C_EZI2C.c **** *  I2C_curStatus - used to store the current status of the EZI2C 
 326:Generated_Source\PSoC4/I2C_EZI2C.c **** *  slave.
 327:Generated_Source\PSoC4/I2C_EZI2C.c **** *
 328:Generated_Source\PSoC4/I2C_EZI2C.c **** *******************************************************************************/
 329:Generated_Source\PSoC4/I2C_EZI2C.c **** uint32 I2C_EzI2CGetActivity(void)
 330:Generated_Source\PSoC4/I2C_EZI2C.c **** {
 173              		.loc 1 330 0
 174              		.cfi_startproc
 175              		@ args = 0, pretend = 0, frame = 0
 176              		@ frame_needed = 0, uses_anonymous_args = 0
 177 0000 10B5     		push	{r4, lr}
 178              		.cfi_def_cfa_offset 8
 179              		.cfi_offset 4, -8
 180              		.cfi_offset 14, -4
 331:Generated_Source\PSoC4/I2C_EZI2C.c ****     uint32 status;
 332:Generated_Source\PSoC4/I2C_EZI2C.c **** 
 333:Generated_Source\PSoC4/I2C_EZI2C.c ****     I2C_DisableInt();  /* Lock from interruption */
ARM GAS  C:\Users\Ade0n\AppData\Local\Temp\ccx18Kxr.s 			page 10


 181              		.loc 1 333 0
 182 0002 0A20     		movs	r0, #10
 183 0004 FFF7FEFF 		bl	CyIntDisable
 184              	.LVL3:
 334:Generated_Source\PSoC4/I2C_EZI2C.c **** 
 335:Generated_Source\PSoC4/I2C_EZI2C.c ****     status = I2C_curStatus;
 185              		.loc 1 335 0
 186 0008 054B     		ldr	r3, .L8
 187 000a 1C78     		ldrb	r4, [r3]
 188 000c E4B2     		uxtb	r4, r4
 189              	.LVL4:
 336:Generated_Source\PSoC4/I2C_EZI2C.c **** 
 337:Generated_Source\PSoC4/I2C_EZI2C.c ****     /* Relay on address match event from HW as bus busy status */
 338:Generated_Source\PSoC4/I2C_EZI2C.c ****     #if(I2C_EZI2C_SCL_STRETCH_DISABLE)
 339:Generated_Source\PSoC4/I2C_EZI2C.c ****     {
 340:Generated_Source\PSoC4/I2C_EZI2C.c ****         /* For I2C_CY_SCBIP_V0 the wake is prohibited by customizer */
 341:Generated_Source\PSoC4/I2C_EZI2C.c ****         #if(I2C_EZI2C_EC_AM_ENABLE)
 342:Generated_Source\PSoC4/I2C_EZI2C.c ****         {
 343:Generated_Source\PSoC4/I2C_EZI2C.c ****             status |= I2C_CHECK_INTR_I2C_EC(I2C_INTR_I2C_EC_WAKE_UP) ?
 344:Generated_Source\PSoC4/I2C_EZI2C.c ****                         I2C_EZI2C_STATUS_BUSY : 0u;
 345:Generated_Source\PSoC4/I2C_EZI2C.c ****         }
 346:Generated_Source\PSoC4/I2C_EZI2C.c ****         #else
 347:Generated_Source\PSoC4/I2C_EZI2C.c ****         {
 348:Generated_Source\PSoC4/I2C_EZI2C.c ****             status |= I2C_CHECK_INTR_SLAVE(I2C_INTR_SLAVE_I2C_ADDR_MATCH) ?
 349:Generated_Source\PSoC4/I2C_EZI2C.c ****                         I2C_EZI2C_STATUS_BUSY : 0u;
 350:Generated_Source\PSoC4/I2C_EZI2C.c ****         }
 351:Generated_Source\PSoC4/I2C_EZI2C.c ****         #endif
 352:Generated_Source\PSoC4/I2C_EZI2C.c ****     }
 353:Generated_Source\PSoC4/I2C_EZI2C.c ****     #endif
 354:Generated_Source\PSoC4/I2C_EZI2C.c **** 
 355:Generated_Source\PSoC4/I2C_EZI2C.c ****     I2C_curStatus &= ((uint8) ~I2C_EZI2C_CLEAR_STATUS);
 190              		.loc 1 355 0
 191 000e 1A78     		ldrb	r2, [r3]
 192 0010 1F21     		movs	r1, #31
 193 0012 8A43     		bics	r2, r1
 194 0014 1A70     		strb	r2, [r3]
 356:Generated_Source\PSoC4/I2C_EZI2C.c **** 
 357:Generated_Source\PSoC4/I2C_EZI2C.c ****     I2C_EnableInt();   /* Release lock */
 195              		.loc 1 357 0
 196 0016 0A20     		movs	r0, #10
 197 0018 FFF7FEFF 		bl	CyIntEnable
 198              	.LVL5:
 358:Generated_Source\PSoC4/I2C_EZI2C.c **** 
 359:Generated_Source\PSoC4/I2C_EZI2C.c ****     return(status);
 360:Generated_Source\PSoC4/I2C_EZI2C.c **** }
 199              		.loc 1 360 0
 200 001c 2000     		movs	r0, r4
 201              		@ sp needed
 202              	.LVL6:
 203 001e 10BD     		pop	{r4, pc}
 204              	.L9:
 205              		.align	2
 206              	.L8:
 207 0020 00000000 		.word	I2C_curStatus
 208              		.cfi_endproc
 209              	.LFE4:
 210              		.size	I2C_EzI2CGetActivity, .-I2C_EzI2CGetActivity
ARM GAS  C:\Users\Ade0n\AppData\Local\Temp\ccx18Kxr.s 			page 11


 211              		.section	.text.I2C_EzI2CSetAddress1,"ax",%progbits
 212              		.align	2
 213              		.global	I2C_EzI2CSetAddress1
 214              		.code	16
 215              		.thumb_func
 216              		.type	I2C_EzI2CSetAddress1, %function
 217              	I2C_EzI2CSetAddress1:
 218              	.LFB5:
 361:Generated_Source\PSoC4/I2C_EZI2C.c **** 
 362:Generated_Source\PSoC4/I2C_EZI2C.c **** 
 363:Generated_Source\PSoC4/I2C_EZI2C.c **** /*******************************************************************************
 364:Generated_Source\PSoC4/I2C_EZI2C.c **** * Function Name: I2C_EzI2CSetAddress1
 365:Generated_Source\PSoC4/I2C_EZI2C.c **** ****************************************************************************//**
 366:Generated_Source\PSoC4/I2C_EZI2C.c **** *
 367:Generated_Source\PSoC4/I2C_EZI2C.c **** *  Sets the primary EZI2C slave address.
 368:Generated_Source\PSoC4/I2C_EZI2C.c **** *
 369:Generated_Source\PSoC4/I2C_EZI2C.c **** * \param address: I2C slave address for the secondary device.
 370:Generated_Source\PSoC4/I2C_EZI2C.c **** *  This address is the 7-bit right-justified slave address and does not 
 371:Generated_Source\PSoC4/I2C_EZI2C.c **** *   include the R/W bit.
 372:Generated_Source\PSoC4/I2C_EZI2C.c **** *
 373:Generated_Source\PSoC4/I2C_EZI2C.c **** *  The address value is not checked to see if it violates the I2C spec. 
 374:Generated_Source\PSoC4/I2C_EZI2C.c **** *  The preferred addresses are in the range between 8 and 120 (0x08 to 0x78).
 375:Generated_Source\PSoC4/I2C_EZI2C.c **** *
 376:Generated_Source\PSoC4/I2C_EZI2C.c **** * \globalvars
 377:Generated_Source\PSoC4/I2C_EZI2C.c **** *  I2C_addrBuf1 - used to store the primary 7-bit slave address 
 378:Generated_Source\PSoC4/I2C_EZI2C.c **** *  value.
 379:Generated_Source\PSoC4/I2C_EZI2C.c **** *
 380:Generated_Source\PSoC4/I2C_EZI2C.c **** *******************************************************************************/
 381:Generated_Source\PSoC4/I2C_EZI2C.c **** void I2C_EzI2CSetAddress1(uint32 address)
 382:Generated_Source\PSoC4/I2C_EZI2C.c **** {
 219              		.loc 1 382 0
 220              		.cfi_startproc
 221              		@ args = 0, pretend = 0, frame = 0
 222              		@ frame_needed = 0, uses_anonymous_args = 0
 223              		@ link register save eliminated.
 224              	.LVL7:
 225 0000 0300     		movs	r3, r0
 226              	.LBB2:
 383:Generated_Source\PSoC4/I2C_EZI2C.c ****     #if(I2C_SECONDARY_ADDRESS_ENABLE)
 384:Generated_Source\PSoC4/I2C_EZI2C.c ****     {
 385:Generated_Source\PSoC4/I2C_EZI2C.c ****         I2C_addrBuf1 = (uint8) address;
 386:Generated_Source\PSoC4/I2C_EZI2C.c **** 
 387:Generated_Source\PSoC4/I2C_EZI2C.c ****         I2C_RX_MATCH_REG = 
 388:Generated_Source\PSoC4/I2C_EZI2C.c ****                         I2C_EzI2CUpdateRxMatchReg(address, (uint32) I2C_addrBuf2);
 389:Generated_Source\PSoC4/I2C_EZI2C.c ****     }
 390:Generated_Source\PSoC4/I2C_EZI2C.c ****     #else
 391:Generated_Source\PSoC4/I2C_EZI2C.c ****     {
 392:Generated_Source\PSoC4/I2C_EZI2C.c ****         uint32 matchReg;
 393:Generated_Source\PSoC4/I2C_EZI2C.c **** 
 394:Generated_Source\PSoC4/I2C_EZI2C.c ****         matchReg = I2C_RX_MATCH_REG;
 227              		.loc 1 394 0
 228 0002 0449     		ldr	r1, .L11
 229 0004 0A68     		ldr	r2, [r1]
 230              	.LVL8:
 395:Generated_Source\PSoC4/I2C_EZI2C.c **** 
 396:Generated_Source\PSoC4/I2C_EZI2C.c ****         /* Set address. */
 397:Generated_Source\PSoC4/I2C_EZI2C.c ****         matchReg &= (uint32) ~I2C_RX_MATCH_ADDR_MASK;
ARM GAS  C:\Users\Ade0n\AppData\Local\Temp\ccx18Kxr.s 			page 12


 231              		.loc 1 397 0
 232 0006 FF20     		movs	r0, #255
 233              	.LVL9:
 234 0008 8243     		bics	r2, r0
 235              	.LVL10:
 398:Generated_Source\PSoC4/I2C_EZI2C.c ****         matchReg |= (uint32)  I2C_GET_I2C_8BIT_ADDRESS(address);
 236              		.loc 1 398 0
 237 000a 5B00     		lsls	r3, r3, #1
 238              	.LVL11:
 239 000c 1840     		ands	r0, r3
 240 000e 1043     		orrs	r0, r2
 241              	.LVL12:
 399:Generated_Source\PSoC4/I2C_EZI2C.c **** 
 400:Generated_Source\PSoC4/I2C_EZI2C.c ****         I2C_RX_MATCH_REG = matchReg;
 242              		.loc 1 400 0
 243 0010 0860     		str	r0, [r1]
 244              	.LBE2:
 401:Generated_Source\PSoC4/I2C_EZI2C.c ****     }
 402:Generated_Source\PSoC4/I2C_EZI2C.c ****     #endif
 403:Generated_Source\PSoC4/I2C_EZI2C.c **** }
 245              		.loc 1 403 0
 246              		@ sp needed
 247 0012 7047     		bx	lr
 248              	.L12:
 249              		.align	2
 250              	.L11:
 251 0014 10032540 		.word	1076167440
 252              		.cfi_endproc
 253              	.LFE5:
 254              		.size	I2C_EzI2CSetAddress1, .-I2C_EzI2CSetAddress1
 255              		.section	.text.I2C_EzI2CGetAddress1,"ax",%progbits
 256              		.align	2
 257              		.global	I2C_EzI2CGetAddress1
 258              		.code	16
 259              		.thumb_func
 260              		.type	I2C_EzI2CGetAddress1, %function
 261              	I2C_EzI2CGetAddress1:
 262              	.LFB6:
 404:Generated_Source\PSoC4/I2C_EZI2C.c **** 
 405:Generated_Source\PSoC4/I2C_EZI2C.c **** 
 406:Generated_Source\PSoC4/I2C_EZI2C.c **** /*******************************************************************************
 407:Generated_Source\PSoC4/I2C_EZI2C.c **** * Function Name: I2C_EzI2CGetAddress1
 408:Generated_Source\PSoC4/I2C_EZI2C.c **** ****************************************************************************//**
 409:Generated_Source\PSoC4/I2C_EZI2C.c **** *
 410:Generated_Source\PSoC4/I2C_EZI2C.c **** *  Returns primary the EZ I2C slave address.
 411:Generated_Source\PSoC4/I2C_EZI2C.c **** *  This address is the 7-bit right-justified slave address and does not include 
 412:Generated_Source\PSoC4/I2C_EZI2C.c **** *  the R/W bit.
 413:Generated_Source\PSoC4/I2C_EZI2C.c **** *
 414:Generated_Source\PSoC4/I2C_EZI2C.c **** * \return
 415:Generated_Source\PSoC4/I2C_EZI2C.c **** *  Primary EZI2C slave address.
 416:Generated_Source\PSoC4/I2C_EZI2C.c **** *
 417:Generated_Source\PSoC4/I2C_EZI2C.c **** * \globalvars
 418:Generated_Source\PSoC4/I2C_EZI2C.c **** *  I2C_addrBuf1 - used to store the primary 7-bit slave address 
 419:Generated_Source\PSoC4/I2C_EZI2C.c **** *  value.
 420:Generated_Source\PSoC4/I2C_EZI2C.c **** *
 421:Generated_Source\PSoC4/I2C_EZI2C.c **** *******************************************************************************/
 422:Generated_Source\PSoC4/I2C_EZI2C.c **** uint32 I2C_EzI2CGetAddress1(void)
ARM GAS  C:\Users\Ade0n\AppData\Local\Temp\ccx18Kxr.s 			page 13


 423:Generated_Source\PSoC4/I2C_EZI2C.c **** {
 263              		.loc 1 423 0
 264              		.cfi_startproc
 265              		@ args = 0, pretend = 0, frame = 0
 266              		@ frame_needed = 0, uses_anonymous_args = 0
 267              		@ link register save eliminated.
 424:Generated_Source\PSoC4/I2C_EZI2C.c ****     uint32 address;
 425:Generated_Source\PSoC4/I2C_EZI2C.c **** 
 426:Generated_Source\PSoC4/I2C_EZI2C.c ****     #if(I2C_SECONDARY_ADDRESS_ENABLE)
 427:Generated_Source\PSoC4/I2C_EZI2C.c ****     {
 428:Generated_Source\PSoC4/I2C_EZI2C.c ****         address = (uint32) I2C_addrBuf1;
 429:Generated_Source\PSoC4/I2C_EZI2C.c ****     }
 430:Generated_Source\PSoC4/I2C_EZI2C.c ****     #else
 431:Generated_Source\PSoC4/I2C_EZI2C.c ****     {
 432:Generated_Source\PSoC4/I2C_EZI2C.c ****         address = (I2C_GET_RX_MATCH_ADDR(I2C_RX_MATCH_REG) >>
 268              		.loc 1 432 0
 269 0000 024B     		ldr	r3, .L14
 270 0002 1868     		ldr	r0, [r3]
 271 0004 4008     		lsrs	r0, r0, #1
 272 0006 7F23     		movs	r3, #127
 273 0008 1840     		ands	r0, r3
 274              	.LVL13:
 433:Generated_Source\PSoC4/I2C_EZI2C.c ****                    I2C_I2C_SLAVE_ADDR_POS);
 434:Generated_Source\PSoC4/I2C_EZI2C.c ****     }
 435:Generated_Source\PSoC4/I2C_EZI2C.c ****     #endif
 436:Generated_Source\PSoC4/I2C_EZI2C.c **** 
 437:Generated_Source\PSoC4/I2C_EZI2C.c ****     return(address);
 438:Generated_Source\PSoC4/I2C_EZI2C.c **** }
 275              		.loc 1 438 0
 276              		@ sp needed
 277 000a 7047     		bx	lr
 278              	.L15:
 279              		.align	2
 280              	.L14:
 281 000c 10032540 		.word	1076167440
 282              		.cfi_endproc
 283              	.LFE6:
 284              		.size	I2C_EzI2CGetAddress1, .-I2C_EzI2CGetAddress1
 285              		.section	.text.I2C_EzI2CSetBuffer1,"ax",%progbits
 286              		.align	2
 287              		.global	I2C_EzI2CSetBuffer1
 288              		.code	16
 289              		.thumb_func
 290              		.type	I2C_EzI2CSetBuffer1, %function
 291              	I2C_EzI2CSetBuffer1:
 292              	.LFB7:
 439:Generated_Source\PSoC4/I2C_EZI2C.c **** 
 440:Generated_Source\PSoC4/I2C_EZI2C.c **** 
 441:Generated_Source\PSoC4/I2C_EZI2C.c **** /*******************************************************************************
 442:Generated_Source\PSoC4/I2C_EZI2C.c **** * Function Name: I2C_EzI2CSetBuffer1
 443:Generated_Source\PSoC4/I2C_EZI2C.c **** ****************************************************************************//**
 444:Generated_Source\PSoC4/I2C_EZI2C.c **** *
 445:Generated_Source\PSoC4/I2C_EZI2C.c **** *  Sets up the data buffer to be exposed to the I2C master on a primary slave
 446:Generated_Source\PSoC4/I2C_EZI2C.c **** *  address request.
 447:Generated_Source\PSoC4/I2C_EZI2C.c **** *
 448:Generated_Source\PSoC4/I2C_EZI2C.c **** * \param bufSize: Size of the buffer in bytes.
 449:Generated_Source\PSoC4/I2C_EZI2C.c **** * \param rwBoundary: Number of data bytes starting from the beginning of the 
ARM GAS  C:\Users\Ade0n\AppData\Local\Temp\ccx18Kxr.s 			page 14


 450:Generated_Source\PSoC4/I2C_EZI2C.c **** *  buffer with read and write access. Data bytes located at offset rwBoundary 
 451:Generated_Source\PSoC4/I2C_EZI2C.c **** *  or greater are read only.
 452:Generated_Source\PSoC4/I2C_EZI2C.c **** *  This value must be less than or equal to the buffer size.
 453:Generated_Source\PSoC4/I2C_EZI2C.c **** * \param buffer: Pointer to the data buffer.
 454:Generated_Source\PSoC4/I2C_EZI2C.c **** *
 455:Generated_Source\PSoC4/I2C_EZI2C.c **** * \sideeffect
 456:Generated_Source\PSoC4/I2C_EZI2C.c **** *  Calling this function in the middle of a transaction intended for the 
 457:Generated_Source\PSoC4/I2C_EZI2C.c **** *  primary slave address leads to unexpected behavior.
 458:Generated_Source\PSoC4/I2C_EZI2C.c **** *
 459:Generated_Source\PSoC4/I2C_EZI2C.c **** * \globalvars
 460:Generated_Source\PSoC4/I2C_EZI2C.c **** *  I2C_dataBuffer1 – the pointer to the buffer to be exposed to the
 461:Generated_Source\PSoC4/I2C_EZI2C.c **** *  master on a primary address.
 462:Generated_Source\PSoC4/I2C_EZI2C.c **** *  I2C_bufSizeBuf1 - the size of the buffer to be exposed to the 
 463:Generated_Source\PSoC4/I2C_EZI2C.c **** *  master on a primary address.
 464:Generated_Source\PSoC4/I2C_EZI2C.c **** *  I2C_protectBuf1 - the start index of the read-only region in the
 465:Generated_Source\PSoC4/I2C_EZI2C.c **** *  buffer to be exposed to the master on a primary address. The read-only region
 466:Generated_Source\PSoC4/I2C_EZI2C.c **** *  continues up to the end the buffer.
 467:Generated_Source\PSoC4/I2C_EZI2C.c **** *
 468:Generated_Source\PSoC4/I2C_EZI2C.c **** *******************************************************************************/
 469:Generated_Source\PSoC4/I2C_EZI2C.c **** void I2C_EzI2CSetBuffer1(uint32 bufSize, uint32 rwBoundary, volatile uint8 * buffer)
 470:Generated_Source\PSoC4/I2C_EZI2C.c **** {
 293              		.loc 1 470 0
 294              		.cfi_startproc
 295              		@ args = 0, pretend = 0, frame = 0
 296              		@ frame_needed = 0, uses_anonymous_args = 0
 297              	.LVL14:
 298 0000 70B5     		push	{r4, r5, r6, lr}
 299              		.cfi_def_cfa_offset 16
 300              		.cfi_offset 4, -16
 301              		.cfi_offset 5, -12
 302              		.cfi_offset 6, -8
 303              		.cfi_offset 14, -4
 304 0002 0600     		movs	r6, r0
 305 0004 0D00     		movs	r5, r1
 306 0006 141E     		subs	r4, r2, #0
 471:Generated_Source\PSoC4/I2C_EZI2C.c ****     if (NULL != buffer)
 307              		.loc 1 471 0
 308 0008 0BD0     		beq	.L16
 472:Generated_Source\PSoC4/I2C_EZI2C.c ****     {
 473:Generated_Source\PSoC4/I2C_EZI2C.c ****         I2C_DisableInt();  /* Lock from interruption */
 309              		.loc 1 473 0
 310 000a 0A20     		movs	r0, #10
 311              	.LVL15:
 312 000c FFF7FEFF 		bl	CyIntDisable
 313              	.LVL16:
 474:Generated_Source\PSoC4/I2C_EZI2C.c **** 
 475:Generated_Source\PSoC4/I2C_EZI2C.c ****         I2C_dataBuffer1 =  buffer;
 314              		.loc 1 475 0
 315 0010 044B     		ldr	r3, .L18
 316 0012 1C60     		str	r4, [r3]
 476:Generated_Source\PSoC4/I2C_EZI2C.c ****         I2C_bufSizeBuf1 = (uint16) bufSize;
 317              		.loc 1 476 0
 318 0014 044B     		ldr	r3, .L18+4
 319 0016 1E80     		strh	r6, [r3]
 477:Generated_Source\PSoC4/I2C_EZI2C.c ****         I2C_protectBuf1 = (uint16) rwBoundary;
 320              		.loc 1 477 0
 321 0018 044B     		ldr	r3, .L18+8
ARM GAS  C:\Users\Ade0n\AppData\Local\Temp\ccx18Kxr.s 			page 15


 322 001a 1D80     		strh	r5, [r3]
 478:Generated_Source\PSoC4/I2C_EZI2C.c **** 
 479:Generated_Source\PSoC4/I2C_EZI2C.c ****         I2C_EnableInt();   /* Release lock */
 323              		.loc 1 479 0
 324 001c 0A20     		movs	r0, #10
 325 001e FFF7FEFF 		bl	CyIntEnable
 326              	.LVL17:
 327              	.L16:
 480:Generated_Source\PSoC4/I2C_EZI2C.c ****     }
 481:Generated_Source\PSoC4/I2C_EZI2C.c **** }
 328              		.loc 1 481 0
 329              		@ sp needed
 330              	.LVL18:
 331              	.LVL19:
 332              	.LVL20:
 333 0022 70BD     		pop	{r4, r5, r6, pc}
 334              	.L19:
 335              		.align	2
 336              	.L18:
 337 0024 00000000 		.word	I2C_dataBuffer1
 338 0028 00000000 		.word	I2C_bufSizeBuf1
 339 002c 00000000 		.word	I2C_protectBuf1
 340              		.cfi_endproc
 341              	.LFE7:
 342              		.size	I2C_EzI2CSetBuffer1, .-I2C_EzI2CSetBuffer1
 343              		.section	.text.I2C_EzI2CSetReadBoundaryBuffer1,"ax",%progbits
 344              		.align	2
 345              		.global	I2C_EzI2CSetReadBoundaryBuffer1
 346              		.code	16
 347              		.thumb_func
 348              		.type	I2C_EzI2CSetReadBoundaryBuffer1, %function
 349              	I2C_EzI2CSetReadBoundaryBuffer1:
 350              	.LFB8:
 482:Generated_Source\PSoC4/I2C_EZI2C.c **** 
 483:Generated_Source\PSoC4/I2C_EZI2C.c **** 
 484:Generated_Source\PSoC4/I2C_EZI2C.c **** /*******************************************************************************
 485:Generated_Source\PSoC4/I2C_EZI2C.c **** * Function Name: I2C_EzI2CSetReadBoundaryBuffer1
 486:Generated_Source\PSoC4/I2C_EZI2C.c **** ****************************************************************************//**
 487:Generated_Source\PSoC4/I2C_EZI2C.c **** *
 488:Generated_Source\PSoC4/I2C_EZI2C.c **** *  Sets the read only boundary in the data buffer to be exposed to the I2C
 489:Generated_Source\PSoC4/I2C_EZI2C.c **** *  master on a primary slave address request.
 490:Generated_Source\PSoC4/I2C_EZI2C.c **** *
 491:Generated_Source\PSoC4/I2C_EZI2C.c **** * \param rwBoundry: Number of data bytes starting from the beginning of the 
 492:Generated_Source\PSoC4/I2C_EZI2C.c **** *  buffer with read and write access. Data bytes located at offset rwBoundary 
 493:Generated_Source\PSoC4/I2C_EZI2C.c **** *  or greater are read only.
 494:Generated_Source\PSoC4/I2C_EZI2C.c **** *  This value must be less than or equal to the buffer size.
 495:Generated_Source\PSoC4/I2C_EZI2C.c **** *
 496:Generated_Source\PSoC4/I2C_EZI2C.c **** * \sideeffect
 497:Generated_Source\PSoC4/I2C_EZI2C.c **** *  Calling this function in the middle of a transaction intended for the 
 498:Generated_Source\PSoC4/I2C_EZI2C.c **** *  primary slave address leads to unexpected behavior.
 499:Generated_Source\PSoC4/I2C_EZI2C.c **** *
 500:Generated_Source\PSoC4/I2C_EZI2C.c **** * \globalvars
 501:Generated_Source\PSoC4/I2C_EZI2C.c **** *  I2C_protectBuf1 - the start index of the read-only region in the
 502:Generated_Source\PSoC4/I2C_EZI2C.c **** *  buffer to be exposed to the master on a primary address. The read-only region
 503:Generated_Source\PSoC4/I2C_EZI2C.c **** *  continues up to the end the buffer.
 504:Generated_Source\PSoC4/I2C_EZI2C.c **** *
 505:Generated_Source\PSoC4/I2C_EZI2C.c **** *******************************************************************************/
ARM GAS  C:\Users\Ade0n\AppData\Local\Temp\ccx18Kxr.s 			page 16


 506:Generated_Source\PSoC4/I2C_EZI2C.c **** void I2C_EzI2CSetReadBoundaryBuffer1(uint32 rwBoundary)
 507:Generated_Source\PSoC4/I2C_EZI2C.c **** {
 351              		.loc 1 507 0
 352              		.cfi_startproc
 353              		@ args = 0, pretend = 0, frame = 0
 354              		@ frame_needed = 0, uses_anonymous_args = 0
 355              		@ link register save eliminated.
 356              	.LVL21:
 508:Generated_Source\PSoC4/I2C_EZI2C.c ****     I2C_protectBuf1 = (uint16) rwBoundary;
 357              		.loc 1 508 0
 358 0000 014B     		ldr	r3, .L21
 359 0002 1880     		strh	r0, [r3]
 509:Generated_Source\PSoC4/I2C_EZI2C.c **** }
 360              		.loc 1 509 0
 361              		@ sp needed
 362 0004 7047     		bx	lr
 363              	.L22:
 364 0006 C046     		.align	2
 365              	.L21:
 366 0008 00000000 		.word	I2C_protectBuf1
 367              		.cfi_endproc
 368              	.LFE8:
 369              		.size	I2C_EzI2CSetReadBoundaryBuffer1, .-I2C_EzI2CSetReadBoundaryBuffer1
 370              		.comm	I2C_indexBuf1,2,2
 371              		.comm	I2C_offsetBuf1,1,1
 372              		.comm	I2C_protectBuf1,2,2
 373              		.comm	I2C_bufSizeBuf1,2,2
 374              		.comm	I2C_dataBuffer1,4,4
 375              		.comm	I2C_fsmState,1,1
 376              		.comm	I2C_curStatus,1,1
 377              		.text
 378              	.Letext0:
 379              		.file 2 "Generated_Source\\PSoC4/cytypes.h"
 380              		.file 3 "Generated_Source\\PSoC4/CyLib.h"