ARM GAS  C:\Users\Ade0n\AppData\Local\Temp\ccbVIZNJ.s 			page 1


   1              		.syntax unified
   2              		.cpu cortex-m0
   3              		.fpu softvfp
   4              		.eabi_attribute 20, 1
   5              		.eabi_attribute 21, 1
   6              		.eabi_attribute 23, 3
   7              		.eabi_attribute 24, 1
   8              		.eabi_attribute 25, 1
   9              		.eabi_attribute 26, 1
  10              		.eabi_attribute 30, 1
  11              		.eabi_attribute 34, 0
  12              		.eabi_attribute 18, 4
  13              		.thumb
  14              		.syntax unified
  15              		.file	"main.c"
  16              		.text
  17              	.Ltext0:
  18              		.cfi_sections	.debug_frame
  19              		.section	.text.ISR_Compare_Handler,"ax",%progbits
  20              		.align	2
  21              		.global	ISR_Compare_Handler
  22              		.code	16
  23              		.thumb_func
  24              		.type	ISR_Compare_Handler, %function
  25              	ISR_Compare_Handler:
  26              	.LFB36:
  27              		.file 1 "main.c"
   1:main.c        **** /* ========================================
   2:main.c        ****  *
   3:main.c        ****  * Copyright YOUR COMPANY, THE YEAR
   4:main.c        ****  * All Rights Reserved
   5:main.c        ****  * UNPUBLISHED, LICENSED SOFTWARE.
   6:main.c        ****  *
   7:main.c        ****  * CONFIDENTIAL AND PROPRIETARY INFORMATION
   8:main.c        ****  * WHICH IS THE PROPERTY OF your company.
   9:main.c        ****  *
  10:main.c        ****  * ========================================
  11:main.c        **** */
  12:main.c        **** #include "project.h"
  13:main.c        **** #include <stdio.h>
  14:main.c        **** #include "main_data.h"
  15:main.c        **** 
  16:main.c        **** 
  17:main.c        **** // For now this is not used Anywhere. TODO
  18:main.c        **** CY_ISR( ISR_Compare_Handler )
  19:main.c        **** {
  28              		.loc 1 19 0
  29              		.cfi_startproc
  30              		@ args = 0, pretend = 0, frame = 0
  31              		@ frame_needed = 0, uses_anonymous_args = 0
  32 0000 10B5     		push	{r4, lr}
  33              		.cfi_def_cfa_offset 8
  34              		.cfi_offset 4, -8
  35              		.cfi_offset 14, -4
  20:main.c        ****     signals_per_time_unit = Counter_ReadCounter();
  36              		.loc 1 20 0
  37 0002 FFF7FEFF 		bl	Counter_ReadCounter
ARM GAS  C:\Users\Ade0n\AppData\Local\Temp\ccbVIZNJ.s 			page 2


  38              	.LVL0:
  39 0006 034B     		ldr	r3, .L2
  40 0008 1860     		str	r0, [r3]
  21:main.c        ****     
  22:main.c        **** 
  23:main.c        ****     PWM_ClearInterrupt(PWM_INTR_MASK_TC);
  41              		.loc 1 23 0
  42 000a 0120     		movs	r0, #1
  43 000c FFF7FEFF 		bl	PWM_ClearInterrupt
  44              	.LVL1:
  24:main.c        **** }
  45              		.loc 1 24 0
  46              		@ sp needed
  47 0010 10BD     		pop	{r4, pc}
  48              	.L3:
  49 0012 C046     		.align	2
  50              	.L2:
  51 0014 00000000 		.word	signals_per_time_unit
  52              		.cfi_endproc
  53              	.LFE36:
  54              		.size	ISR_Compare_Handler, .-ISR_Compare_Handler
  55              		.section	.text.main,"ax",%progbits
  56              		.align	2
  57              		.global	main
  58              		.code	16
  59              		.thumb_func
  60              		.type	main, %function
  61              	main:
  62              	.LFB37:
  25:main.c        **** 
  26:main.c        **** 
  27:main.c        **** int main(void)
  28:main.c        **** {
  63              		.loc 1 28 0
  64              		.cfi_startproc
  65              		@ args = 0, pretend = 0, frame = 8
  66              		@ frame_needed = 0, uses_anonymous_args = 0
  67 0000 70B5     		push	{r4, r5, r6, lr}
  68              		.cfi_def_cfa_offset 16
  69              		.cfi_offset 4, -16
  70              		.cfi_offset 5, -12
  71              		.cfi_offset 6, -8
  72              		.cfi_offset 14, -4
  73 0002 82B0     		sub	sp, sp, #8
  74              		.cfi_def_cfa_offset 24
  29:main.c        ****     CyGlobalIntEnable; /* Enable global interrupts. */
  75              		.loc 1 29 0
  76              		.syntax divided
  77              	@ 29 "main.c" 1
  78 0004 62B6     		CPSIE   i
  79              	@ 0 "" 2
  30:main.c        ****     
  31:main.c        ****     // Initialize some variables
  32:main.c        ****     signals_per_time_unit = 0;
  80              		.loc 1 32 0
  81              		.thumb
  82              		.syntax unified
ARM GAS  C:\Users\Ade0n\AppData\Local\Temp\ccbVIZNJ.s 			page 3


  83 0006 0023     		movs	r3, #0
  84 0008 204A     		ldr	r2, .L12
  85 000a 1360     		str	r3, [r2]
  86              	.LVL2:
  33:main.c        ****     uint32_t pwm_signal = 0;
  34:main.c        ****     uint32_t current_rpm = 0;
  35:main.c        ****     char uart_rpm_buff[4];     // This is to print RMP through UART(uint32)
  36:main.c        ****     uint8 uart_print_flag = 0;
  37:main.c        ****     // I2C variables
  38:main.c        ****     uint16 motor_speed_pwm = 0;
  39:main.c        ****     uint8 i2c_buff[1];
  40:main.c        ****     i2c_buff[0] = 0;
  87              		.loc 1 40 0
  88 000c 6A46     		mov	r2, sp
  89 000e 1370     		strb	r3, [r2]
  41:main.c        ****     
  42:main.c        **** 
  43:main.c        ****     /* Start Everything Up */
  44:main.c        ****     PWM_Start();
  90              		.loc 1 44 0
  91 0010 FFF7FEFF 		bl	PWM_Start
  92              	.LVL3:
  45:main.c        ****     PWM_Motor_Start();
  93              		.loc 1 45 0
  94 0014 FFF7FEFF 		bl	PWM_Motor_Start
  95              	.LVL4:
  46:main.c        ****     Counter_Start();
  96              		.loc 1 46 0
  97 0018 FFF7FEFF 		bl	Counter_Start
  98              	.LVL5:
  47:main.c        ****     UART_Start();
  99              		.loc 1 47 0
 100 001c FFF7FEFF 		bl	UART_Start
 101              	.LVL6:
  48:main.c        ****     I2C_Start();
 102              		.loc 1 48 0
 103 0020 FFF7FEFF 		bl	I2C_Start
 104              	.LVL7:
  49:main.c        ****     
  50:main.c        ****     I2C_EzI2CSetBuffer1(1, 1, i2c_buff);
 105              		.loc 1 50 0
 106 0024 6A46     		mov	r2, sp
 107 0026 0121     		movs	r1, #1
 108 0028 0120     		movs	r0, #1
 109 002a FFF7FEFF 		bl	I2C_EzI2CSetBuffer1
 110              	.LVL8:
  38:main.c        ****     uint8 i2c_buff[1];
 111              		.loc 1 38 0
 112 002e 0025     		movs	r5, #0
  36:main.c        ****     // I2C variables
 113              		.loc 1 36 0
 114 0030 0026     		movs	r6, #0
 115 0032 00E0     		b	.L5
 116              	.LVL9:
 117              	.L11:
  51:main.c        ****     
  52:main.c        ****     
ARM GAS  C:\Users\Ade0n\AppData\Local\Temp\ccbVIZNJ.s 			page 4


  53:main.c        ****     for(;;)
  54:main.c        ****     {   
  55:main.c        ****         // Manage I2C Input
  56:main.c        ****         if (motor_speed_pwm != i2c_buff[0]) {
  57:main.c        ****             // This if statement only exists since we use drivers that cannot handle slow speeds.
  58:main.c        ****             // Remove this check only if you want to BURN down the driver or have a better one.
  59:main.c        ****             motor_speed_pwm = i2c_buff[0];
  60:main.c        ****             if (motor_speed_pwm > 100) {
  61:main.c        ****                 PWM_Motor_WriteCompare(motor_speed_pwm);
  62:main.c        ****             }
  63:main.c        ****         }
  64:main.c        ****         
  65:main.c        ****         // Manage RPM counting and UART output
  66:main.c        ****         pwm_signal = PWM_ReadCounter();
  67:main.c        ****         
  68:main.c        ****         // BIG KOSTIL, should be changed to interrupts ASAP.
  69:main.c        ****         if (pwm_signal == 4998 && uart_print_flag == 0) {
  70:main.c        ****             signals_per_time_unit = Counter_ReadCounter();
  71:main.c        ****             
  72:main.c        ****             
  73:main.c        ****             // Convert signal to RPM
  74:main.c        ****             current_rpm = (2 * signals_per_time_unit);
  75:main.c        ****             
  76:main.c        ****             // Put RMP into buffer and send it to UART
  77:main.c        ****             sprintf(uart_rpm_buff, "%u", current_rpm);
  78:main.c        ****             UART_UartPutChar('\n');
  79:main.c        ****             UART_UartPutChar('\r');
  80:main.c        ****             UART_UartPutString(uart_rpm_buff);
  81:main.c        ****             uart_print_flag = 1;
  82:main.c        ****         } else if (pwm_signal == 1){
  83:main.c        ****             uart_print_flag = 0;
 118              		.loc 1 83 0
 119 0034 0026     		movs	r6, #0
 120              	.LVL10:
 121              	.L5:
  56:main.c        ****             // This if statement only exists since we use drivers that cannot handle slow speeds.
 122              		.loc 1 56 0
 123 0036 6B46     		mov	r3, sp
 124 0038 1878     		ldrb	r0, [r3]
 125 003a 84B2     		uxth	r4, r0
 126 003c A542     		cmp	r5, r4
 127 003e 06D0     		beq	.L6
 128              	.LVL11:
  60:main.c        ****                 PWM_Motor_WriteCompare(motor_speed_pwm);
 129              		.loc 1 60 0
 130 0040 642C     		cmp	r4, #100
 131 0042 03D9     		bls	.L10
  61:main.c        ****             }
 132              		.loc 1 61 0
 133 0044 FFF7FEFF 		bl	PWM_Motor_WriteCompare
 134              	.LVL12:
  59:main.c        ****             if (motor_speed_pwm > 100) {
 135              		.loc 1 59 0
 136 0048 2500     		movs	r5, r4
 137 004a 00E0     		b	.L6
 138              	.L10:
 139 004c 2500     		movs	r5, r4
ARM GAS  C:\Users\Ade0n\AppData\Local\Temp\ccbVIZNJ.s 			page 5


 140              	.LVL13:
 141              	.L6:
  66:main.c        ****         
 142              		.loc 1 66 0
 143 004e FFF7FEFF 		bl	PWM_ReadCounter
 144              	.LVL14:
  69:main.c        ****             signals_per_time_unit = Counter_ReadCounter();
 145              		.loc 1 69 0
 146 0052 0F4B     		ldr	r3, .L12+4
 147 0054 9842     		cmp	r0, r3
 148 0056 15D1     		bne	.L7
  69:main.c        ****             signals_per_time_unit = Counter_ReadCounter();
 149              		.loc 1 69 0 is_stmt 0 discriminator 1
 150 0058 002E     		cmp	r6, #0
 151 005a 13D1     		bne	.L7
  70:main.c        ****             
 152              		.loc 1 70 0 is_stmt 1
 153 005c FFF7FEFF 		bl	Counter_ReadCounter
 154              	.LVL15:
 155 0060 0A4B     		ldr	r3, .L12
 156 0062 1860     		str	r0, [r3]
  74:main.c        ****             
 157              		.loc 1 74 0
 158 0064 4200     		lsls	r2, r0, #1
 159              	.LVL16:
  77:main.c        ****             UART_UartPutChar('\n');
 160              		.loc 1 77 0
 161 0066 0B49     		ldr	r1, .L12+8
 162 0068 01A8     		add	r0, sp, #4
 163 006a FFF7FEFF 		bl	sprintf
 164              	.LVL17:
  78:main.c        ****             UART_UartPutChar('\r');
 165              		.loc 1 78 0
 166 006e 0A20     		movs	r0, #10
 167 0070 FFF7FEFF 		bl	UART_SpiUartWriteTxData
 168              	.LVL18:
  79:main.c        ****             UART_UartPutString(uart_rpm_buff);
 169              		.loc 1 79 0
 170 0074 0D20     		movs	r0, #13
 171 0076 FFF7FEFF 		bl	UART_SpiUartWriteTxData
 172              	.LVL19:
  80:main.c        ****             uart_print_flag = 1;
 173              		.loc 1 80 0
 174 007a 01A8     		add	r0, sp, #4
 175 007c FFF7FEFF 		bl	UART_UartPutString
 176              	.LVL20:
  81:main.c        ****         } else if (pwm_signal == 1){
 177              		.loc 1 81 0
 178 0080 0136     		adds	r6, r6, #1
 179 0082 D8E7     		b	.L5
 180              	.LVL21:
 181              	.L7:
  82:main.c        ****             uart_print_flag = 0;
 182              		.loc 1 82 0
 183 0084 0128     		cmp	r0, #1
 184 0086 D6D1     		bne	.L5
 185 0088 D4E7     		b	.L11
ARM GAS  C:\Users\Ade0n\AppData\Local\Temp\ccbVIZNJ.s 			page 6


 186              	.L13:
 187 008a C046     		.align	2
 188              	.L12:
 189 008c 00000000 		.word	signals_per_time_unit
 190 0090 86130000 		.word	4998
 191 0094 00000000 		.word	.LC2
 192              		.cfi_endproc
 193              	.LFE37:
 194              		.size	main, .-main
 195              		.comm	signals_per_time_unit,4,4
 196              		.section	.rodata.str1.4,"aMS",%progbits,1
 197              		.align	2
 198              	.LC2:
 199 0000 257500   		.ascii	"%u\000"
 200              		.text
 201              	.Letext0:
 202              		.file 2 "c:\\program files (x86)\\cypress\\psoc creator\\4.4\\psoc creator\\import\\gnu\\arm\\5.4.
 203              		.file 3 "c:\\program files (x86)\\cypress\\psoc creator\\4.4\\psoc creator\\import\\gnu\\arm\\5.4.
 204              		.file 4 "Generated_Source\\PSoC4/cytypes.h"
 205              		.file 5 "Generated_Source\\PSoC4/Counter.h"
 206              		.file 6 "Generated_Source\\PSoC4/PWM.h"
 207              		.file 7 "Generated_Source\\PSoC4/PWM_Motor.h"
 208              		.file 8 "Generated_Source\\PSoC4/UART.h"
 209              		.file 9 "Generated_Source\\PSoC4/I2C.h"
 210              		.file 10 "Generated_Source\\PSoC4/I2C_EZI2C.h"
 211              		.file 11 "c:\\program files (x86)\\cypress\\psoc creator\\4.4\\psoc creator\\import\\gnu\\arm\\5.4
 212              		.file 12 "Generated_Source\\PSoC4/UART_SPI_UART.h"
 213              		.file 13 "main_data.h"