ARM GAS  C:\Users\Ade0n\AppData\Local\Temp\ccqKniWt.s 			page 1


   1              		.syntax unified
   2              		.cpu cortex-m0
   3              		.fpu softvfp
   4              		.eabi_attribute 20, 1
   5              		.eabi_attribute 21, 1
   6              		.eabi_attribute 23, 3
   7              		.eabi_attribute 24, 1
   8              		.eabi_attribute 25, 1
   9              		.eabi_attribute 26, 1
  10              		.eabi_attribute 30, 1
  11              		.eabi_attribute 34, 0
  12              		.eabi_attribute 18, 4
  13              		.thumb
  14              		.syntax unified
  15              		.file	"Timer_OutputSpeed.c"
  16              		.text
  17              	.Ltext0:
  18              		.cfi_sections	.debug_frame
  19              		.section	.text.Timer_OutputSpeed_Stop,"ax",%progbits
  20              		.align	2
  21              		.global	Timer_OutputSpeed_Stop
  22              		.code	16
  23              		.thumb_func
  24              		.type	Timer_OutputSpeed_Stop, %function
  25              	Timer_OutputSpeed_Stop:
  26              	.LFB5:
  27              		.file 1 "Generated_Source\\PSoC4\\Timer_OutputSpeed.c"
   1:Generated_Source\PSoC4/Timer_OutputSpeed.c **** /*******************************************************************************
   2:Generated_Source\PSoC4/Timer_OutputSpeed.c **** * File Name: Timer_OutputSpeed.c
   3:Generated_Source\PSoC4/Timer_OutputSpeed.c **** * Version 2.10
   4:Generated_Source\PSoC4/Timer_OutputSpeed.c **** *
   5:Generated_Source\PSoC4/Timer_OutputSpeed.c **** * Description:
   6:Generated_Source\PSoC4/Timer_OutputSpeed.c **** *  This file provides the source code to the API for the Timer_OutputSpeed
   7:Generated_Source\PSoC4/Timer_OutputSpeed.c **** *  component
   8:Generated_Source\PSoC4/Timer_OutputSpeed.c **** *
   9:Generated_Source\PSoC4/Timer_OutputSpeed.c **** * Note:
  10:Generated_Source\PSoC4/Timer_OutputSpeed.c **** *  None
  11:Generated_Source\PSoC4/Timer_OutputSpeed.c **** *
  12:Generated_Source\PSoC4/Timer_OutputSpeed.c **** ********************************************************************************
  13:Generated_Source\PSoC4/Timer_OutputSpeed.c **** * Copyright 2013-2015, Cypress Semiconductor Corporation.  All rights reserved.
  14:Generated_Source\PSoC4/Timer_OutputSpeed.c **** * You may use this file only in accordance with the license, terms, conditions,
  15:Generated_Source\PSoC4/Timer_OutputSpeed.c **** * disclaimers, and limitations in the end user license agreement accompanying
  16:Generated_Source\PSoC4/Timer_OutputSpeed.c **** * the software package with which this file was provided.
  17:Generated_Source\PSoC4/Timer_OutputSpeed.c **** *******************************************************************************/
  18:Generated_Source\PSoC4/Timer_OutputSpeed.c **** 
  19:Generated_Source\PSoC4/Timer_OutputSpeed.c **** #include "Timer_OutputSpeed.h"
  20:Generated_Source\PSoC4/Timer_OutputSpeed.c **** 
  21:Generated_Source\PSoC4/Timer_OutputSpeed.c **** uint8 Timer_OutputSpeed_initVar = 0u;
  22:Generated_Source\PSoC4/Timer_OutputSpeed.c **** 
  23:Generated_Source\PSoC4/Timer_OutputSpeed.c **** 
  24:Generated_Source\PSoC4/Timer_OutputSpeed.c **** /*******************************************************************************
  25:Generated_Source\PSoC4/Timer_OutputSpeed.c **** * Function Name: Timer_OutputSpeed_Init
  26:Generated_Source\PSoC4/Timer_OutputSpeed.c **** ********************************************************************************
  27:Generated_Source\PSoC4/Timer_OutputSpeed.c **** *
  28:Generated_Source\PSoC4/Timer_OutputSpeed.c **** * Summary:
  29:Generated_Source\PSoC4/Timer_OutputSpeed.c **** *  Initialize/Restore default Timer_OutputSpeed configuration.
  30:Generated_Source\PSoC4/Timer_OutputSpeed.c **** *
ARM GAS  C:\Users\Ade0n\AppData\Local\Temp\ccqKniWt.s 			page 2


  31:Generated_Source\PSoC4/Timer_OutputSpeed.c **** * Parameters:
  32:Generated_Source\PSoC4/Timer_OutputSpeed.c **** *  None
  33:Generated_Source\PSoC4/Timer_OutputSpeed.c **** *
  34:Generated_Source\PSoC4/Timer_OutputSpeed.c **** * Return:
  35:Generated_Source\PSoC4/Timer_OutputSpeed.c **** *  None
  36:Generated_Source\PSoC4/Timer_OutputSpeed.c **** *
  37:Generated_Source\PSoC4/Timer_OutputSpeed.c **** *******************************************************************************/
  38:Generated_Source\PSoC4/Timer_OutputSpeed.c **** void Timer_OutputSpeed_Init(void)
  39:Generated_Source\PSoC4/Timer_OutputSpeed.c **** {
  40:Generated_Source\PSoC4/Timer_OutputSpeed.c **** 
  41:Generated_Source\PSoC4/Timer_OutputSpeed.c ****     /* Set values from customizer to CTRL */
  42:Generated_Source\PSoC4/Timer_OutputSpeed.c ****     #if (Timer_OutputSpeed__QUAD == Timer_OutputSpeed_CONFIG)
  43:Generated_Source\PSoC4/Timer_OutputSpeed.c ****         Timer_OutputSpeed_CONTROL_REG = Timer_OutputSpeed_CTRL_QUAD_BASE_CONFIG;
  44:Generated_Source\PSoC4/Timer_OutputSpeed.c ****         
  45:Generated_Source\PSoC4/Timer_OutputSpeed.c ****         /* Set values from customizer to CTRL1 */
  46:Generated_Source\PSoC4/Timer_OutputSpeed.c ****         Timer_OutputSpeed_TRIG_CONTROL1_REG  = Timer_OutputSpeed_QUAD_SIGNALS_MODES;
  47:Generated_Source\PSoC4/Timer_OutputSpeed.c **** 
  48:Generated_Source\PSoC4/Timer_OutputSpeed.c ****         /* Set values from customizer to INTR */
  49:Generated_Source\PSoC4/Timer_OutputSpeed.c ****         Timer_OutputSpeed_SetInterruptMode(Timer_OutputSpeed_QUAD_INTERRUPT_MASK);
  50:Generated_Source\PSoC4/Timer_OutputSpeed.c ****         
  51:Generated_Source\PSoC4/Timer_OutputSpeed.c ****          /* Set other values */
  52:Generated_Source\PSoC4/Timer_OutputSpeed.c ****         Timer_OutputSpeed_SetCounterMode(Timer_OutputSpeed_COUNT_DOWN);
  53:Generated_Source\PSoC4/Timer_OutputSpeed.c ****         Timer_OutputSpeed_WritePeriod(Timer_OutputSpeed_QUAD_PERIOD_INIT_VALUE);
  54:Generated_Source\PSoC4/Timer_OutputSpeed.c ****         Timer_OutputSpeed_WriteCounter(Timer_OutputSpeed_QUAD_PERIOD_INIT_VALUE);
  55:Generated_Source\PSoC4/Timer_OutputSpeed.c ****     #endif  /* (Timer_OutputSpeed__QUAD == Timer_OutputSpeed_CONFIG) */
  56:Generated_Source\PSoC4/Timer_OutputSpeed.c **** 
  57:Generated_Source\PSoC4/Timer_OutputSpeed.c ****     #if (Timer_OutputSpeed__TIMER == Timer_OutputSpeed_CONFIG)
  58:Generated_Source\PSoC4/Timer_OutputSpeed.c ****         Timer_OutputSpeed_CONTROL_REG = Timer_OutputSpeed_CTRL_TIMER_BASE_CONFIG;
  59:Generated_Source\PSoC4/Timer_OutputSpeed.c ****         
  60:Generated_Source\PSoC4/Timer_OutputSpeed.c ****         /* Set values from customizer to CTRL1 */
  61:Generated_Source\PSoC4/Timer_OutputSpeed.c ****         Timer_OutputSpeed_TRIG_CONTROL1_REG  = Timer_OutputSpeed_TIMER_SIGNALS_MODES;
  62:Generated_Source\PSoC4/Timer_OutputSpeed.c ****     
  63:Generated_Source\PSoC4/Timer_OutputSpeed.c ****         /* Set values from customizer to INTR */
  64:Generated_Source\PSoC4/Timer_OutputSpeed.c ****         Timer_OutputSpeed_SetInterruptMode(Timer_OutputSpeed_TC_INTERRUPT_MASK);
  65:Generated_Source\PSoC4/Timer_OutputSpeed.c ****         
  66:Generated_Source\PSoC4/Timer_OutputSpeed.c ****         /* Set other values from customizer */
  67:Generated_Source\PSoC4/Timer_OutputSpeed.c ****         Timer_OutputSpeed_WritePeriod(Timer_OutputSpeed_TC_PERIOD_VALUE );
  68:Generated_Source\PSoC4/Timer_OutputSpeed.c **** 
  69:Generated_Source\PSoC4/Timer_OutputSpeed.c ****         #if (Timer_OutputSpeed__COMPARE == Timer_OutputSpeed_TC_COMP_CAP_MODE)
  70:Generated_Source\PSoC4/Timer_OutputSpeed.c ****             Timer_OutputSpeed_WriteCompare(Timer_OutputSpeed_TC_COMPARE_VALUE);
  71:Generated_Source\PSoC4/Timer_OutputSpeed.c **** 
  72:Generated_Source\PSoC4/Timer_OutputSpeed.c ****             #if (1u == Timer_OutputSpeed_TC_COMPARE_SWAP)
  73:Generated_Source\PSoC4/Timer_OutputSpeed.c ****                 Timer_OutputSpeed_SetCompareSwap(1u);
  74:Generated_Source\PSoC4/Timer_OutputSpeed.c ****                 Timer_OutputSpeed_WriteCompareBuf(Timer_OutputSpeed_TC_COMPARE_BUF_VALUE);
  75:Generated_Source\PSoC4/Timer_OutputSpeed.c ****             #endif  /* (1u == Timer_OutputSpeed_TC_COMPARE_SWAP) */
  76:Generated_Source\PSoC4/Timer_OutputSpeed.c ****         #endif  /* (Timer_OutputSpeed__COMPARE == Timer_OutputSpeed_TC_COMP_CAP_MODE) */
  77:Generated_Source\PSoC4/Timer_OutputSpeed.c **** 
  78:Generated_Source\PSoC4/Timer_OutputSpeed.c ****         /* Initialize counter value */
  79:Generated_Source\PSoC4/Timer_OutputSpeed.c ****         #if (Timer_OutputSpeed_CY_TCPWM_V2 && Timer_OutputSpeed_TIMER_UPDOWN_CNT_USED && !Timer_Out
  80:Generated_Source\PSoC4/Timer_OutputSpeed.c ****             Timer_OutputSpeed_WriteCounter(1u);
  81:Generated_Source\PSoC4/Timer_OutputSpeed.c ****         #elif(Timer_OutputSpeed__COUNT_DOWN == Timer_OutputSpeed_TC_COUNTER_MODE)
  82:Generated_Source\PSoC4/Timer_OutputSpeed.c ****             Timer_OutputSpeed_WriteCounter(Timer_OutputSpeed_TC_PERIOD_VALUE);
  83:Generated_Source\PSoC4/Timer_OutputSpeed.c ****         #else
  84:Generated_Source\PSoC4/Timer_OutputSpeed.c ****             Timer_OutputSpeed_WriteCounter(0u);
  85:Generated_Source\PSoC4/Timer_OutputSpeed.c ****         #endif /* (Timer_OutputSpeed_CY_TCPWM_V2 && Timer_OutputSpeed_TIMER_UPDOWN_CNT_USED && !Tim
  86:Generated_Source\PSoC4/Timer_OutputSpeed.c ****     #endif  /* (Timer_OutputSpeed__TIMER == Timer_OutputSpeed_CONFIG) */
  87:Generated_Source\PSoC4/Timer_OutputSpeed.c **** 
ARM GAS  C:\Users\Ade0n\AppData\Local\Temp\ccqKniWt.s 			page 3


  88:Generated_Source\PSoC4/Timer_OutputSpeed.c ****     #if (Timer_OutputSpeed__PWM_SEL == Timer_OutputSpeed_CONFIG)
  89:Generated_Source\PSoC4/Timer_OutputSpeed.c ****         Timer_OutputSpeed_CONTROL_REG = Timer_OutputSpeed_CTRL_PWM_BASE_CONFIG;
  90:Generated_Source\PSoC4/Timer_OutputSpeed.c **** 
  91:Generated_Source\PSoC4/Timer_OutputSpeed.c ****         #if (Timer_OutputSpeed__PWM_PR == Timer_OutputSpeed_PWM_MODE)
  92:Generated_Source\PSoC4/Timer_OutputSpeed.c ****             Timer_OutputSpeed_CONTROL_REG |= Timer_OutputSpeed_CTRL_PWM_RUN_MODE;
  93:Generated_Source\PSoC4/Timer_OutputSpeed.c ****             Timer_OutputSpeed_WriteCounter(Timer_OutputSpeed_PWM_PR_INIT_VALUE);
  94:Generated_Source\PSoC4/Timer_OutputSpeed.c ****         #else
  95:Generated_Source\PSoC4/Timer_OutputSpeed.c ****             Timer_OutputSpeed_CONTROL_REG |= Timer_OutputSpeed_CTRL_PWM_ALIGN | Timer_OutputSpeed_C
  96:Generated_Source\PSoC4/Timer_OutputSpeed.c ****             
  97:Generated_Source\PSoC4/Timer_OutputSpeed.c ****             /* Initialize counter value */
  98:Generated_Source\PSoC4/Timer_OutputSpeed.c ****             #if (Timer_OutputSpeed_CY_TCPWM_V2 && Timer_OutputSpeed_PWM_UPDOWN_CNT_USED && !Timer_O
  99:Generated_Source\PSoC4/Timer_OutputSpeed.c ****                 Timer_OutputSpeed_WriteCounter(1u);
 100:Generated_Source\PSoC4/Timer_OutputSpeed.c ****             #elif (Timer_OutputSpeed__RIGHT == Timer_OutputSpeed_PWM_ALIGN)
 101:Generated_Source\PSoC4/Timer_OutputSpeed.c ****                 Timer_OutputSpeed_WriteCounter(Timer_OutputSpeed_PWM_PERIOD_VALUE);
 102:Generated_Source\PSoC4/Timer_OutputSpeed.c ****             #else 
 103:Generated_Source\PSoC4/Timer_OutputSpeed.c ****                 Timer_OutputSpeed_WriteCounter(0u);
 104:Generated_Source\PSoC4/Timer_OutputSpeed.c ****             #endif  /* (Timer_OutputSpeed_CY_TCPWM_V2 && Timer_OutputSpeed_PWM_UPDOWN_CNT_USED && !
 105:Generated_Source\PSoC4/Timer_OutputSpeed.c ****         #endif  /* (Timer_OutputSpeed__PWM_PR == Timer_OutputSpeed_PWM_MODE) */
 106:Generated_Source\PSoC4/Timer_OutputSpeed.c **** 
 107:Generated_Source\PSoC4/Timer_OutputSpeed.c ****         #if (Timer_OutputSpeed__PWM_DT == Timer_OutputSpeed_PWM_MODE)
 108:Generated_Source\PSoC4/Timer_OutputSpeed.c ****             Timer_OutputSpeed_CONTROL_REG |= Timer_OutputSpeed_CTRL_PWM_DEAD_TIME_CYCLE;
 109:Generated_Source\PSoC4/Timer_OutputSpeed.c ****         #endif  /* (Timer_OutputSpeed__PWM_DT == Timer_OutputSpeed_PWM_MODE) */
 110:Generated_Source\PSoC4/Timer_OutputSpeed.c **** 
 111:Generated_Source\PSoC4/Timer_OutputSpeed.c ****         #if (Timer_OutputSpeed__PWM == Timer_OutputSpeed_PWM_MODE)
 112:Generated_Source\PSoC4/Timer_OutputSpeed.c ****             Timer_OutputSpeed_CONTROL_REG |= Timer_OutputSpeed_CTRL_PWM_PRESCALER;
 113:Generated_Source\PSoC4/Timer_OutputSpeed.c ****         #endif  /* (Timer_OutputSpeed__PWM == Timer_OutputSpeed_PWM_MODE) */
 114:Generated_Source\PSoC4/Timer_OutputSpeed.c **** 
 115:Generated_Source\PSoC4/Timer_OutputSpeed.c ****         /* Set values from customizer to CTRL1 */
 116:Generated_Source\PSoC4/Timer_OutputSpeed.c ****         Timer_OutputSpeed_TRIG_CONTROL1_REG  = Timer_OutputSpeed_PWM_SIGNALS_MODES;
 117:Generated_Source\PSoC4/Timer_OutputSpeed.c ****     
 118:Generated_Source\PSoC4/Timer_OutputSpeed.c ****         /* Set values from customizer to INTR */
 119:Generated_Source\PSoC4/Timer_OutputSpeed.c ****         Timer_OutputSpeed_SetInterruptMode(Timer_OutputSpeed_PWM_INTERRUPT_MASK);
 120:Generated_Source\PSoC4/Timer_OutputSpeed.c **** 
 121:Generated_Source\PSoC4/Timer_OutputSpeed.c ****         /* Set values from customizer to CTRL2 */
 122:Generated_Source\PSoC4/Timer_OutputSpeed.c ****         #if (Timer_OutputSpeed__PWM_PR == Timer_OutputSpeed_PWM_MODE)
 123:Generated_Source\PSoC4/Timer_OutputSpeed.c ****             Timer_OutputSpeed_TRIG_CONTROL2_REG =
 124:Generated_Source\PSoC4/Timer_OutputSpeed.c ****                     (Timer_OutputSpeed_CC_MATCH_NO_CHANGE    |
 125:Generated_Source\PSoC4/Timer_OutputSpeed.c ****                     Timer_OutputSpeed_OVERLOW_NO_CHANGE      |
 126:Generated_Source\PSoC4/Timer_OutputSpeed.c ****                     Timer_OutputSpeed_UNDERFLOW_NO_CHANGE);
 127:Generated_Source\PSoC4/Timer_OutputSpeed.c ****         #else
 128:Generated_Source\PSoC4/Timer_OutputSpeed.c ****             #if (Timer_OutputSpeed__LEFT == Timer_OutputSpeed_PWM_ALIGN)
 129:Generated_Source\PSoC4/Timer_OutputSpeed.c ****                 Timer_OutputSpeed_TRIG_CONTROL2_REG = Timer_OutputSpeed_PWM_MODE_LEFT;
 130:Generated_Source\PSoC4/Timer_OutputSpeed.c ****             #endif  /* ( Timer_OutputSpeed_PWM_LEFT == Timer_OutputSpeed_PWM_ALIGN) */
 131:Generated_Source\PSoC4/Timer_OutputSpeed.c **** 
 132:Generated_Source\PSoC4/Timer_OutputSpeed.c ****             #if (Timer_OutputSpeed__RIGHT == Timer_OutputSpeed_PWM_ALIGN)
 133:Generated_Source\PSoC4/Timer_OutputSpeed.c ****                 Timer_OutputSpeed_TRIG_CONTROL2_REG = Timer_OutputSpeed_PWM_MODE_RIGHT;
 134:Generated_Source\PSoC4/Timer_OutputSpeed.c ****             #endif  /* ( Timer_OutputSpeed_PWM_RIGHT == Timer_OutputSpeed_PWM_ALIGN) */
 135:Generated_Source\PSoC4/Timer_OutputSpeed.c **** 
 136:Generated_Source\PSoC4/Timer_OutputSpeed.c ****             #if (Timer_OutputSpeed__CENTER == Timer_OutputSpeed_PWM_ALIGN)
 137:Generated_Source\PSoC4/Timer_OutputSpeed.c ****                 Timer_OutputSpeed_TRIG_CONTROL2_REG = Timer_OutputSpeed_PWM_MODE_CENTER;
 138:Generated_Source\PSoC4/Timer_OutputSpeed.c ****             #endif  /* ( Timer_OutputSpeed_PWM_CENTER == Timer_OutputSpeed_PWM_ALIGN) */
 139:Generated_Source\PSoC4/Timer_OutputSpeed.c **** 
 140:Generated_Source\PSoC4/Timer_OutputSpeed.c ****             #if (Timer_OutputSpeed__ASYMMETRIC == Timer_OutputSpeed_PWM_ALIGN)
 141:Generated_Source\PSoC4/Timer_OutputSpeed.c ****                 Timer_OutputSpeed_TRIG_CONTROL2_REG = Timer_OutputSpeed_PWM_MODE_ASYM;
 142:Generated_Source\PSoC4/Timer_OutputSpeed.c ****             #endif  /* (Timer_OutputSpeed__ASYMMETRIC == Timer_OutputSpeed_PWM_ALIGN) */
 143:Generated_Source\PSoC4/Timer_OutputSpeed.c ****         #endif  /* (Timer_OutputSpeed__PWM_PR == Timer_OutputSpeed_PWM_MODE) */
 144:Generated_Source\PSoC4/Timer_OutputSpeed.c **** 
ARM GAS  C:\Users\Ade0n\AppData\Local\Temp\ccqKniWt.s 			page 4


 145:Generated_Source\PSoC4/Timer_OutputSpeed.c ****         /* Set other values from customizer */
 146:Generated_Source\PSoC4/Timer_OutputSpeed.c ****         Timer_OutputSpeed_WritePeriod(Timer_OutputSpeed_PWM_PERIOD_VALUE );
 147:Generated_Source\PSoC4/Timer_OutputSpeed.c ****         Timer_OutputSpeed_WriteCompare(Timer_OutputSpeed_PWM_COMPARE_VALUE);
 148:Generated_Source\PSoC4/Timer_OutputSpeed.c **** 
 149:Generated_Source\PSoC4/Timer_OutputSpeed.c ****         #if (1u == Timer_OutputSpeed_PWM_COMPARE_SWAP)
 150:Generated_Source\PSoC4/Timer_OutputSpeed.c ****             Timer_OutputSpeed_SetCompareSwap(1u);
 151:Generated_Source\PSoC4/Timer_OutputSpeed.c ****             Timer_OutputSpeed_WriteCompareBuf(Timer_OutputSpeed_PWM_COMPARE_BUF_VALUE);
 152:Generated_Source\PSoC4/Timer_OutputSpeed.c ****         #endif  /* (1u == Timer_OutputSpeed_PWM_COMPARE_SWAP) */
 153:Generated_Source\PSoC4/Timer_OutputSpeed.c **** 
 154:Generated_Source\PSoC4/Timer_OutputSpeed.c ****         #if (1u == Timer_OutputSpeed_PWM_PERIOD_SWAP)
 155:Generated_Source\PSoC4/Timer_OutputSpeed.c ****             Timer_OutputSpeed_SetPeriodSwap(1u);
 156:Generated_Source\PSoC4/Timer_OutputSpeed.c ****             Timer_OutputSpeed_WritePeriodBuf(Timer_OutputSpeed_PWM_PERIOD_BUF_VALUE);
 157:Generated_Source\PSoC4/Timer_OutputSpeed.c ****         #endif  /* (1u == Timer_OutputSpeed_PWM_PERIOD_SWAP) */
 158:Generated_Source\PSoC4/Timer_OutputSpeed.c ****     #endif  /* (Timer_OutputSpeed__PWM_SEL == Timer_OutputSpeed_CONFIG) */
 159:Generated_Source\PSoC4/Timer_OutputSpeed.c ****     
 160:Generated_Source\PSoC4/Timer_OutputSpeed.c **** }
 161:Generated_Source\PSoC4/Timer_OutputSpeed.c **** 
 162:Generated_Source\PSoC4/Timer_OutputSpeed.c **** 
 163:Generated_Source\PSoC4/Timer_OutputSpeed.c **** /*******************************************************************************
 164:Generated_Source\PSoC4/Timer_OutputSpeed.c **** * Function Name: Timer_OutputSpeed_Enable
 165:Generated_Source\PSoC4/Timer_OutputSpeed.c **** ********************************************************************************
 166:Generated_Source\PSoC4/Timer_OutputSpeed.c **** *
 167:Generated_Source\PSoC4/Timer_OutputSpeed.c **** * Summary:
 168:Generated_Source\PSoC4/Timer_OutputSpeed.c **** *  Enables the Timer_OutputSpeed.
 169:Generated_Source\PSoC4/Timer_OutputSpeed.c **** *
 170:Generated_Source\PSoC4/Timer_OutputSpeed.c **** * Parameters:
 171:Generated_Source\PSoC4/Timer_OutputSpeed.c **** *  None
 172:Generated_Source\PSoC4/Timer_OutputSpeed.c **** *
 173:Generated_Source\PSoC4/Timer_OutputSpeed.c **** * Return:
 174:Generated_Source\PSoC4/Timer_OutputSpeed.c **** *  None
 175:Generated_Source\PSoC4/Timer_OutputSpeed.c **** *
 176:Generated_Source\PSoC4/Timer_OutputSpeed.c **** *******************************************************************************/
 177:Generated_Source\PSoC4/Timer_OutputSpeed.c **** void Timer_OutputSpeed_Enable(void)
 178:Generated_Source\PSoC4/Timer_OutputSpeed.c **** {
 179:Generated_Source\PSoC4/Timer_OutputSpeed.c ****     uint8 enableInterrupts;
 180:Generated_Source\PSoC4/Timer_OutputSpeed.c **** 
 181:Generated_Source\PSoC4/Timer_OutputSpeed.c ****     enableInterrupts = CyEnterCriticalSection();
 182:Generated_Source\PSoC4/Timer_OutputSpeed.c ****     Timer_OutputSpeed_BLOCK_CONTROL_REG |= Timer_OutputSpeed_MASK;
 183:Generated_Source\PSoC4/Timer_OutputSpeed.c ****     CyExitCriticalSection(enableInterrupts);
 184:Generated_Source\PSoC4/Timer_OutputSpeed.c **** 
 185:Generated_Source\PSoC4/Timer_OutputSpeed.c ****     /* Start Timer or PWM if start input is absent */
 186:Generated_Source\PSoC4/Timer_OutputSpeed.c ****     #if (Timer_OutputSpeed__PWM_SEL == Timer_OutputSpeed_CONFIG)
 187:Generated_Source\PSoC4/Timer_OutputSpeed.c ****         #if (0u == Timer_OutputSpeed_PWM_START_SIGNAL_PRESENT)
 188:Generated_Source\PSoC4/Timer_OutputSpeed.c ****             Timer_OutputSpeed_TriggerCommand(Timer_OutputSpeed_MASK, Timer_OutputSpeed_CMD_START);
 189:Generated_Source\PSoC4/Timer_OutputSpeed.c ****         #endif /* (0u == Timer_OutputSpeed_PWM_START_SIGNAL_PRESENT) */
 190:Generated_Source\PSoC4/Timer_OutputSpeed.c ****     #endif /* (Timer_OutputSpeed__PWM_SEL == Timer_OutputSpeed_CONFIG) */
 191:Generated_Source\PSoC4/Timer_OutputSpeed.c **** 
 192:Generated_Source\PSoC4/Timer_OutputSpeed.c ****     #if (Timer_OutputSpeed__TIMER == Timer_OutputSpeed_CONFIG)
 193:Generated_Source\PSoC4/Timer_OutputSpeed.c ****         #if (0u == Timer_OutputSpeed_TC_START_SIGNAL_PRESENT)
 194:Generated_Source\PSoC4/Timer_OutputSpeed.c ****             Timer_OutputSpeed_TriggerCommand(Timer_OutputSpeed_MASK, Timer_OutputSpeed_CMD_START);
 195:Generated_Source\PSoC4/Timer_OutputSpeed.c ****         #endif /* (0u == Timer_OutputSpeed_TC_START_SIGNAL_PRESENT) */
 196:Generated_Source\PSoC4/Timer_OutputSpeed.c ****     #endif /* (Timer_OutputSpeed__TIMER == Timer_OutputSpeed_CONFIG) */
 197:Generated_Source\PSoC4/Timer_OutputSpeed.c ****     
 198:Generated_Source\PSoC4/Timer_OutputSpeed.c ****     #if (Timer_OutputSpeed__QUAD == Timer_OutputSpeed_CONFIG)
 199:Generated_Source\PSoC4/Timer_OutputSpeed.c ****         #if (0u != Timer_OutputSpeed_QUAD_AUTO_START)
 200:Generated_Source\PSoC4/Timer_OutputSpeed.c ****             Timer_OutputSpeed_TriggerCommand(Timer_OutputSpeed_MASK, Timer_OutputSpeed_CMD_RELOAD);
 201:Generated_Source\PSoC4/Timer_OutputSpeed.c ****         #endif /* (0u != Timer_OutputSpeed_QUAD_AUTO_START) */
ARM GAS  C:\Users\Ade0n\AppData\Local\Temp\ccqKniWt.s 			page 5


 202:Generated_Source\PSoC4/Timer_OutputSpeed.c ****     #endif  /* (Timer_OutputSpeed__QUAD == Timer_OutputSpeed_CONFIG) */
 203:Generated_Source\PSoC4/Timer_OutputSpeed.c **** }
 204:Generated_Source\PSoC4/Timer_OutputSpeed.c **** 
 205:Generated_Source\PSoC4/Timer_OutputSpeed.c **** 
 206:Generated_Source\PSoC4/Timer_OutputSpeed.c **** /*******************************************************************************
 207:Generated_Source\PSoC4/Timer_OutputSpeed.c **** * Function Name: Timer_OutputSpeed_Start
 208:Generated_Source\PSoC4/Timer_OutputSpeed.c **** ********************************************************************************
 209:Generated_Source\PSoC4/Timer_OutputSpeed.c **** *
 210:Generated_Source\PSoC4/Timer_OutputSpeed.c **** * Summary:
 211:Generated_Source\PSoC4/Timer_OutputSpeed.c **** *  Initializes the Timer_OutputSpeed with default customizer
 212:Generated_Source\PSoC4/Timer_OutputSpeed.c **** *  values when called the first time and enables the Timer_OutputSpeed.
 213:Generated_Source\PSoC4/Timer_OutputSpeed.c **** *  For subsequent calls the configuration is left unchanged and the component is
 214:Generated_Source\PSoC4/Timer_OutputSpeed.c **** *  just enabled.
 215:Generated_Source\PSoC4/Timer_OutputSpeed.c **** *
 216:Generated_Source\PSoC4/Timer_OutputSpeed.c **** * Parameters:
 217:Generated_Source\PSoC4/Timer_OutputSpeed.c **** *  None
 218:Generated_Source\PSoC4/Timer_OutputSpeed.c **** *
 219:Generated_Source\PSoC4/Timer_OutputSpeed.c **** * Return:
 220:Generated_Source\PSoC4/Timer_OutputSpeed.c **** *  None
 221:Generated_Source\PSoC4/Timer_OutputSpeed.c **** *
 222:Generated_Source\PSoC4/Timer_OutputSpeed.c **** * Global variables:
 223:Generated_Source\PSoC4/Timer_OutputSpeed.c **** *  Timer_OutputSpeed_initVar: global variable is used to indicate initial
 224:Generated_Source\PSoC4/Timer_OutputSpeed.c **** *  configuration of this component.  The variable is initialized to zero and set
 225:Generated_Source\PSoC4/Timer_OutputSpeed.c **** *  to 1 the first time Timer_OutputSpeed_Start() is called. This allows
 226:Generated_Source\PSoC4/Timer_OutputSpeed.c **** *  enabling/disabling a component without re-initialization in all subsequent
 227:Generated_Source\PSoC4/Timer_OutputSpeed.c **** *  calls to the Timer_OutputSpeed_Start() routine.
 228:Generated_Source\PSoC4/Timer_OutputSpeed.c **** *
 229:Generated_Source\PSoC4/Timer_OutputSpeed.c **** *******************************************************************************/
 230:Generated_Source\PSoC4/Timer_OutputSpeed.c **** void Timer_OutputSpeed_Start(void)
 231:Generated_Source\PSoC4/Timer_OutputSpeed.c **** {
 232:Generated_Source\PSoC4/Timer_OutputSpeed.c ****     if (0u == Timer_OutputSpeed_initVar)
 233:Generated_Source\PSoC4/Timer_OutputSpeed.c ****     {
 234:Generated_Source\PSoC4/Timer_OutputSpeed.c ****         Timer_OutputSpeed_Init();
 235:Generated_Source\PSoC4/Timer_OutputSpeed.c ****         Timer_OutputSpeed_initVar = 1u;
 236:Generated_Source\PSoC4/Timer_OutputSpeed.c ****     }
 237:Generated_Source\PSoC4/Timer_OutputSpeed.c **** 
 238:Generated_Source\PSoC4/Timer_OutputSpeed.c ****     Timer_OutputSpeed_Enable();
 239:Generated_Source\PSoC4/Timer_OutputSpeed.c **** }
 240:Generated_Source\PSoC4/Timer_OutputSpeed.c **** 
 241:Generated_Source\PSoC4/Timer_OutputSpeed.c **** 
 242:Generated_Source\PSoC4/Timer_OutputSpeed.c **** /*******************************************************************************
 243:Generated_Source\PSoC4/Timer_OutputSpeed.c **** * Function Name: Timer_OutputSpeed_Stop
 244:Generated_Source\PSoC4/Timer_OutputSpeed.c **** ********************************************************************************
 245:Generated_Source\PSoC4/Timer_OutputSpeed.c **** *
 246:Generated_Source\PSoC4/Timer_OutputSpeed.c **** * Summary:
 247:Generated_Source\PSoC4/Timer_OutputSpeed.c **** *  Disables the Timer_OutputSpeed.
 248:Generated_Source\PSoC4/Timer_OutputSpeed.c **** *
 249:Generated_Source\PSoC4/Timer_OutputSpeed.c **** * Parameters:
 250:Generated_Source\PSoC4/Timer_OutputSpeed.c **** *  None
 251:Generated_Source\PSoC4/Timer_OutputSpeed.c **** *
 252:Generated_Source\PSoC4/Timer_OutputSpeed.c **** * Return:
 253:Generated_Source\PSoC4/Timer_OutputSpeed.c **** *  None
 254:Generated_Source\PSoC4/Timer_OutputSpeed.c **** *
 255:Generated_Source\PSoC4/Timer_OutputSpeed.c **** *******************************************************************************/
 256:Generated_Source\PSoC4/Timer_OutputSpeed.c **** void Timer_OutputSpeed_Stop(void)
 257:Generated_Source\PSoC4/Timer_OutputSpeed.c **** {
  28              		.loc 1 257 0
ARM GAS  C:\Users\Ade0n\AppData\Local\Temp\ccqKniWt.s 			page 6


  29              		.cfi_startproc
  30              		@ args = 0, pretend = 0, frame = 0
  31              		@ frame_needed = 0, uses_anonymous_args = 0
  32 0000 10B5     		push	{r4, lr}
  33              		.cfi_def_cfa_offset 8
  34              		.cfi_offset 4, -8
  35              		.cfi_offset 14, -4
 258:Generated_Source\PSoC4/Timer_OutputSpeed.c ****     uint8 enableInterrupts;
 259:Generated_Source\PSoC4/Timer_OutputSpeed.c **** 
 260:Generated_Source\PSoC4/Timer_OutputSpeed.c ****     enableInterrupts = CyEnterCriticalSection();
  36              		.loc 1 260 0
  37 0002 FFF7FEFF 		bl	CyEnterCriticalSection
  38              	.LVL0:
 261:Generated_Source\PSoC4/Timer_OutputSpeed.c **** 
 262:Generated_Source\PSoC4/Timer_OutputSpeed.c ****     Timer_OutputSpeed_BLOCK_CONTROL_REG &= (uint32)~Timer_OutputSpeed_MASK;
  39              		.loc 1 262 0
  40 0006 044A     		ldr	r2, .L2
  41 0008 1368     		ldr	r3, [r2]
  42 000a 0121     		movs	r1, #1
  43 000c 8B43     		bics	r3, r1
  44 000e 1360     		str	r3, [r2]
 263:Generated_Source\PSoC4/Timer_OutputSpeed.c **** 
 264:Generated_Source\PSoC4/Timer_OutputSpeed.c ****     CyExitCriticalSection(enableInterrupts);
  45              		.loc 1 264 0
  46 0010 FFF7FEFF 		bl	CyExitCriticalSection
  47              	.LVL1:
 265:Generated_Source\PSoC4/Timer_OutputSpeed.c **** }
  48              		.loc 1 265 0
  49              		@ sp needed
  50 0014 10BD     		pop	{r4, pc}
  51              	.L3:
  52 0016 C046     		.align	2
  53              	.L2:
  54 0018 00002040 		.word	1075838976
  55              		.cfi_endproc
  56              	.LFE5:
  57              		.size	Timer_OutputSpeed_Stop, .-Timer_OutputSpeed_Stop
  58              		.section	.text.Timer_OutputSpeed_SetMode,"ax",%progbits
  59              		.align	2
  60              		.global	Timer_OutputSpeed_SetMode
  61              		.code	16
  62              		.thumb_func
  63              		.type	Timer_OutputSpeed_SetMode, %function
  64              	Timer_OutputSpeed_SetMode:
  65              	.LFB6:
 266:Generated_Source\PSoC4/Timer_OutputSpeed.c **** 
 267:Generated_Source\PSoC4/Timer_OutputSpeed.c **** 
 268:Generated_Source\PSoC4/Timer_OutputSpeed.c **** /*******************************************************************************
 269:Generated_Source\PSoC4/Timer_OutputSpeed.c **** * Function Name: Timer_OutputSpeed_SetMode
 270:Generated_Source\PSoC4/Timer_OutputSpeed.c **** ********************************************************************************
 271:Generated_Source\PSoC4/Timer_OutputSpeed.c **** *
 272:Generated_Source\PSoC4/Timer_OutputSpeed.c **** * Summary:
 273:Generated_Source\PSoC4/Timer_OutputSpeed.c **** *  Sets the operation mode of the Timer_OutputSpeed. This function is used when
 274:Generated_Source\PSoC4/Timer_OutputSpeed.c **** *  configured as a generic Timer_OutputSpeed and the actual mode of operation is
 275:Generated_Source\PSoC4/Timer_OutputSpeed.c **** *  set at runtime. The mode must be set while the component is disabled.
 276:Generated_Source\PSoC4/Timer_OutputSpeed.c **** *
 277:Generated_Source\PSoC4/Timer_OutputSpeed.c **** * Parameters:
ARM GAS  C:\Users\Ade0n\AppData\Local\Temp\ccqKniWt.s 			page 7


 278:Generated_Source\PSoC4/Timer_OutputSpeed.c **** *  mode: Mode for the Timer_OutputSpeed to operate in
 279:Generated_Source\PSoC4/Timer_OutputSpeed.c **** *   Values:
 280:Generated_Source\PSoC4/Timer_OutputSpeed.c **** *   - Timer_OutputSpeed_MODE_TIMER_COMPARE - Timer / Counter with
 281:Generated_Source\PSoC4/Timer_OutputSpeed.c **** *                                                 compare capability
 282:Generated_Source\PSoC4/Timer_OutputSpeed.c **** *         - Timer_OutputSpeed_MODE_TIMER_CAPTURE - Timer / Counter with
 283:Generated_Source\PSoC4/Timer_OutputSpeed.c **** *                                                 capture capability
 284:Generated_Source\PSoC4/Timer_OutputSpeed.c **** *         - Timer_OutputSpeed_MODE_QUAD - Quadrature decoder
 285:Generated_Source\PSoC4/Timer_OutputSpeed.c **** *         - Timer_OutputSpeed_MODE_PWM - PWM
 286:Generated_Source\PSoC4/Timer_OutputSpeed.c **** *         - Timer_OutputSpeed_MODE_PWM_DT - PWM with dead time
 287:Generated_Source\PSoC4/Timer_OutputSpeed.c **** *         - Timer_OutputSpeed_MODE_PWM_PR - PWM with pseudo random capability
 288:Generated_Source\PSoC4/Timer_OutputSpeed.c **** *
 289:Generated_Source\PSoC4/Timer_OutputSpeed.c **** * Return:
 290:Generated_Source\PSoC4/Timer_OutputSpeed.c **** *  None
 291:Generated_Source\PSoC4/Timer_OutputSpeed.c **** *
 292:Generated_Source\PSoC4/Timer_OutputSpeed.c **** *******************************************************************************/
 293:Generated_Source\PSoC4/Timer_OutputSpeed.c **** void Timer_OutputSpeed_SetMode(uint32 mode)
 294:Generated_Source\PSoC4/Timer_OutputSpeed.c **** {
  66              		.loc 1 294 0
  67              		.cfi_startproc
  68              		@ args = 0, pretend = 0, frame = 0
  69              		@ frame_needed = 0, uses_anonymous_args = 0
  70              	.LVL2:
  71 0000 10B5     		push	{r4, lr}
  72              		.cfi_def_cfa_offset 8
  73              		.cfi_offset 4, -8
  74              		.cfi_offset 14, -4
  75 0002 0400     		movs	r4, r0
 295:Generated_Source\PSoC4/Timer_OutputSpeed.c ****     uint8 enableInterrupts;
 296:Generated_Source\PSoC4/Timer_OutputSpeed.c **** 
 297:Generated_Source\PSoC4/Timer_OutputSpeed.c ****     enableInterrupts = CyEnterCriticalSection();
  76              		.loc 1 297 0
  77 0004 FFF7FEFF 		bl	CyEnterCriticalSection
  78              	.LVL3:
 298:Generated_Source\PSoC4/Timer_OutputSpeed.c **** 
 299:Generated_Source\PSoC4/Timer_OutputSpeed.c ****     Timer_OutputSpeed_CONTROL_REG &= (uint32)~Timer_OutputSpeed_MODE_MASK;
  79              		.loc 1 299 0
  80 0008 054B     		ldr	r3, .L5
  81 000a 1968     		ldr	r1, [r3]
  82 000c 054A     		ldr	r2, .L5+4
  83 000e 0A40     		ands	r2, r1
  84 0010 1A60     		str	r2, [r3]
 300:Generated_Source\PSoC4/Timer_OutputSpeed.c ****     Timer_OutputSpeed_CONTROL_REG |= mode;
  85              		.loc 1 300 0
  86 0012 1A68     		ldr	r2, [r3]
  87 0014 1443     		orrs	r4, r2
  88              	.LVL4:
  89 0016 1C60     		str	r4, [r3]
 301:Generated_Source\PSoC4/Timer_OutputSpeed.c **** 
 302:Generated_Source\PSoC4/Timer_OutputSpeed.c ****     CyExitCriticalSection(enableInterrupts);
  90              		.loc 1 302 0
  91 0018 FFF7FEFF 		bl	CyExitCriticalSection
  92              	.LVL5:
 303:Generated_Source\PSoC4/Timer_OutputSpeed.c **** }
  93              		.loc 1 303 0
  94              		@ sp needed
  95 001c 10BD     		pop	{r4, pc}
  96              	.L6:
ARM GAS  C:\Users\Ade0n\AppData\Local\Temp\ccqKniWt.s 			page 8


  97 001e C046     		.align	2
  98              	.L5:
  99 0020 00012040 		.word	1075839232
 100 0024 FFFFFFF8 		.word	-117440513
 101              		.cfi_endproc
 102              	.LFE6:
 103              		.size	Timer_OutputSpeed_SetMode, .-Timer_OutputSpeed_SetMode
 104              		.section	.text.Timer_OutputSpeed_SetQDMode,"ax",%progbits
 105              		.align	2
 106              		.global	Timer_OutputSpeed_SetQDMode
 107              		.code	16
 108              		.thumb_func
 109              		.type	Timer_OutputSpeed_SetQDMode, %function
 110              	Timer_OutputSpeed_SetQDMode:
 111              	.LFB7:
 304:Generated_Source\PSoC4/Timer_OutputSpeed.c **** 
 305:Generated_Source\PSoC4/Timer_OutputSpeed.c **** 
 306:Generated_Source\PSoC4/Timer_OutputSpeed.c **** /*******************************************************************************
 307:Generated_Source\PSoC4/Timer_OutputSpeed.c **** * Function Name: Timer_OutputSpeed_SetQDMode
 308:Generated_Source\PSoC4/Timer_OutputSpeed.c **** ********************************************************************************
 309:Generated_Source\PSoC4/Timer_OutputSpeed.c **** *
 310:Generated_Source\PSoC4/Timer_OutputSpeed.c **** * Summary:
 311:Generated_Source\PSoC4/Timer_OutputSpeed.c **** *  Sets the the Quadrature Decoder to one of the 3 supported modes.
 312:Generated_Source\PSoC4/Timer_OutputSpeed.c **** *  Its functionality is only applicable to Quadrature Decoder operation.
 313:Generated_Source\PSoC4/Timer_OutputSpeed.c **** *
 314:Generated_Source\PSoC4/Timer_OutputSpeed.c **** * Parameters:
 315:Generated_Source\PSoC4/Timer_OutputSpeed.c **** *  qdMode: Quadrature Decoder mode
 316:Generated_Source\PSoC4/Timer_OutputSpeed.c **** *   Values:
 317:Generated_Source\PSoC4/Timer_OutputSpeed.c **** *         - Timer_OutputSpeed_MODE_X1 - Counts on phi 1 rising
 318:Generated_Source\PSoC4/Timer_OutputSpeed.c **** *         - Timer_OutputSpeed_MODE_X2 - Counts on both edges of phi1 (2x faster)
 319:Generated_Source\PSoC4/Timer_OutputSpeed.c **** *         - Timer_OutputSpeed_MODE_X4 - Counts on both edges of phi1 and phi2
 320:Generated_Source\PSoC4/Timer_OutputSpeed.c **** *                                        (4x faster)
 321:Generated_Source\PSoC4/Timer_OutputSpeed.c **** *
 322:Generated_Source\PSoC4/Timer_OutputSpeed.c **** * Return:
 323:Generated_Source\PSoC4/Timer_OutputSpeed.c **** *  None
 324:Generated_Source\PSoC4/Timer_OutputSpeed.c **** *
 325:Generated_Source\PSoC4/Timer_OutputSpeed.c **** *******************************************************************************/
 326:Generated_Source\PSoC4/Timer_OutputSpeed.c **** void Timer_OutputSpeed_SetQDMode(uint32 qdMode)
 327:Generated_Source\PSoC4/Timer_OutputSpeed.c **** {
 112              		.loc 1 327 0
 113              		.cfi_startproc
 114              		@ args = 0, pretend = 0, frame = 0
 115              		@ frame_needed = 0, uses_anonymous_args = 0
 116              	.LVL6:
 117 0000 10B5     		push	{r4, lr}
 118              		.cfi_def_cfa_offset 8
 119              		.cfi_offset 4, -8
 120              		.cfi_offset 14, -4
 121 0002 0400     		movs	r4, r0
 328:Generated_Source\PSoC4/Timer_OutputSpeed.c ****     uint8 enableInterrupts;
 329:Generated_Source\PSoC4/Timer_OutputSpeed.c **** 
 330:Generated_Source\PSoC4/Timer_OutputSpeed.c ****     enableInterrupts = CyEnterCriticalSection();
 122              		.loc 1 330 0
 123 0004 FFF7FEFF 		bl	CyEnterCriticalSection
 124              	.LVL7:
 331:Generated_Source\PSoC4/Timer_OutputSpeed.c **** 
 332:Generated_Source\PSoC4/Timer_OutputSpeed.c ****     Timer_OutputSpeed_CONTROL_REG &= (uint32)~Timer_OutputSpeed_QUAD_MODE_MASK;
ARM GAS  C:\Users\Ade0n\AppData\Local\Temp\ccqKniWt.s 			page 9


 125              		.loc 1 332 0
 126 0008 054B     		ldr	r3, .L8
 127 000a 1968     		ldr	r1, [r3]
 128 000c 054A     		ldr	r2, .L8+4
 129 000e 0A40     		ands	r2, r1
 130 0010 1A60     		str	r2, [r3]
 333:Generated_Source\PSoC4/Timer_OutputSpeed.c ****     Timer_OutputSpeed_CONTROL_REG |= qdMode;
 131              		.loc 1 333 0
 132 0012 1A68     		ldr	r2, [r3]
 133 0014 1443     		orrs	r4, r2
 134              	.LVL8:
 135 0016 1C60     		str	r4, [r3]
 334:Generated_Source\PSoC4/Timer_OutputSpeed.c **** 
 335:Generated_Source\PSoC4/Timer_OutputSpeed.c ****     CyExitCriticalSection(enableInterrupts);
 136              		.loc 1 335 0
 137 0018 FFF7FEFF 		bl	CyExitCriticalSection
 138              	.LVL9:
 336:Generated_Source\PSoC4/Timer_OutputSpeed.c **** }
 139              		.loc 1 336 0
 140              		@ sp needed
 141 001c 10BD     		pop	{r4, pc}
 142              	.L9:
 143 001e C046     		.align	2
 144              	.L8:
 145 0020 00012040 		.word	1075839232
 146 0024 FFFF8FFF 		.word	-7340033
 147              		.cfi_endproc
 148              	.LFE7:
 149              		.size	Timer_OutputSpeed_SetQDMode, .-Timer_OutputSpeed_SetQDMode
 150              		.section	.text.Timer_OutputSpeed_SetPrescaler,"ax",%progbits
 151              		.align	2
 152              		.global	Timer_OutputSpeed_SetPrescaler
 153              		.code	16
 154              		.thumb_func
 155              		.type	Timer_OutputSpeed_SetPrescaler, %function
 156              	Timer_OutputSpeed_SetPrescaler:
 157              	.LFB8:
 337:Generated_Source\PSoC4/Timer_OutputSpeed.c **** 
 338:Generated_Source\PSoC4/Timer_OutputSpeed.c **** 
 339:Generated_Source\PSoC4/Timer_OutputSpeed.c **** /*******************************************************************************
 340:Generated_Source\PSoC4/Timer_OutputSpeed.c **** * Function Name: Timer_OutputSpeed_SetPrescaler
 341:Generated_Source\PSoC4/Timer_OutputSpeed.c **** ********************************************************************************
 342:Generated_Source\PSoC4/Timer_OutputSpeed.c **** *
 343:Generated_Source\PSoC4/Timer_OutputSpeed.c **** * Summary:
 344:Generated_Source\PSoC4/Timer_OutputSpeed.c **** *  Sets the prescaler value that is applied to the clock input.  Not applicable
 345:Generated_Source\PSoC4/Timer_OutputSpeed.c **** *  to a PWM with the dead time mode or Quadrature Decoder mode.
 346:Generated_Source\PSoC4/Timer_OutputSpeed.c **** *
 347:Generated_Source\PSoC4/Timer_OutputSpeed.c **** * Parameters:
 348:Generated_Source\PSoC4/Timer_OutputSpeed.c **** *  prescaler: Prescaler divider value
 349:Generated_Source\PSoC4/Timer_OutputSpeed.c **** *   Values:
 350:Generated_Source\PSoC4/Timer_OutputSpeed.c **** *         - Timer_OutputSpeed_PRESCALE_DIVBY1    - Divide by 1 (no prescaling)
 351:Generated_Source\PSoC4/Timer_OutputSpeed.c **** *         - Timer_OutputSpeed_PRESCALE_DIVBY2    - Divide by 2
 352:Generated_Source\PSoC4/Timer_OutputSpeed.c **** *         - Timer_OutputSpeed_PRESCALE_DIVBY4    - Divide by 4
 353:Generated_Source\PSoC4/Timer_OutputSpeed.c **** *         - Timer_OutputSpeed_PRESCALE_DIVBY8    - Divide by 8
 354:Generated_Source\PSoC4/Timer_OutputSpeed.c **** *         - Timer_OutputSpeed_PRESCALE_DIVBY16   - Divide by 16
 355:Generated_Source\PSoC4/Timer_OutputSpeed.c **** *         - Timer_OutputSpeed_PRESCALE_DIVBY32   - Divide by 32
 356:Generated_Source\PSoC4/Timer_OutputSpeed.c **** *         - Timer_OutputSpeed_PRESCALE_DIVBY64   - Divide by 64
ARM GAS  C:\Users\Ade0n\AppData\Local\Temp\ccqKniWt.s 			page 10


 357:Generated_Source\PSoC4/Timer_OutputSpeed.c **** *         - Timer_OutputSpeed_PRESCALE_DIVBY128  - Divide by 128
 358:Generated_Source\PSoC4/Timer_OutputSpeed.c **** *
 359:Generated_Source\PSoC4/Timer_OutputSpeed.c **** * Return:
 360:Generated_Source\PSoC4/Timer_OutputSpeed.c **** *  None
 361:Generated_Source\PSoC4/Timer_OutputSpeed.c **** *
 362:Generated_Source\PSoC4/Timer_OutputSpeed.c **** *******************************************************************************/
 363:Generated_Source\PSoC4/Timer_OutputSpeed.c **** void Timer_OutputSpeed_SetPrescaler(uint32 prescaler)
 364:Generated_Source\PSoC4/Timer_OutputSpeed.c **** {
 158              		.loc 1 364 0
 159              		.cfi_startproc
 160              		@ args = 0, pretend = 0, frame = 0
 161              		@ frame_needed = 0, uses_anonymous_args = 0
 162              	.LVL10:
 163 0000 10B5     		push	{r4, lr}
 164              		.cfi_def_cfa_offset 8
 165              		.cfi_offset 4, -8
 166              		.cfi_offset 14, -4
 167 0002 0400     		movs	r4, r0
 365:Generated_Source\PSoC4/Timer_OutputSpeed.c ****     uint8 enableInterrupts;
 366:Generated_Source\PSoC4/Timer_OutputSpeed.c **** 
 367:Generated_Source\PSoC4/Timer_OutputSpeed.c ****     enableInterrupts = CyEnterCriticalSection();
 168              		.loc 1 367 0
 169 0004 FFF7FEFF 		bl	CyEnterCriticalSection
 170              	.LVL11:
 368:Generated_Source\PSoC4/Timer_OutputSpeed.c **** 
 369:Generated_Source\PSoC4/Timer_OutputSpeed.c ****     Timer_OutputSpeed_CONTROL_REG &= (uint32)~Timer_OutputSpeed_PRESCALER_MASK;
 171              		.loc 1 369 0
 172 0008 054B     		ldr	r3, .L11
 173 000a 1968     		ldr	r1, [r3]
 174 000c 054A     		ldr	r2, .L11+4
 175 000e 0A40     		ands	r2, r1
 176 0010 1A60     		str	r2, [r3]
 370:Generated_Source\PSoC4/Timer_OutputSpeed.c ****     Timer_OutputSpeed_CONTROL_REG |= prescaler;
 177              		.loc 1 370 0
 178 0012 1A68     		ldr	r2, [r3]
 179 0014 1443     		orrs	r4, r2
 180              	.LVL12:
 181 0016 1C60     		str	r4, [r3]
 371:Generated_Source\PSoC4/Timer_OutputSpeed.c **** 
 372:Generated_Source\PSoC4/Timer_OutputSpeed.c ****     CyExitCriticalSection(enableInterrupts);
 182              		.loc 1 372 0
 183 0018 FFF7FEFF 		bl	CyExitCriticalSection
 184              	.LVL13:
 373:Generated_Source\PSoC4/Timer_OutputSpeed.c **** }
 185              		.loc 1 373 0
 186              		@ sp needed
 187 001c 10BD     		pop	{r4, pc}
 188              	.L12:
 189 001e C046     		.align	2
 190              	.L11:
 191 0020 00012040 		.word	1075839232
 192 0024 FF00FFFF 		.word	-65281
 193              		.cfi_endproc
 194              	.LFE8:
 195              		.size	Timer_OutputSpeed_SetPrescaler, .-Timer_OutputSpeed_SetPrescaler
 196              		.section	.text.Timer_OutputSpeed_SetOneShot,"ax",%progbits
 197              		.align	2
ARM GAS  C:\Users\Ade0n\AppData\Local\Temp\ccqKniWt.s 			page 11


 198              		.global	Timer_OutputSpeed_SetOneShot
 199              		.code	16
 200              		.thumb_func
 201              		.type	Timer_OutputSpeed_SetOneShot, %function
 202              	Timer_OutputSpeed_SetOneShot:
 203              	.LFB9:
 374:Generated_Source\PSoC4/Timer_OutputSpeed.c **** 
 375:Generated_Source\PSoC4/Timer_OutputSpeed.c **** 
 376:Generated_Source\PSoC4/Timer_OutputSpeed.c **** /*******************************************************************************
 377:Generated_Source\PSoC4/Timer_OutputSpeed.c **** * Function Name: Timer_OutputSpeed_SetOneShot
 378:Generated_Source\PSoC4/Timer_OutputSpeed.c **** ********************************************************************************
 379:Generated_Source\PSoC4/Timer_OutputSpeed.c **** *
 380:Generated_Source\PSoC4/Timer_OutputSpeed.c **** * Summary:
 381:Generated_Source\PSoC4/Timer_OutputSpeed.c **** *  Writes the register that controls whether the Timer_OutputSpeed runs
 382:Generated_Source\PSoC4/Timer_OutputSpeed.c **** *  continuously or stops when terminal count is reached.  By default the
 383:Generated_Source\PSoC4/Timer_OutputSpeed.c **** *  Timer_OutputSpeed operates in the continuous mode.
 384:Generated_Source\PSoC4/Timer_OutputSpeed.c **** *
 385:Generated_Source\PSoC4/Timer_OutputSpeed.c **** * Parameters:
 386:Generated_Source\PSoC4/Timer_OutputSpeed.c **** *  oneShotEnable
 387:Generated_Source\PSoC4/Timer_OutputSpeed.c **** *   Values:
 388:Generated_Source\PSoC4/Timer_OutputSpeed.c **** *     - 0 - Continuous
 389:Generated_Source\PSoC4/Timer_OutputSpeed.c **** *     - 1 - Enable One Shot
 390:Generated_Source\PSoC4/Timer_OutputSpeed.c **** *
 391:Generated_Source\PSoC4/Timer_OutputSpeed.c **** * Return:
 392:Generated_Source\PSoC4/Timer_OutputSpeed.c **** *  None
 393:Generated_Source\PSoC4/Timer_OutputSpeed.c **** *
 394:Generated_Source\PSoC4/Timer_OutputSpeed.c **** *******************************************************************************/
 395:Generated_Source\PSoC4/Timer_OutputSpeed.c **** void Timer_OutputSpeed_SetOneShot(uint32 oneShotEnable)
 396:Generated_Source\PSoC4/Timer_OutputSpeed.c **** {
 204              		.loc 1 396 0
 205              		.cfi_startproc
 206              		@ args = 0, pretend = 0, frame = 0
 207              		@ frame_needed = 0, uses_anonymous_args = 0
 208              	.LVL14:
 209 0000 70B5     		push	{r4, r5, r6, lr}
 210              		.cfi_def_cfa_offset 16
 211              		.cfi_offset 4, -16
 212              		.cfi_offset 5, -12
 213              		.cfi_offset 6, -8
 214              		.cfi_offset 14, -4
 215 0002 0400     		movs	r4, r0
 397:Generated_Source\PSoC4/Timer_OutputSpeed.c ****     uint8 enableInterrupts;
 398:Generated_Source\PSoC4/Timer_OutputSpeed.c **** 
 399:Generated_Source\PSoC4/Timer_OutputSpeed.c ****     enableInterrupts = CyEnterCriticalSection();
 216              		.loc 1 399 0
 217 0004 FFF7FEFF 		bl	CyEnterCriticalSection
 218              	.LVL15:
 400:Generated_Source\PSoC4/Timer_OutputSpeed.c **** 
 401:Generated_Source\PSoC4/Timer_OutputSpeed.c ****     Timer_OutputSpeed_CONTROL_REG &= (uint32)~Timer_OutputSpeed_ONESHOT_MASK;
 219              		.loc 1 401 0
 220 0008 0749     		ldr	r1, .L14
 221 000a 0A68     		ldr	r2, [r1]
 222 000c 074B     		ldr	r3, .L14+4
 223 000e 1340     		ands	r3, r2
 224 0010 0B60     		str	r3, [r1]
 402:Generated_Source\PSoC4/Timer_OutputSpeed.c ****     Timer_OutputSpeed_CONTROL_REG |= ((uint32)((oneShotEnable & Timer_OutputSpeed_1BIT_MASK) <<
 225              		.loc 1 402 0
ARM GAS  C:\Users\Ade0n\AppData\Local\Temp\ccqKniWt.s 			page 12


 226 0012 0D68     		ldr	r5, [r1]
 227 0014 A304     		lsls	r3, r4, #18
 228 0016 8022     		movs	r2, #128
 229 0018 D202     		lsls	r2, r2, #11
 230 001a 1340     		ands	r3, r2
 231 001c 2B43     		orrs	r3, r5
 232 001e 0B60     		str	r3, [r1]
 403:Generated_Source\PSoC4/Timer_OutputSpeed.c ****                                                                Timer_OutputSpeed_ONESHOT_SHIFT));
 404:Generated_Source\PSoC4/Timer_OutputSpeed.c **** 
 405:Generated_Source\PSoC4/Timer_OutputSpeed.c ****     CyExitCriticalSection(enableInterrupts);
 233              		.loc 1 405 0
 234 0020 FFF7FEFF 		bl	CyExitCriticalSection
 235              	.LVL16:
 406:Generated_Source\PSoC4/Timer_OutputSpeed.c **** }
 236              		.loc 1 406 0
 237              		@ sp needed
 238              	.LVL17:
 239 0024 70BD     		pop	{r4, r5, r6, pc}
 240              	.L15:
 241 0026 C046     		.align	2
 242              	.L14:
 243 0028 00012040 		.word	1075839232
 244 002c FFFFFBFF 		.word	-262145
 245              		.cfi_endproc
 246              	.LFE9:
 247              		.size	Timer_OutputSpeed_SetOneShot, .-Timer_OutputSpeed_SetOneShot
 248              		.section	.text.Timer_OutputSpeed_SetPWMMode,"ax",%progbits
 249              		.align	2
 250              		.global	Timer_OutputSpeed_SetPWMMode
 251              		.code	16
 252              		.thumb_func
 253              		.type	Timer_OutputSpeed_SetPWMMode, %function
 254              	Timer_OutputSpeed_SetPWMMode:
 255              	.LFB10:
 407:Generated_Source\PSoC4/Timer_OutputSpeed.c **** 
 408:Generated_Source\PSoC4/Timer_OutputSpeed.c **** 
 409:Generated_Source\PSoC4/Timer_OutputSpeed.c **** /*******************************************************************************
 410:Generated_Source\PSoC4/Timer_OutputSpeed.c **** * Function Name: Timer_OutputSpeed_SetPWMMode
 411:Generated_Source\PSoC4/Timer_OutputSpeed.c **** ********************************************************************************
 412:Generated_Source\PSoC4/Timer_OutputSpeed.c **** *
 413:Generated_Source\PSoC4/Timer_OutputSpeed.c **** * Summary:
 414:Generated_Source\PSoC4/Timer_OutputSpeed.c **** *  Writes the control register that determines what mode of operation the PWM
 415:Generated_Source\PSoC4/Timer_OutputSpeed.c **** *  output lines are driven in.  There is a setting for what to do on a
 416:Generated_Source\PSoC4/Timer_OutputSpeed.c **** *  comparison match (CC_MATCH), on an overflow (OVERFLOW) and on an underflow
 417:Generated_Source\PSoC4/Timer_OutputSpeed.c **** *  (UNDERFLOW).  The value for each of the three must be ORed together to form
 418:Generated_Source\PSoC4/Timer_OutputSpeed.c **** *  the mode.
 419:Generated_Source\PSoC4/Timer_OutputSpeed.c **** *
 420:Generated_Source\PSoC4/Timer_OutputSpeed.c **** * Parameters:
 421:Generated_Source\PSoC4/Timer_OutputSpeed.c **** *  modeMask: A combination of three mode settings.  Mask must include a value
 422:Generated_Source\PSoC4/Timer_OutputSpeed.c **** *  for each of the three or use one of the preconfigured PWM settings.
 423:Generated_Source\PSoC4/Timer_OutputSpeed.c **** *   Values:
 424:Generated_Source\PSoC4/Timer_OutputSpeed.c **** *     - CC_MATCH_SET        - Set on comparison match
 425:Generated_Source\PSoC4/Timer_OutputSpeed.c **** *     - CC_MATCH_CLEAR      - Clear on comparison match
 426:Generated_Source\PSoC4/Timer_OutputSpeed.c **** *     - CC_MATCH_INVERT     - Invert on comparison match
 427:Generated_Source\PSoC4/Timer_OutputSpeed.c **** *     - CC_MATCH_NO_CHANGE  - No change on comparison match
 428:Generated_Source\PSoC4/Timer_OutputSpeed.c **** *     - OVERLOW_SET         - Set on overflow
 429:Generated_Source\PSoC4/Timer_OutputSpeed.c **** *     - OVERLOW_CLEAR       - Clear on  overflow
ARM GAS  C:\Users\Ade0n\AppData\Local\Temp\ccqKniWt.s 			page 13


 430:Generated_Source\PSoC4/Timer_OutputSpeed.c **** *     - OVERLOW_INVERT      - Invert on overflow
 431:Generated_Source\PSoC4/Timer_OutputSpeed.c **** *     - OVERLOW_NO_CHANGE   - No change on overflow
 432:Generated_Source\PSoC4/Timer_OutputSpeed.c **** *     - UNDERFLOW_SET       - Set on underflow
 433:Generated_Source\PSoC4/Timer_OutputSpeed.c **** *     - UNDERFLOW_CLEAR     - Clear on underflow
 434:Generated_Source\PSoC4/Timer_OutputSpeed.c **** *     - UNDERFLOW_INVERT    - Invert on underflow
 435:Generated_Source\PSoC4/Timer_OutputSpeed.c **** *     - UNDERFLOW_NO_CHANGE - No change on underflow
 436:Generated_Source\PSoC4/Timer_OutputSpeed.c **** *     - PWM_MODE_LEFT       - Setting for left aligned PWM.  Should be combined
 437:Generated_Source\PSoC4/Timer_OutputSpeed.c **** *                             with up counting mode
 438:Generated_Source\PSoC4/Timer_OutputSpeed.c **** *     - PWM_MODE_RIGHT      - Setting for right aligned PWM.  Should be combined
 439:Generated_Source\PSoC4/Timer_OutputSpeed.c **** *                             with down counting mode
 440:Generated_Source\PSoC4/Timer_OutputSpeed.c **** *     - PWM_MODE_CENTER     - Setting for center aligned PWM.  Should be
 441:Generated_Source\PSoC4/Timer_OutputSpeed.c **** *                             combined with up/down 0 mode
 442:Generated_Source\PSoC4/Timer_OutputSpeed.c **** *     - PWM_MODE_ASYM       - Setting for asymmetric PWM.  Should be combined
 443:Generated_Source\PSoC4/Timer_OutputSpeed.c **** *                             with up/down 1 mode
 444:Generated_Source\PSoC4/Timer_OutputSpeed.c **** *
 445:Generated_Source\PSoC4/Timer_OutputSpeed.c **** * Return:
 446:Generated_Source\PSoC4/Timer_OutputSpeed.c **** *  None
 447:Generated_Source\PSoC4/Timer_OutputSpeed.c **** *
 448:Generated_Source\PSoC4/Timer_OutputSpeed.c **** *******************************************************************************/
 449:Generated_Source\PSoC4/Timer_OutputSpeed.c **** void Timer_OutputSpeed_SetPWMMode(uint32 modeMask)
 450:Generated_Source\PSoC4/Timer_OutputSpeed.c **** {
 256              		.loc 1 450 0
 257              		.cfi_startproc
 258              		@ args = 0, pretend = 0, frame = 0
 259              		@ frame_needed = 0, uses_anonymous_args = 0
 260              		@ link register save eliminated.
 261              	.LVL18:
 451:Generated_Source\PSoC4/Timer_OutputSpeed.c ****     Timer_OutputSpeed_TRIG_CONTROL2_REG = (modeMask & Timer_OutputSpeed_6BIT_MASK);
 262              		.loc 1 451 0
 263 0000 3F23     		movs	r3, #63
 264 0002 1840     		ands	r0, r3
 265              	.LVL19:
 266 0004 014B     		ldr	r3, .L17
 267 0006 1860     		str	r0, [r3]
 452:Generated_Source\PSoC4/Timer_OutputSpeed.c **** }
 268              		.loc 1 452 0
 269              		@ sp needed
 270 0008 7047     		bx	lr
 271              	.L18:
 272 000a C046     		.align	2
 273              	.L17:
 274 000c 28012040 		.word	1075839272
 275              		.cfi_endproc
 276              	.LFE10:
 277              		.size	Timer_OutputSpeed_SetPWMMode, .-Timer_OutputSpeed_SetPWMMode
 278              		.section	.text.Timer_OutputSpeed_SetPWMSyncKill,"ax",%progbits
 279              		.align	2
 280              		.global	Timer_OutputSpeed_SetPWMSyncKill
 281              		.code	16
 282              		.thumb_func
 283              		.type	Timer_OutputSpeed_SetPWMSyncKill, %function
 284              	Timer_OutputSpeed_SetPWMSyncKill:
 285              	.LFB11:
 453:Generated_Source\PSoC4/Timer_OutputSpeed.c **** 
 454:Generated_Source\PSoC4/Timer_OutputSpeed.c **** 
 455:Generated_Source\PSoC4/Timer_OutputSpeed.c **** 
 456:Generated_Source\PSoC4/Timer_OutputSpeed.c **** /*******************************************************************************
ARM GAS  C:\Users\Ade0n\AppData\Local\Temp\ccqKniWt.s 			page 14


 457:Generated_Source\PSoC4/Timer_OutputSpeed.c **** * Function Name: Timer_OutputSpeed_SetPWMSyncKill
 458:Generated_Source\PSoC4/Timer_OutputSpeed.c **** ********************************************************************************
 459:Generated_Source\PSoC4/Timer_OutputSpeed.c **** *
 460:Generated_Source\PSoC4/Timer_OutputSpeed.c **** * Summary:
 461:Generated_Source\PSoC4/Timer_OutputSpeed.c **** *  Writes the register that controls whether the PWM kill signal (stop input)
 462:Generated_Source\PSoC4/Timer_OutputSpeed.c **** *  causes asynchronous or synchronous kill operation.  By default the kill
 463:Generated_Source\PSoC4/Timer_OutputSpeed.c **** *  operation is asynchronous.  This functionality is only applicable to the PWM
 464:Generated_Source\PSoC4/Timer_OutputSpeed.c **** *  and PWM with dead time modes.
 465:Generated_Source\PSoC4/Timer_OutputSpeed.c **** *
 466:Generated_Source\PSoC4/Timer_OutputSpeed.c **** *  For Synchronous mode the kill signal disables both the line and line_n
 467:Generated_Source\PSoC4/Timer_OutputSpeed.c **** *  signals until the next terminal count.
 468:Generated_Source\PSoC4/Timer_OutputSpeed.c **** *
 469:Generated_Source\PSoC4/Timer_OutputSpeed.c **** *  For Asynchronous mode the kill signal disables both the line and line_n
 470:Generated_Source\PSoC4/Timer_OutputSpeed.c **** *  signals when the kill signal is present.  This mode should only be used
 471:Generated_Source\PSoC4/Timer_OutputSpeed.c **** *  when the kill signal (stop input) is configured in the pass through mode
 472:Generated_Source\PSoC4/Timer_OutputSpeed.c **** *  (Level sensitive signal).
 473:Generated_Source\PSoC4/Timer_OutputSpeed.c **** 
 474:Generated_Source\PSoC4/Timer_OutputSpeed.c **** *
 475:Generated_Source\PSoC4/Timer_OutputSpeed.c **** * Parameters:
 476:Generated_Source\PSoC4/Timer_OutputSpeed.c **** *  syncKillEnable
 477:Generated_Source\PSoC4/Timer_OutputSpeed.c **** *   Values:
 478:Generated_Source\PSoC4/Timer_OutputSpeed.c **** *     - 0 - Asynchronous
 479:Generated_Source\PSoC4/Timer_OutputSpeed.c **** *     - 1 - Synchronous
 480:Generated_Source\PSoC4/Timer_OutputSpeed.c **** *
 481:Generated_Source\PSoC4/Timer_OutputSpeed.c **** * Return:
 482:Generated_Source\PSoC4/Timer_OutputSpeed.c **** *  None
 483:Generated_Source\PSoC4/Timer_OutputSpeed.c **** *
 484:Generated_Source\PSoC4/Timer_OutputSpeed.c **** *******************************************************************************/
 485:Generated_Source\PSoC4/Timer_OutputSpeed.c **** void Timer_OutputSpeed_SetPWMSyncKill(uint32 syncKillEnable)
 486:Generated_Source\PSoC4/Timer_OutputSpeed.c **** {
 286              		.loc 1 486 0
 287              		.cfi_startproc
 288              		@ args = 0, pretend = 0, frame = 0
 289              		@ frame_needed = 0, uses_anonymous_args = 0
 290              	.LVL20:
 291 0000 70B5     		push	{r4, r5, r6, lr}
 292              		.cfi_def_cfa_offset 16
 293              		.cfi_offset 4, -16
 294              		.cfi_offset 5, -12
 295              		.cfi_offset 6, -8
 296              		.cfi_offset 14, -4
 297 0002 0400     		movs	r4, r0
 487:Generated_Source\PSoC4/Timer_OutputSpeed.c ****     uint8 enableInterrupts;
 488:Generated_Source\PSoC4/Timer_OutputSpeed.c **** 
 489:Generated_Source\PSoC4/Timer_OutputSpeed.c ****     enableInterrupts = CyEnterCriticalSection();
 298              		.loc 1 489 0
 299 0004 FFF7FEFF 		bl	CyEnterCriticalSection
 300              	.LVL21:
 490:Generated_Source\PSoC4/Timer_OutputSpeed.c **** 
 491:Generated_Source\PSoC4/Timer_OutputSpeed.c ****     Timer_OutputSpeed_CONTROL_REG &= (uint32)~Timer_OutputSpeed_PWM_SYNC_KILL_MASK;
 301              		.loc 1 491 0
 302 0008 064A     		ldr	r2, .L20
 303 000a 1368     		ldr	r3, [r2]
 304 000c 0421     		movs	r1, #4
 305 000e 8B43     		bics	r3, r1
 306 0010 1360     		str	r3, [r2]
 492:Generated_Source\PSoC4/Timer_OutputSpeed.c ****     Timer_OutputSpeed_CONTROL_REG |= ((uint32)((syncKillEnable & Timer_OutputSpeed_1BIT_MASK)  <<
ARM GAS  C:\Users\Ade0n\AppData\Local\Temp\ccqKniWt.s 			page 15


 307              		.loc 1 492 0
 308 0012 1568     		ldr	r5, [r2]
 309 0014 A300     		lsls	r3, r4, #2
 310 0016 1940     		ands	r1, r3
 311 0018 0C00     		movs	r4, r1
 312              	.LVL22:
 313 001a 2C43     		orrs	r4, r5
 314 001c 1460     		str	r4, [r2]
 493:Generated_Source\PSoC4/Timer_OutputSpeed.c ****                                                Timer_OutputSpeed_PWM_SYNC_KILL_SHIFT));
 494:Generated_Source\PSoC4/Timer_OutputSpeed.c **** 
 495:Generated_Source\PSoC4/Timer_OutputSpeed.c ****     CyExitCriticalSection(enableInterrupts);
 315              		.loc 1 495 0
 316 001e FFF7FEFF 		bl	CyExitCriticalSection
 317              	.LVL23:
 496:Generated_Source\PSoC4/Timer_OutputSpeed.c **** }
 318              		.loc 1 496 0
 319              		@ sp needed
 320 0022 70BD     		pop	{r4, r5, r6, pc}
 321              	.L21:
 322              		.align	2
 323              	.L20:
 324 0024 00012040 		.word	1075839232
 325              		.cfi_endproc
 326              	.LFE11:
 327              		.size	Timer_OutputSpeed_SetPWMSyncKill, .-Timer_OutputSpeed_SetPWMSyncKill
 328              		.section	.text.Timer_OutputSpeed_SetPWMStopOnKill,"ax",%progbits
 329              		.align	2
 330              		.global	Timer_OutputSpeed_SetPWMStopOnKill
 331              		.code	16
 332              		.thumb_func
 333              		.type	Timer_OutputSpeed_SetPWMStopOnKill, %function
 334              	Timer_OutputSpeed_SetPWMStopOnKill:
 335              	.LFB12:
 497:Generated_Source\PSoC4/Timer_OutputSpeed.c **** 
 498:Generated_Source\PSoC4/Timer_OutputSpeed.c **** 
 499:Generated_Source\PSoC4/Timer_OutputSpeed.c **** /*******************************************************************************
 500:Generated_Source\PSoC4/Timer_OutputSpeed.c **** * Function Name: Timer_OutputSpeed_SetPWMStopOnKill
 501:Generated_Source\PSoC4/Timer_OutputSpeed.c **** ********************************************************************************
 502:Generated_Source\PSoC4/Timer_OutputSpeed.c **** *
 503:Generated_Source\PSoC4/Timer_OutputSpeed.c **** * Summary:
 504:Generated_Source\PSoC4/Timer_OutputSpeed.c **** *  Writes the register that controls whether the PWM kill signal (stop input)
 505:Generated_Source\PSoC4/Timer_OutputSpeed.c **** *  causes the PWM counter to stop.  By default the kill operation does not stop
 506:Generated_Source\PSoC4/Timer_OutputSpeed.c **** *  the counter.  This functionality is only applicable to the three PWM modes.
 507:Generated_Source\PSoC4/Timer_OutputSpeed.c **** *
 508:Generated_Source\PSoC4/Timer_OutputSpeed.c **** *
 509:Generated_Source\PSoC4/Timer_OutputSpeed.c **** * Parameters:
 510:Generated_Source\PSoC4/Timer_OutputSpeed.c **** *  stopOnKillEnable
 511:Generated_Source\PSoC4/Timer_OutputSpeed.c **** *   Values:
 512:Generated_Source\PSoC4/Timer_OutputSpeed.c **** *     - 0 - Don't stop
 513:Generated_Source\PSoC4/Timer_OutputSpeed.c **** *     - 1 - Stop
 514:Generated_Source\PSoC4/Timer_OutputSpeed.c **** *
 515:Generated_Source\PSoC4/Timer_OutputSpeed.c **** * Return:
 516:Generated_Source\PSoC4/Timer_OutputSpeed.c **** *  None
 517:Generated_Source\PSoC4/Timer_OutputSpeed.c **** *
 518:Generated_Source\PSoC4/Timer_OutputSpeed.c **** *******************************************************************************/
 519:Generated_Source\PSoC4/Timer_OutputSpeed.c **** void Timer_OutputSpeed_SetPWMStopOnKill(uint32 stopOnKillEnable)
 520:Generated_Source\PSoC4/Timer_OutputSpeed.c **** {
ARM GAS  C:\Users\Ade0n\AppData\Local\Temp\ccqKniWt.s 			page 16


 336              		.loc 1 520 0
 337              		.cfi_startproc
 338              		@ args = 0, pretend = 0, frame = 0
 339              		@ frame_needed = 0, uses_anonymous_args = 0
 340              	.LVL24:
 341 0000 70B5     		push	{r4, r5, r6, lr}
 342              		.cfi_def_cfa_offset 16
 343              		.cfi_offset 4, -16
 344              		.cfi_offset 5, -12
 345              		.cfi_offset 6, -8
 346              		.cfi_offset 14, -4
 347 0002 0400     		movs	r4, r0
 521:Generated_Source\PSoC4/Timer_OutputSpeed.c ****     uint8 enableInterrupts;
 522:Generated_Source\PSoC4/Timer_OutputSpeed.c **** 
 523:Generated_Source\PSoC4/Timer_OutputSpeed.c ****     enableInterrupts = CyEnterCriticalSection();
 348              		.loc 1 523 0
 349 0004 FFF7FEFF 		bl	CyEnterCriticalSection
 350              	.LVL25:
 524:Generated_Source\PSoC4/Timer_OutputSpeed.c **** 
 525:Generated_Source\PSoC4/Timer_OutputSpeed.c ****     Timer_OutputSpeed_CONTROL_REG &= (uint32)~Timer_OutputSpeed_PWM_STOP_KILL_MASK;
 351              		.loc 1 525 0
 352 0008 064A     		ldr	r2, .L23
 353 000a 1368     		ldr	r3, [r2]
 354 000c 0821     		movs	r1, #8
 355 000e 8B43     		bics	r3, r1
 356 0010 1360     		str	r3, [r2]
 526:Generated_Source\PSoC4/Timer_OutputSpeed.c ****     Timer_OutputSpeed_CONTROL_REG |= ((uint32)((stopOnKillEnable & Timer_OutputSpeed_1BIT_MASK)  <<
 357              		.loc 1 526 0
 358 0012 1568     		ldr	r5, [r2]
 359 0014 E300     		lsls	r3, r4, #3
 360 0016 1940     		ands	r1, r3
 361 0018 0C00     		movs	r4, r1
 362              	.LVL26:
 363 001a 2C43     		orrs	r4, r5
 364 001c 1460     		str	r4, [r2]
 527:Generated_Source\PSoC4/Timer_OutputSpeed.c ****                                                          Timer_OutputSpeed_PWM_STOP_KILL_SHIFT));
 528:Generated_Source\PSoC4/Timer_OutputSpeed.c **** 
 529:Generated_Source\PSoC4/Timer_OutputSpeed.c ****     CyExitCriticalSection(enableInterrupts);
 365              		.loc 1 529 0
 366 001e FFF7FEFF 		bl	CyExitCriticalSection
 367              	.LVL27:
 530:Generated_Source\PSoC4/Timer_OutputSpeed.c **** }
 368              		.loc 1 530 0
 369              		@ sp needed
 370 0022 70BD     		pop	{r4, r5, r6, pc}
 371              	.L24:
 372              		.align	2
 373              	.L23:
 374 0024 00012040 		.word	1075839232
 375              		.cfi_endproc
 376              	.LFE12:
 377              		.size	Timer_OutputSpeed_SetPWMStopOnKill, .-Timer_OutputSpeed_SetPWMStopOnKill
 378              		.section	.text.Timer_OutputSpeed_SetPWMDeadTime,"ax",%progbits
 379              		.align	2
 380              		.global	Timer_OutputSpeed_SetPWMDeadTime
 381              		.code	16
 382              		.thumb_func
ARM GAS  C:\Users\Ade0n\AppData\Local\Temp\ccqKniWt.s 			page 17


 383              		.type	Timer_OutputSpeed_SetPWMDeadTime, %function
 384              	Timer_OutputSpeed_SetPWMDeadTime:
 385              	.LFB13:
 531:Generated_Source\PSoC4/Timer_OutputSpeed.c **** 
 532:Generated_Source\PSoC4/Timer_OutputSpeed.c **** 
 533:Generated_Source\PSoC4/Timer_OutputSpeed.c **** /*******************************************************************************
 534:Generated_Source\PSoC4/Timer_OutputSpeed.c **** * Function Name: Timer_OutputSpeed_SetPWMDeadTime
 535:Generated_Source\PSoC4/Timer_OutputSpeed.c **** ********************************************************************************
 536:Generated_Source\PSoC4/Timer_OutputSpeed.c **** *
 537:Generated_Source\PSoC4/Timer_OutputSpeed.c **** * Summary:
 538:Generated_Source\PSoC4/Timer_OutputSpeed.c **** *  Writes the dead time control value.  This value delays the rising edge of
 539:Generated_Source\PSoC4/Timer_OutputSpeed.c **** *  both the line and line_n signals the designated number of cycles resulting
 540:Generated_Source\PSoC4/Timer_OutputSpeed.c **** *  in both signals being inactive for that many cycles.  This functionality is
 541:Generated_Source\PSoC4/Timer_OutputSpeed.c **** *  only applicable to the PWM in the dead time mode.
 542:Generated_Source\PSoC4/Timer_OutputSpeed.c **** 
 543:Generated_Source\PSoC4/Timer_OutputSpeed.c **** *
 544:Generated_Source\PSoC4/Timer_OutputSpeed.c **** * Parameters:
 545:Generated_Source\PSoC4/Timer_OutputSpeed.c **** *  Dead time to insert
 546:Generated_Source\PSoC4/Timer_OutputSpeed.c **** *   Values: 0 to 255
 547:Generated_Source\PSoC4/Timer_OutputSpeed.c **** *
 548:Generated_Source\PSoC4/Timer_OutputSpeed.c **** * Return:
 549:Generated_Source\PSoC4/Timer_OutputSpeed.c **** *  None
 550:Generated_Source\PSoC4/Timer_OutputSpeed.c **** *
 551:Generated_Source\PSoC4/Timer_OutputSpeed.c **** *******************************************************************************/
 552:Generated_Source\PSoC4/Timer_OutputSpeed.c **** void Timer_OutputSpeed_SetPWMDeadTime(uint32 deadTime)
 553:Generated_Source\PSoC4/Timer_OutputSpeed.c **** {
 386              		.loc 1 553 0
 387              		.cfi_startproc
 388              		@ args = 0, pretend = 0, frame = 0
 389              		@ frame_needed = 0, uses_anonymous_args = 0
 390              	.LVL28:
 391 0000 10B5     		push	{r4, lr}
 392              		.cfi_def_cfa_offset 8
 393              		.cfi_offset 4, -8
 394              		.cfi_offset 14, -4
 395 0002 0400     		movs	r4, r0
 554:Generated_Source\PSoC4/Timer_OutputSpeed.c ****     uint8 enableInterrupts;
 555:Generated_Source\PSoC4/Timer_OutputSpeed.c **** 
 556:Generated_Source\PSoC4/Timer_OutputSpeed.c ****     enableInterrupts = CyEnterCriticalSection();
 396              		.loc 1 556 0
 397 0004 FFF7FEFF 		bl	CyEnterCriticalSection
 398              	.LVL29:
 557:Generated_Source\PSoC4/Timer_OutputSpeed.c **** 
 558:Generated_Source\PSoC4/Timer_OutputSpeed.c ****     Timer_OutputSpeed_CONTROL_REG &= (uint32)~Timer_OutputSpeed_PRESCALER_MASK;
 399              		.loc 1 558 0
 400 0008 064B     		ldr	r3, .L26
 401 000a 1968     		ldr	r1, [r3]
 402 000c 064A     		ldr	r2, .L26+4
 403 000e 0A40     		ands	r2, r1
 404 0010 1A60     		str	r2, [r3]
 559:Generated_Source\PSoC4/Timer_OutputSpeed.c ****     Timer_OutputSpeed_CONTROL_REG |= ((uint32)((deadTime & Timer_OutputSpeed_8BIT_MASK) <<
 405              		.loc 1 559 0
 406 0012 1A68     		ldr	r2, [r3]
 407 0014 2406     		lsls	r4, r4, #24
 408              	.LVL30:
 409 0016 240C     		lsrs	r4, r4, #16
 410 0018 1443     		orrs	r4, r2
ARM GAS  C:\Users\Ade0n\AppData\Local\Temp\ccqKniWt.s 			page 18


 411 001a 1C60     		str	r4, [r3]
 560:Generated_Source\PSoC4/Timer_OutputSpeed.c ****                                                           Timer_OutputSpeed_PRESCALER_SHIFT));
 561:Generated_Source\PSoC4/Timer_OutputSpeed.c **** 
 562:Generated_Source\PSoC4/Timer_OutputSpeed.c ****     CyExitCriticalSection(enableInterrupts);
 412              		.loc 1 562 0
 413 001c FFF7FEFF 		bl	CyExitCriticalSection
 414              	.LVL31:
 563:Generated_Source\PSoC4/Timer_OutputSpeed.c **** }
 415              		.loc 1 563 0
 416              		@ sp needed
 417 0020 10BD     		pop	{r4, pc}
 418              	.L27:
 419 0022 C046     		.align	2
 420              	.L26:
 421 0024 00012040 		.word	1075839232
 422 0028 FF00FFFF 		.word	-65281
 423              		.cfi_endproc
 424              	.LFE13:
 425              		.size	Timer_OutputSpeed_SetPWMDeadTime, .-Timer_OutputSpeed_SetPWMDeadTime
 426              		.section	.text.Timer_OutputSpeed_SetPWMInvert,"ax",%progbits
 427              		.align	2
 428              		.global	Timer_OutputSpeed_SetPWMInvert
 429              		.code	16
 430              		.thumb_func
 431              		.type	Timer_OutputSpeed_SetPWMInvert, %function
 432              	Timer_OutputSpeed_SetPWMInvert:
 433              	.LFB14:
 564:Generated_Source\PSoC4/Timer_OutputSpeed.c **** 
 565:Generated_Source\PSoC4/Timer_OutputSpeed.c **** 
 566:Generated_Source\PSoC4/Timer_OutputSpeed.c **** /*******************************************************************************
 567:Generated_Source\PSoC4/Timer_OutputSpeed.c **** * Function Name: Timer_OutputSpeed_SetPWMInvert
 568:Generated_Source\PSoC4/Timer_OutputSpeed.c **** ********************************************************************************
 569:Generated_Source\PSoC4/Timer_OutputSpeed.c **** *
 570:Generated_Source\PSoC4/Timer_OutputSpeed.c **** * Summary:
 571:Generated_Source\PSoC4/Timer_OutputSpeed.c **** *  Writes the bits that control whether the line and line_n outputs are
 572:Generated_Source\PSoC4/Timer_OutputSpeed.c **** *  inverted from their normal output values.  This functionality is only
 573:Generated_Source\PSoC4/Timer_OutputSpeed.c **** *  applicable to the three PWM modes.
 574:Generated_Source\PSoC4/Timer_OutputSpeed.c **** *
 575:Generated_Source\PSoC4/Timer_OutputSpeed.c **** * Parameters:
 576:Generated_Source\PSoC4/Timer_OutputSpeed.c **** *  mask: Mask of outputs to invert.
 577:Generated_Source\PSoC4/Timer_OutputSpeed.c **** *   Values:
 578:Generated_Source\PSoC4/Timer_OutputSpeed.c **** *         - Timer_OutputSpeed_INVERT_LINE   - Inverts the line output
 579:Generated_Source\PSoC4/Timer_OutputSpeed.c **** *         - Timer_OutputSpeed_INVERT_LINE_N - Inverts the line_n output
 580:Generated_Source\PSoC4/Timer_OutputSpeed.c **** *
 581:Generated_Source\PSoC4/Timer_OutputSpeed.c **** * Return:
 582:Generated_Source\PSoC4/Timer_OutputSpeed.c **** *  None
 583:Generated_Source\PSoC4/Timer_OutputSpeed.c **** *
 584:Generated_Source\PSoC4/Timer_OutputSpeed.c **** *******************************************************************************/
 585:Generated_Source\PSoC4/Timer_OutputSpeed.c **** void Timer_OutputSpeed_SetPWMInvert(uint32 mask)
 586:Generated_Source\PSoC4/Timer_OutputSpeed.c **** {
 434              		.loc 1 586 0
 435              		.cfi_startproc
 436              		@ args = 0, pretend = 0, frame = 0
 437              		@ frame_needed = 0, uses_anonymous_args = 0
 438              	.LVL32:
 439 0000 10B5     		push	{r4, lr}
 440              		.cfi_def_cfa_offset 8
ARM GAS  C:\Users\Ade0n\AppData\Local\Temp\ccqKniWt.s 			page 19


 441              		.cfi_offset 4, -8
 442              		.cfi_offset 14, -4
 443 0002 0400     		movs	r4, r0
 587:Generated_Source\PSoC4/Timer_OutputSpeed.c ****     uint8 enableInterrupts;
 588:Generated_Source\PSoC4/Timer_OutputSpeed.c **** 
 589:Generated_Source\PSoC4/Timer_OutputSpeed.c ****     enableInterrupts = CyEnterCriticalSection();
 444              		.loc 1 589 0
 445 0004 FFF7FEFF 		bl	CyEnterCriticalSection
 446              	.LVL33:
 590:Generated_Source\PSoC4/Timer_OutputSpeed.c **** 
 591:Generated_Source\PSoC4/Timer_OutputSpeed.c ****     Timer_OutputSpeed_CONTROL_REG &= (uint32)~Timer_OutputSpeed_INV_OUT_MASK;
 447              		.loc 1 591 0
 448 0008 054B     		ldr	r3, .L29
 449 000a 1968     		ldr	r1, [r3]
 450 000c 054A     		ldr	r2, .L29+4
 451 000e 0A40     		ands	r2, r1
 452 0010 1A60     		str	r2, [r3]
 592:Generated_Source\PSoC4/Timer_OutputSpeed.c ****     Timer_OutputSpeed_CONTROL_REG |= mask;
 453              		.loc 1 592 0
 454 0012 1A68     		ldr	r2, [r3]
 455 0014 1443     		orrs	r4, r2
 456              	.LVL34:
 457 0016 1C60     		str	r4, [r3]
 593:Generated_Source\PSoC4/Timer_OutputSpeed.c **** 
 594:Generated_Source\PSoC4/Timer_OutputSpeed.c ****     CyExitCriticalSection(enableInterrupts);
 458              		.loc 1 594 0
 459 0018 FFF7FEFF 		bl	CyExitCriticalSection
 460              	.LVL35:
 595:Generated_Source\PSoC4/Timer_OutputSpeed.c **** }
 461              		.loc 1 595 0
 462              		@ sp needed
 463 001c 10BD     		pop	{r4, pc}
 464              	.L30:
 465 001e C046     		.align	2
 466              	.L29:
 467 0020 00012040 		.word	1075839232
 468 0024 FFFFCFFF 		.word	-3145729
 469              		.cfi_endproc
 470              	.LFE14:
 471              		.size	Timer_OutputSpeed_SetPWMInvert, .-Timer_OutputSpeed_SetPWMInvert
 472              		.section	.text.Timer_OutputSpeed_WriteCounter,"ax",%progbits
 473              		.align	2
 474              		.global	Timer_OutputSpeed_WriteCounter
 475              		.code	16
 476              		.thumb_func
 477              		.type	Timer_OutputSpeed_WriteCounter, %function
 478              	Timer_OutputSpeed_WriteCounter:
 479              	.LFB15:
 596:Generated_Source\PSoC4/Timer_OutputSpeed.c **** 
 597:Generated_Source\PSoC4/Timer_OutputSpeed.c **** 
 598:Generated_Source\PSoC4/Timer_OutputSpeed.c **** 
 599:Generated_Source\PSoC4/Timer_OutputSpeed.c **** /*******************************************************************************
 600:Generated_Source\PSoC4/Timer_OutputSpeed.c **** * Function Name: Timer_OutputSpeed_WriteCounter
 601:Generated_Source\PSoC4/Timer_OutputSpeed.c **** ********************************************************************************
 602:Generated_Source\PSoC4/Timer_OutputSpeed.c **** *
 603:Generated_Source\PSoC4/Timer_OutputSpeed.c **** * Summary:
 604:Generated_Source\PSoC4/Timer_OutputSpeed.c **** *  Writes a new 16bit counter value directly into the counter register, thus
ARM GAS  C:\Users\Ade0n\AppData\Local\Temp\ccqKniWt.s 			page 20


 605:Generated_Source\PSoC4/Timer_OutputSpeed.c **** *  setting the counter (not the period) to the value written. It is not
 606:Generated_Source\PSoC4/Timer_OutputSpeed.c **** *  advised to write to this field when the counter is running.
 607:Generated_Source\PSoC4/Timer_OutputSpeed.c **** *
 608:Generated_Source\PSoC4/Timer_OutputSpeed.c **** * Parameters:
 609:Generated_Source\PSoC4/Timer_OutputSpeed.c **** *  count: value to write
 610:Generated_Source\PSoC4/Timer_OutputSpeed.c **** *
 611:Generated_Source\PSoC4/Timer_OutputSpeed.c **** * Return:
 612:Generated_Source\PSoC4/Timer_OutputSpeed.c **** *  None
 613:Generated_Source\PSoC4/Timer_OutputSpeed.c **** *
 614:Generated_Source\PSoC4/Timer_OutputSpeed.c **** *******************************************************************************/
 615:Generated_Source\PSoC4/Timer_OutputSpeed.c **** void Timer_OutputSpeed_WriteCounter(uint32 count)
 616:Generated_Source\PSoC4/Timer_OutputSpeed.c **** {
 480              		.loc 1 616 0
 481              		.cfi_startproc
 482              		@ args = 0, pretend = 0, frame = 0
 483              		@ frame_needed = 0, uses_anonymous_args = 0
 484              		@ link register save eliminated.
 485              	.LVL36:
 617:Generated_Source\PSoC4/Timer_OutputSpeed.c ****     Timer_OutputSpeed_COUNTER_REG = (count & Timer_OutputSpeed_16BIT_MASK);
 486              		.loc 1 617 0
 487 0000 0004     		lsls	r0, r0, #16
 488              	.LVL37:
 489 0002 000C     		lsrs	r0, r0, #16
 490 0004 014B     		ldr	r3, .L32
 491 0006 1860     		str	r0, [r3]
 618:Generated_Source\PSoC4/Timer_OutputSpeed.c **** }
 492              		.loc 1 618 0
 493              		@ sp needed
 494 0008 7047     		bx	lr
 495              	.L33:
 496 000a C046     		.align	2
 497              	.L32:
 498 000c 08012040 		.word	1075839240
 499              		.cfi_endproc
 500              	.LFE15:
 501              		.size	Timer_OutputSpeed_WriteCounter, .-Timer_OutputSpeed_WriteCounter
 502              		.section	.text.Timer_OutputSpeed_ReadCounter,"ax",%progbits
 503              		.align	2
 504              		.global	Timer_OutputSpeed_ReadCounter
 505              		.code	16
 506              		.thumb_func
 507              		.type	Timer_OutputSpeed_ReadCounter, %function
 508              	Timer_OutputSpeed_ReadCounter:
 509              	.LFB16:
 619:Generated_Source\PSoC4/Timer_OutputSpeed.c **** 
 620:Generated_Source\PSoC4/Timer_OutputSpeed.c **** 
 621:Generated_Source\PSoC4/Timer_OutputSpeed.c **** /*******************************************************************************
 622:Generated_Source\PSoC4/Timer_OutputSpeed.c **** * Function Name: Timer_OutputSpeed_ReadCounter
 623:Generated_Source\PSoC4/Timer_OutputSpeed.c **** ********************************************************************************
 624:Generated_Source\PSoC4/Timer_OutputSpeed.c **** *
 625:Generated_Source\PSoC4/Timer_OutputSpeed.c **** * Summary:
 626:Generated_Source\PSoC4/Timer_OutputSpeed.c **** *  Reads the current counter value.
 627:Generated_Source\PSoC4/Timer_OutputSpeed.c **** *
 628:Generated_Source\PSoC4/Timer_OutputSpeed.c **** * Parameters:
 629:Generated_Source\PSoC4/Timer_OutputSpeed.c **** *  None
 630:Generated_Source\PSoC4/Timer_OutputSpeed.c **** *
 631:Generated_Source\PSoC4/Timer_OutputSpeed.c **** * Return:
ARM GAS  C:\Users\Ade0n\AppData\Local\Temp\ccqKniWt.s 			page 21


 632:Generated_Source\PSoC4/Timer_OutputSpeed.c **** *  Current counter value
 633:Generated_Source\PSoC4/Timer_OutputSpeed.c **** *
 634:Generated_Source\PSoC4/Timer_OutputSpeed.c **** *******************************************************************************/
 635:Generated_Source\PSoC4/Timer_OutputSpeed.c **** uint32 Timer_OutputSpeed_ReadCounter(void)
 636:Generated_Source\PSoC4/Timer_OutputSpeed.c **** {
 510              		.loc 1 636 0
 511              		.cfi_startproc
 512              		@ args = 0, pretend = 0, frame = 0
 513              		@ frame_needed = 0, uses_anonymous_args = 0
 514              		@ link register save eliminated.
 637:Generated_Source\PSoC4/Timer_OutputSpeed.c ****     return (Timer_OutputSpeed_COUNTER_REG & Timer_OutputSpeed_16BIT_MASK);
 515              		.loc 1 637 0
 516 0000 024B     		ldr	r3, .L35
 517 0002 1868     		ldr	r0, [r3]
 518 0004 0004     		lsls	r0, r0, #16
 519 0006 000C     		lsrs	r0, r0, #16
 638:Generated_Source\PSoC4/Timer_OutputSpeed.c **** }
 520              		.loc 1 638 0
 521              		@ sp needed
 522 0008 7047     		bx	lr
 523              	.L36:
 524 000a C046     		.align	2
 525              	.L35:
 526 000c 08012040 		.word	1075839240
 527              		.cfi_endproc
 528              	.LFE16:
 529              		.size	Timer_OutputSpeed_ReadCounter, .-Timer_OutputSpeed_ReadCounter
 530              		.section	.text.Timer_OutputSpeed_SetCounterMode,"ax",%progbits
 531              		.align	2
 532              		.global	Timer_OutputSpeed_SetCounterMode
 533              		.code	16
 534              		.thumb_func
 535              		.type	Timer_OutputSpeed_SetCounterMode, %function
 536              	Timer_OutputSpeed_SetCounterMode:
 537              	.LFB17:
 639:Generated_Source\PSoC4/Timer_OutputSpeed.c **** 
 640:Generated_Source\PSoC4/Timer_OutputSpeed.c **** 
 641:Generated_Source\PSoC4/Timer_OutputSpeed.c **** /*******************************************************************************
 642:Generated_Source\PSoC4/Timer_OutputSpeed.c **** * Function Name: Timer_OutputSpeed_SetCounterMode
 643:Generated_Source\PSoC4/Timer_OutputSpeed.c **** ********************************************************************************
 644:Generated_Source\PSoC4/Timer_OutputSpeed.c **** *
 645:Generated_Source\PSoC4/Timer_OutputSpeed.c **** * Summary:
 646:Generated_Source\PSoC4/Timer_OutputSpeed.c **** *  Sets the counter mode.  Applicable to all modes except Quadrature Decoder
 647:Generated_Source\PSoC4/Timer_OutputSpeed.c **** *  and the PWM with a pseudo random output.
 648:Generated_Source\PSoC4/Timer_OutputSpeed.c **** *
 649:Generated_Source\PSoC4/Timer_OutputSpeed.c **** * Parameters:
 650:Generated_Source\PSoC4/Timer_OutputSpeed.c **** *  counterMode: Enumerated counter type values
 651:Generated_Source\PSoC4/Timer_OutputSpeed.c **** *   Values:
 652:Generated_Source\PSoC4/Timer_OutputSpeed.c **** *     - Timer_OutputSpeed_COUNT_UP       - Counts up
 653:Generated_Source\PSoC4/Timer_OutputSpeed.c **** *     - Timer_OutputSpeed_COUNT_DOWN     - Counts down
 654:Generated_Source\PSoC4/Timer_OutputSpeed.c **** *     - Timer_OutputSpeed_COUNT_UPDOWN0  - Counts up and down. Terminal count
 655:Generated_Source\PSoC4/Timer_OutputSpeed.c **** *                                         generated when counter reaches 0
 656:Generated_Source\PSoC4/Timer_OutputSpeed.c **** *     - Timer_OutputSpeed_COUNT_UPDOWN1  - Counts up and down. Terminal count
 657:Generated_Source\PSoC4/Timer_OutputSpeed.c **** *                                         generated both when counter reaches 0
 658:Generated_Source\PSoC4/Timer_OutputSpeed.c **** *                                         and period
 659:Generated_Source\PSoC4/Timer_OutputSpeed.c **** *
 660:Generated_Source\PSoC4/Timer_OutputSpeed.c **** * Return:
ARM GAS  C:\Users\Ade0n\AppData\Local\Temp\ccqKniWt.s 			page 22


 661:Generated_Source\PSoC4/Timer_OutputSpeed.c **** *  None
 662:Generated_Source\PSoC4/Timer_OutputSpeed.c **** *
 663:Generated_Source\PSoC4/Timer_OutputSpeed.c **** *******************************************************************************/
 664:Generated_Source\PSoC4/Timer_OutputSpeed.c **** void Timer_OutputSpeed_SetCounterMode(uint32 counterMode)
 665:Generated_Source\PSoC4/Timer_OutputSpeed.c **** {
 538              		.loc 1 665 0
 539              		.cfi_startproc
 540              		@ args = 0, pretend = 0, frame = 0
 541              		@ frame_needed = 0, uses_anonymous_args = 0
 542              	.LVL38:
 543 0000 10B5     		push	{r4, lr}
 544              		.cfi_def_cfa_offset 8
 545              		.cfi_offset 4, -8
 546              		.cfi_offset 14, -4
 547 0002 0400     		movs	r4, r0
 666:Generated_Source\PSoC4/Timer_OutputSpeed.c ****     uint8 enableInterrupts;
 667:Generated_Source\PSoC4/Timer_OutputSpeed.c **** 
 668:Generated_Source\PSoC4/Timer_OutputSpeed.c ****     enableInterrupts = CyEnterCriticalSection();
 548              		.loc 1 668 0
 549 0004 FFF7FEFF 		bl	CyEnterCriticalSection
 550              	.LVL39:
 669:Generated_Source\PSoC4/Timer_OutputSpeed.c **** 
 670:Generated_Source\PSoC4/Timer_OutputSpeed.c ****     Timer_OutputSpeed_CONTROL_REG &= (uint32)~Timer_OutputSpeed_UPDOWN_MASK;
 551              		.loc 1 670 0
 552 0008 054B     		ldr	r3, .L38
 553 000a 1968     		ldr	r1, [r3]
 554 000c 054A     		ldr	r2, .L38+4
 555 000e 0A40     		ands	r2, r1
 556 0010 1A60     		str	r2, [r3]
 671:Generated_Source\PSoC4/Timer_OutputSpeed.c ****     Timer_OutputSpeed_CONTROL_REG |= counterMode;
 557              		.loc 1 671 0
 558 0012 1A68     		ldr	r2, [r3]
 559 0014 1443     		orrs	r4, r2
 560              	.LVL40:
 561 0016 1C60     		str	r4, [r3]
 672:Generated_Source\PSoC4/Timer_OutputSpeed.c **** 
 673:Generated_Source\PSoC4/Timer_OutputSpeed.c ****     CyExitCriticalSection(enableInterrupts);
 562              		.loc 1 673 0
 563 0018 FFF7FEFF 		bl	CyExitCriticalSection
 564              	.LVL41:
 674:Generated_Source\PSoC4/Timer_OutputSpeed.c **** }
 565              		.loc 1 674 0
 566              		@ sp needed
 567 001c 10BD     		pop	{r4, pc}
 568              	.L39:
 569 001e C046     		.align	2
 570              	.L38:
 571 0020 00012040 		.word	1075839232
 572 0024 FFFFFCFF 		.word	-196609
 573              		.cfi_endproc
 574              	.LFE17:
 575              		.size	Timer_OutputSpeed_SetCounterMode, .-Timer_OutputSpeed_SetCounterMode
 576              		.section	.text.Timer_OutputSpeed_WritePeriod,"ax",%progbits
 577              		.align	2
 578              		.global	Timer_OutputSpeed_WritePeriod
 579              		.code	16
 580              		.thumb_func
ARM GAS  C:\Users\Ade0n\AppData\Local\Temp\ccqKniWt.s 			page 23


 581              		.type	Timer_OutputSpeed_WritePeriod, %function
 582              	Timer_OutputSpeed_WritePeriod:
 583              	.LFB18:
 675:Generated_Source\PSoC4/Timer_OutputSpeed.c **** 
 676:Generated_Source\PSoC4/Timer_OutputSpeed.c **** 
 677:Generated_Source\PSoC4/Timer_OutputSpeed.c **** /*******************************************************************************
 678:Generated_Source\PSoC4/Timer_OutputSpeed.c **** * Function Name: Timer_OutputSpeed_WritePeriod
 679:Generated_Source\PSoC4/Timer_OutputSpeed.c **** ********************************************************************************
 680:Generated_Source\PSoC4/Timer_OutputSpeed.c **** *
 681:Generated_Source\PSoC4/Timer_OutputSpeed.c **** * Summary:
 682:Generated_Source\PSoC4/Timer_OutputSpeed.c **** *  Writes the 16 bit period register with the new period value.
 683:Generated_Source\PSoC4/Timer_OutputSpeed.c **** *  To cause the counter to count for N cycles this register should be written
 684:Generated_Source\PSoC4/Timer_OutputSpeed.c **** *  with N-1 (counts from 0 to period inclusive).
 685:Generated_Source\PSoC4/Timer_OutputSpeed.c **** *
 686:Generated_Source\PSoC4/Timer_OutputSpeed.c **** * Parameters:
 687:Generated_Source\PSoC4/Timer_OutputSpeed.c **** *  period: Period value
 688:Generated_Source\PSoC4/Timer_OutputSpeed.c **** *
 689:Generated_Source\PSoC4/Timer_OutputSpeed.c **** * Return:
 690:Generated_Source\PSoC4/Timer_OutputSpeed.c **** *  None
 691:Generated_Source\PSoC4/Timer_OutputSpeed.c **** *
 692:Generated_Source\PSoC4/Timer_OutputSpeed.c **** *******************************************************************************/
 693:Generated_Source\PSoC4/Timer_OutputSpeed.c **** void Timer_OutputSpeed_WritePeriod(uint32 period)
 694:Generated_Source\PSoC4/Timer_OutputSpeed.c **** {
 584              		.loc 1 694 0
 585              		.cfi_startproc
 586              		@ args = 0, pretend = 0, frame = 0
 587              		@ frame_needed = 0, uses_anonymous_args = 0
 588              		@ link register save eliminated.
 589              	.LVL42:
 695:Generated_Source\PSoC4/Timer_OutputSpeed.c ****     Timer_OutputSpeed_PERIOD_REG = (period & Timer_OutputSpeed_16BIT_MASK);
 590              		.loc 1 695 0
 591 0000 0004     		lsls	r0, r0, #16
 592              	.LVL43:
 593 0002 000C     		lsrs	r0, r0, #16
 594 0004 014B     		ldr	r3, .L41
 595 0006 1860     		str	r0, [r3]
 696:Generated_Source\PSoC4/Timer_OutputSpeed.c **** }
 596              		.loc 1 696 0
 597              		@ sp needed
 598 0008 7047     		bx	lr
 599              	.L42:
 600 000a C046     		.align	2
 601              	.L41:
 602 000c 14012040 		.word	1075839252
 603              		.cfi_endproc
 604              	.LFE18:
 605              		.size	Timer_OutputSpeed_WritePeriod, .-Timer_OutputSpeed_WritePeriod
 606              		.section	.text.Timer_OutputSpeed_ReadPeriod,"ax",%progbits
 607              		.align	2
 608              		.global	Timer_OutputSpeed_ReadPeriod
 609              		.code	16
 610              		.thumb_func
 611              		.type	Timer_OutputSpeed_ReadPeriod, %function
 612              	Timer_OutputSpeed_ReadPeriod:
 613              	.LFB19:
 697:Generated_Source\PSoC4/Timer_OutputSpeed.c **** 
 698:Generated_Source\PSoC4/Timer_OutputSpeed.c **** 
ARM GAS  C:\Users\Ade0n\AppData\Local\Temp\ccqKniWt.s 			page 24


 699:Generated_Source\PSoC4/Timer_OutputSpeed.c **** /*******************************************************************************
 700:Generated_Source\PSoC4/Timer_OutputSpeed.c **** * Function Name: Timer_OutputSpeed_ReadPeriod
 701:Generated_Source\PSoC4/Timer_OutputSpeed.c **** ********************************************************************************
 702:Generated_Source\PSoC4/Timer_OutputSpeed.c **** *
 703:Generated_Source\PSoC4/Timer_OutputSpeed.c **** * Summary:
 704:Generated_Source\PSoC4/Timer_OutputSpeed.c **** *  Reads the 16 bit period register.
 705:Generated_Source\PSoC4/Timer_OutputSpeed.c **** *
 706:Generated_Source\PSoC4/Timer_OutputSpeed.c **** * Parameters:
 707:Generated_Source\PSoC4/Timer_OutputSpeed.c **** *  None
 708:Generated_Source\PSoC4/Timer_OutputSpeed.c **** *
 709:Generated_Source\PSoC4/Timer_OutputSpeed.c **** * Return:
 710:Generated_Source\PSoC4/Timer_OutputSpeed.c **** *  Period value
 711:Generated_Source\PSoC4/Timer_OutputSpeed.c **** *
 712:Generated_Source\PSoC4/Timer_OutputSpeed.c **** *******************************************************************************/
 713:Generated_Source\PSoC4/Timer_OutputSpeed.c **** uint32 Timer_OutputSpeed_ReadPeriod(void)
 714:Generated_Source\PSoC4/Timer_OutputSpeed.c **** {
 614              		.loc 1 714 0
 615              		.cfi_startproc
 616              		@ args = 0, pretend = 0, frame = 0
 617              		@ frame_needed = 0, uses_anonymous_args = 0
 618              		@ link register save eliminated.
 715:Generated_Source\PSoC4/Timer_OutputSpeed.c ****     return (Timer_OutputSpeed_PERIOD_REG & Timer_OutputSpeed_16BIT_MASK);
 619              		.loc 1 715 0
 620 0000 024B     		ldr	r3, .L44
 621 0002 1868     		ldr	r0, [r3]
 622 0004 0004     		lsls	r0, r0, #16
 623 0006 000C     		lsrs	r0, r0, #16
 716:Generated_Source\PSoC4/Timer_OutputSpeed.c **** }
 624              		.loc 1 716 0
 625              		@ sp needed
 626 0008 7047     		bx	lr
 627              	.L45:
 628 000a C046     		.align	2
 629              	.L44:
 630 000c 14012040 		.word	1075839252
 631              		.cfi_endproc
 632              	.LFE19:
 633              		.size	Timer_OutputSpeed_ReadPeriod, .-Timer_OutputSpeed_ReadPeriod
 634              		.section	.text.Timer_OutputSpeed_SetCompareSwap,"ax",%progbits
 635              		.align	2
 636              		.global	Timer_OutputSpeed_SetCompareSwap
 637              		.code	16
 638              		.thumb_func
 639              		.type	Timer_OutputSpeed_SetCompareSwap, %function
 640              	Timer_OutputSpeed_SetCompareSwap:
 641              	.LFB20:
 717:Generated_Source\PSoC4/Timer_OutputSpeed.c **** 
 718:Generated_Source\PSoC4/Timer_OutputSpeed.c **** 
 719:Generated_Source\PSoC4/Timer_OutputSpeed.c **** /*******************************************************************************
 720:Generated_Source\PSoC4/Timer_OutputSpeed.c **** * Function Name: Timer_OutputSpeed_SetCompareSwap
 721:Generated_Source\PSoC4/Timer_OutputSpeed.c **** ********************************************************************************
 722:Generated_Source\PSoC4/Timer_OutputSpeed.c **** *
 723:Generated_Source\PSoC4/Timer_OutputSpeed.c **** * Summary:
 724:Generated_Source\PSoC4/Timer_OutputSpeed.c **** *  Writes the register that controls whether the compare registers are
 725:Generated_Source\PSoC4/Timer_OutputSpeed.c **** *  swapped. When enabled in the Timer/Counter mode(without capture) the swap
 726:Generated_Source\PSoC4/Timer_OutputSpeed.c **** *  occurs at a TC event. In the PWM mode the swap occurs at the next TC event
 727:Generated_Source\PSoC4/Timer_OutputSpeed.c **** *  following a hardware switch event.
ARM GAS  C:\Users\Ade0n\AppData\Local\Temp\ccqKniWt.s 			page 25


 728:Generated_Source\PSoC4/Timer_OutputSpeed.c **** *
 729:Generated_Source\PSoC4/Timer_OutputSpeed.c **** * Parameters:
 730:Generated_Source\PSoC4/Timer_OutputSpeed.c **** *  swapEnable
 731:Generated_Source\PSoC4/Timer_OutputSpeed.c **** *   Values:
 732:Generated_Source\PSoC4/Timer_OutputSpeed.c **** *     - 0 - Disable swap
 733:Generated_Source\PSoC4/Timer_OutputSpeed.c **** *     - 1 - Enable swap
 734:Generated_Source\PSoC4/Timer_OutputSpeed.c **** *
 735:Generated_Source\PSoC4/Timer_OutputSpeed.c **** * Return:
 736:Generated_Source\PSoC4/Timer_OutputSpeed.c **** *  None
 737:Generated_Source\PSoC4/Timer_OutputSpeed.c **** *
 738:Generated_Source\PSoC4/Timer_OutputSpeed.c **** *******************************************************************************/
 739:Generated_Source\PSoC4/Timer_OutputSpeed.c **** void Timer_OutputSpeed_SetCompareSwap(uint32 swapEnable)
 740:Generated_Source\PSoC4/Timer_OutputSpeed.c **** {
 642              		.loc 1 740 0
 643              		.cfi_startproc
 644              		@ args = 0, pretend = 0, frame = 0
 645              		@ frame_needed = 0, uses_anonymous_args = 0
 646              	.LVL44:
 647 0000 10B5     		push	{r4, lr}
 648              		.cfi_def_cfa_offset 8
 649              		.cfi_offset 4, -8
 650              		.cfi_offset 14, -4
 651 0002 0400     		movs	r4, r0
 741:Generated_Source\PSoC4/Timer_OutputSpeed.c ****     uint8 enableInterrupts;
 742:Generated_Source\PSoC4/Timer_OutputSpeed.c **** 
 743:Generated_Source\PSoC4/Timer_OutputSpeed.c ****     enableInterrupts = CyEnterCriticalSection();
 652              		.loc 1 743 0
 653 0004 FFF7FEFF 		bl	CyEnterCriticalSection
 654              	.LVL45:
 744:Generated_Source\PSoC4/Timer_OutputSpeed.c **** 
 745:Generated_Source\PSoC4/Timer_OutputSpeed.c ****     Timer_OutputSpeed_CONTROL_REG &= (uint32)~Timer_OutputSpeed_RELOAD_CC_MASK;
 655              		.loc 1 745 0
 656 0008 054B     		ldr	r3, .L47
 657 000a 1A68     		ldr	r2, [r3]
 658 000c 0121     		movs	r1, #1
 659 000e 8A43     		bics	r2, r1
 660 0010 1A60     		str	r2, [r3]
 746:Generated_Source\PSoC4/Timer_OutputSpeed.c ****     Timer_OutputSpeed_CONTROL_REG |= (swapEnable & Timer_OutputSpeed_1BIT_MASK);
 661              		.loc 1 746 0
 662 0012 1A68     		ldr	r2, [r3]
 663 0014 0C40     		ands	r4, r1
 664              	.LVL46:
 665 0016 1443     		orrs	r4, r2
 666 0018 1C60     		str	r4, [r3]
 747:Generated_Source\PSoC4/Timer_OutputSpeed.c **** 
 748:Generated_Source\PSoC4/Timer_OutputSpeed.c ****     CyExitCriticalSection(enableInterrupts);
 667              		.loc 1 748 0
 668 001a FFF7FEFF 		bl	CyExitCriticalSection
 669              	.LVL47:
 749:Generated_Source\PSoC4/Timer_OutputSpeed.c **** }
 670              		.loc 1 749 0
 671              		@ sp needed
 672 001e 10BD     		pop	{r4, pc}
 673              	.L48:
 674              		.align	2
 675              	.L47:
 676 0020 00012040 		.word	1075839232
ARM GAS  C:\Users\Ade0n\AppData\Local\Temp\ccqKniWt.s 			page 26


 677              		.cfi_endproc
 678              	.LFE20:
 679              		.size	Timer_OutputSpeed_SetCompareSwap, .-Timer_OutputSpeed_SetCompareSwap
 680              		.section	.text.Timer_OutputSpeed_WritePeriodBuf,"ax",%progbits
 681              		.align	2
 682              		.global	Timer_OutputSpeed_WritePeriodBuf
 683              		.code	16
 684              		.thumb_func
 685              		.type	Timer_OutputSpeed_WritePeriodBuf, %function
 686              	Timer_OutputSpeed_WritePeriodBuf:
 687              	.LFB21:
 750:Generated_Source\PSoC4/Timer_OutputSpeed.c **** 
 751:Generated_Source\PSoC4/Timer_OutputSpeed.c **** 
 752:Generated_Source\PSoC4/Timer_OutputSpeed.c **** /*******************************************************************************
 753:Generated_Source\PSoC4/Timer_OutputSpeed.c **** * Function Name: Timer_OutputSpeed_WritePeriodBuf
 754:Generated_Source\PSoC4/Timer_OutputSpeed.c **** ********************************************************************************
 755:Generated_Source\PSoC4/Timer_OutputSpeed.c **** *
 756:Generated_Source\PSoC4/Timer_OutputSpeed.c **** * Summary:
 757:Generated_Source\PSoC4/Timer_OutputSpeed.c **** *  Writes the 16 bit period buf register with the new period value.
 758:Generated_Source\PSoC4/Timer_OutputSpeed.c **** *
 759:Generated_Source\PSoC4/Timer_OutputSpeed.c **** * Parameters:
 760:Generated_Source\PSoC4/Timer_OutputSpeed.c **** *  periodBuf: Period value
 761:Generated_Source\PSoC4/Timer_OutputSpeed.c **** *
 762:Generated_Source\PSoC4/Timer_OutputSpeed.c **** * Return:
 763:Generated_Source\PSoC4/Timer_OutputSpeed.c **** *  None
 764:Generated_Source\PSoC4/Timer_OutputSpeed.c **** *
 765:Generated_Source\PSoC4/Timer_OutputSpeed.c **** *******************************************************************************/
 766:Generated_Source\PSoC4/Timer_OutputSpeed.c **** void Timer_OutputSpeed_WritePeriodBuf(uint32 periodBuf)
 767:Generated_Source\PSoC4/Timer_OutputSpeed.c **** {
 688              		.loc 1 767 0
 689              		.cfi_startproc
 690              		@ args = 0, pretend = 0, frame = 0
 691              		@ frame_needed = 0, uses_anonymous_args = 0
 692              		@ link register save eliminated.
 693              	.LVL48:
 768:Generated_Source\PSoC4/Timer_OutputSpeed.c ****     Timer_OutputSpeed_PERIOD_BUF_REG = (periodBuf & Timer_OutputSpeed_16BIT_MASK);
 694              		.loc 1 768 0
 695 0000 0004     		lsls	r0, r0, #16
 696              	.LVL49:
 697 0002 000C     		lsrs	r0, r0, #16
 698 0004 014B     		ldr	r3, .L50
 699 0006 1860     		str	r0, [r3]
 769:Generated_Source\PSoC4/Timer_OutputSpeed.c **** }
 700              		.loc 1 769 0
 701              		@ sp needed
 702 0008 7047     		bx	lr
 703              	.L51:
 704 000a C046     		.align	2
 705              	.L50:
 706 000c 18012040 		.word	1075839256
 707              		.cfi_endproc
 708              	.LFE21:
 709              		.size	Timer_OutputSpeed_WritePeriodBuf, .-Timer_OutputSpeed_WritePeriodBuf
 710              		.section	.text.Timer_OutputSpeed_ReadPeriodBuf,"ax",%progbits
 711              		.align	2
 712              		.global	Timer_OutputSpeed_ReadPeriodBuf
 713              		.code	16
ARM GAS  C:\Users\Ade0n\AppData\Local\Temp\ccqKniWt.s 			page 27


 714              		.thumb_func
 715              		.type	Timer_OutputSpeed_ReadPeriodBuf, %function
 716              	Timer_OutputSpeed_ReadPeriodBuf:
 717              	.LFB22:
 770:Generated_Source\PSoC4/Timer_OutputSpeed.c **** 
 771:Generated_Source\PSoC4/Timer_OutputSpeed.c **** 
 772:Generated_Source\PSoC4/Timer_OutputSpeed.c **** /*******************************************************************************
 773:Generated_Source\PSoC4/Timer_OutputSpeed.c **** * Function Name: Timer_OutputSpeed_ReadPeriodBuf
 774:Generated_Source\PSoC4/Timer_OutputSpeed.c **** ********************************************************************************
 775:Generated_Source\PSoC4/Timer_OutputSpeed.c **** *
 776:Generated_Source\PSoC4/Timer_OutputSpeed.c **** * Summary:
 777:Generated_Source\PSoC4/Timer_OutputSpeed.c **** *  Reads the 16 bit period buf register.
 778:Generated_Source\PSoC4/Timer_OutputSpeed.c **** *
 779:Generated_Source\PSoC4/Timer_OutputSpeed.c **** * Parameters:
 780:Generated_Source\PSoC4/Timer_OutputSpeed.c **** *  None
 781:Generated_Source\PSoC4/Timer_OutputSpeed.c **** *
 782:Generated_Source\PSoC4/Timer_OutputSpeed.c **** * Return:
 783:Generated_Source\PSoC4/Timer_OutputSpeed.c **** *  Period value
 784:Generated_Source\PSoC4/Timer_OutputSpeed.c **** *
 785:Generated_Source\PSoC4/Timer_OutputSpeed.c **** *******************************************************************************/
 786:Generated_Source\PSoC4/Timer_OutputSpeed.c **** uint32 Timer_OutputSpeed_ReadPeriodBuf(void)
 787:Generated_Source\PSoC4/Timer_OutputSpeed.c **** {
 718              		.loc 1 787 0
 719              		.cfi_startproc
 720              		@ args = 0, pretend = 0, frame = 0
 721              		@ frame_needed = 0, uses_anonymous_args = 0
 722              		@ link register save eliminated.
 788:Generated_Source\PSoC4/Timer_OutputSpeed.c ****     return (Timer_OutputSpeed_PERIOD_BUF_REG & Timer_OutputSpeed_16BIT_MASK);
 723              		.loc 1 788 0
 724 0000 024B     		ldr	r3, .L53
 725 0002 1868     		ldr	r0, [r3]
 726 0004 0004     		lsls	r0, r0, #16
 727 0006 000C     		lsrs	r0, r0, #16
 789:Generated_Source\PSoC4/Timer_OutputSpeed.c **** }
 728              		.loc 1 789 0
 729              		@ sp needed
 730 0008 7047     		bx	lr
 731              	.L54:
 732 000a C046     		.align	2
 733              	.L53:
 734 000c 18012040 		.word	1075839256
 735              		.cfi_endproc
 736              	.LFE22:
 737              		.size	Timer_OutputSpeed_ReadPeriodBuf, .-Timer_OutputSpeed_ReadPeriodBuf
 738              		.section	.text.Timer_OutputSpeed_SetPeriodSwap,"ax",%progbits
 739              		.align	2
 740              		.global	Timer_OutputSpeed_SetPeriodSwap
 741              		.code	16
 742              		.thumb_func
 743              		.type	Timer_OutputSpeed_SetPeriodSwap, %function
 744              	Timer_OutputSpeed_SetPeriodSwap:
 745              	.LFB23:
 790:Generated_Source\PSoC4/Timer_OutputSpeed.c **** 
 791:Generated_Source\PSoC4/Timer_OutputSpeed.c **** 
 792:Generated_Source\PSoC4/Timer_OutputSpeed.c **** /*******************************************************************************
 793:Generated_Source\PSoC4/Timer_OutputSpeed.c **** * Function Name: Timer_OutputSpeed_SetPeriodSwap
 794:Generated_Source\PSoC4/Timer_OutputSpeed.c **** ********************************************************************************
ARM GAS  C:\Users\Ade0n\AppData\Local\Temp\ccqKniWt.s 			page 28


 795:Generated_Source\PSoC4/Timer_OutputSpeed.c **** *
 796:Generated_Source\PSoC4/Timer_OutputSpeed.c **** * Summary:
 797:Generated_Source\PSoC4/Timer_OutputSpeed.c **** *  Writes the register that controls whether the period registers are
 798:Generated_Source\PSoC4/Timer_OutputSpeed.c **** *  swapped. When enabled in Timer/Counter mode the swap occurs at a TC event.
 799:Generated_Source\PSoC4/Timer_OutputSpeed.c **** *  In the PWM mode the swap occurs at the next TC event following a hardware
 800:Generated_Source\PSoC4/Timer_OutputSpeed.c **** *  switch event.
 801:Generated_Source\PSoC4/Timer_OutputSpeed.c **** *
 802:Generated_Source\PSoC4/Timer_OutputSpeed.c **** * Parameters:
 803:Generated_Source\PSoC4/Timer_OutputSpeed.c **** *  swapEnable
 804:Generated_Source\PSoC4/Timer_OutputSpeed.c **** *   Values:
 805:Generated_Source\PSoC4/Timer_OutputSpeed.c **** *     - 0 - Disable swap
 806:Generated_Source\PSoC4/Timer_OutputSpeed.c **** *     - 1 - Enable swap
 807:Generated_Source\PSoC4/Timer_OutputSpeed.c **** *
 808:Generated_Source\PSoC4/Timer_OutputSpeed.c **** * Return:
 809:Generated_Source\PSoC4/Timer_OutputSpeed.c **** *  None
 810:Generated_Source\PSoC4/Timer_OutputSpeed.c **** *
 811:Generated_Source\PSoC4/Timer_OutputSpeed.c **** *******************************************************************************/
 812:Generated_Source\PSoC4/Timer_OutputSpeed.c **** void Timer_OutputSpeed_SetPeriodSwap(uint32 swapEnable)
 813:Generated_Source\PSoC4/Timer_OutputSpeed.c **** {
 746              		.loc 1 813 0
 747              		.cfi_startproc
 748              		@ args = 0, pretend = 0, frame = 0
 749              		@ frame_needed = 0, uses_anonymous_args = 0
 750              	.LVL50:
 751 0000 70B5     		push	{r4, r5, r6, lr}
 752              		.cfi_def_cfa_offset 16
 753              		.cfi_offset 4, -16
 754              		.cfi_offset 5, -12
 755              		.cfi_offset 6, -8
 756              		.cfi_offset 14, -4
 757 0002 0400     		movs	r4, r0
 814:Generated_Source\PSoC4/Timer_OutputSpeed.c ****     uint8 enableInterrupts;
 815:Generated_Source\PSoC4/Timer_OutputSpeed.c **** 
 816:Generated_Source\PSoC4/Timer_OutputSpeed.c ****     enableInterrupts = CyEnterCriticalSection();
 758              		.loc 1 816 0
 759 0004 FFF7FEFF 		bl	CyEnterCriticalSection
 760              	.LVL51:
 817:Generated_Source\PSoC4/Timer_OutputSpeed.c **** 
 818:Generated_Source\PSoC4/Timer_OutputSpeed.c ****     Timer_OutputSpeed_CONTROL_REG &= (uint32)~Timer_OutputSpeed_RELOAD_PERIOD_MASK;
 761              		.loc 1 818 0
 762 0008 064A     		ldr	r2, .L56
 763 000a 1368     		ldr	r3, [r2]
 764 000c 0221     		movs	r1, #2
 765 000e 8B43     		bics	r3, r1
 766 0010 1360     		str	r3, [r2]
 819:Generated_Source\PSoC4/Timer_OutputSpeed.c ****     Timer_OutputSpeed_CONTROL_REG |= ((uint32)((swapEnable & Timer_OutputSpeed_1BIT_MASK) <<
 767              		.loc 1 819 0
 768 0012 1568     		ldr	r5, [r2]
 769 0014 6300     		lsls	r3, r4, #1
 770 0016 1940     		ands	r1, r3
 771 0018 0C00     		movs	r4, r1
 772              	.LVL52:
 773 001a 2C43     		orrs	r4, r5
 774 001c 1460     		str	r4, [r2]
 820:Generated_Source\PSoC4/Timer_OutputSpeed.c ****                                                             Timer_OutputSpeed_RELOAD_PERIOD_SHIFT))
 821:Generated_Source\PSoC4/Timer_OutputSpeed.c **** 
 822:Generated_Source\PSoC4/Timer_OutputSpeed.c ****     CyExitCriticalSection(enableInterrupts);
ARM GAS  C:\Users\Ade0n\AppData\Local\Temp\ccqKniWt.s 			page 29


 775              		.loc 1 822 0
 776 001e FFF7FEFF 		bl	CyExitCriticalSection
 777              	.LVL53:
 823:Generated_Source\PSoC4/Timer_OutputSpeed.c **** }
 778              		.loc 1 823 0
 779              		@ sp needed
 780 0022 70BD     		pop	{r4, r5, r6, pc}
 781              	.L57:
 782              		.align	2
 783              	.L56:
 784 0024 00012040 		.word	1075839232
 785              		.cfi_endproc
 786              	.LFE23:
 787              		.size	Timer_OutputSpeed_SetPeriodSwap, .-Timer_OutputSpeed_SetPeriodSwap
 788              		.section	.text.Timer_OutputSpeed_WriteCompare,"ax",%progbits
 789              		.align	2
 790              		.global	Timer_OutputSpeed_WriteCompare
 791              		.code	16
 792              		.thumb_func
 793              		.type	Timer_OutputSpeed_WriteCompare, %function
 794              	Timer_OutputSpeed_WriteCompare:
 795              	.LFB24:
 824:Generated_Source\PSoC4/Timer_OutputSpeed.c **** 
 825:Generated_Source\PSoC4/Timer_OutputSpeed.c **** 
 826:Generated_Source\PSoC4/Timer_OutputSpeed.c **** /*******************************************************************************
 827:Generated_Source\PSoC4/Timer_OutputSpeed.c **** * Function Name: Timer_OutputSpeed_WriteCompare
 828:Generated_Source\PSoC4/Timer_OutputSpeed.c **** ********************************************************************************
 829:Generated_Source\PSoC4/Timer_OutputSpeed.c **** *
 830:Generated_Source\PSoC4/Timer_OutputSpeed.c **** * Summary:
 831:Generated_Source\PSoC4/Timer_OutputSpeed.c **** *  Writes the 16 bit compare register with the new compare value. Not
 832:Generated_Source\PSoC4/Timer_OutputSpeed.c **** *  applicable for Timer/Counter with Capture or in Quadrature Decoder modes.
 833:Generated_Source\PSoC4/Timer_OutputSpeed.c **** *
 834:Generated_Source\PSoC4/Timer_OutputSpeed.c **** * Parameters:
 835:Generated_Source\PSoC4/Timer_OutputSpeed.c **** *  compare: Compare value
 836:Generated_Source\PSoC4/Timer_OutputSpeed.c **** *
 837:Generated_Source\PSoC4/Timer_OutputSpeed.c **** * Return:
 838:Generated_Source\PSoC4/Timer_OutputSpeed.c **** *  None
 839:Generated_Source\PSoC4/Timer_OutputSpeed.c **** *
 840:Generated_Source\PSoC4/Timer_OutputSpeed.c **** * Note:
 841:Generated_Source\PSoC4/Timer_OutputSpeed.c **** *  It is not recommended to use the value equal to "0" or equal to 
 842:Generated_Source\PSoC4/Timer_OutputSpeed.c **** *  "period value" in Center or Asymmetric align PWM modes on the 
 843:Generated_Source\PSoC4/Timer_OutputSpeed.c **** *  PSoC 4100/PSoC 4200 devices.
 844:Generated_Source\PSoC4/Timer_OutputSpeed.c **** *  PSoC 4000 devices write the 16 bit compare register with the decremented 
 845:Generated_Source\PSoC4/Timer_OutputSpeed.c **** *  compare value in the Up counting mode (except 0x0u), and the incremented 
 846:Generated_Source\PSoC4/Timer_OutputSpeed.c **** *  compare value in the Down counting mode (except 0xFFFFu).
 847:Generated_Source\PSoC4/Timer_OutputSpeed.c **** *
 848:Generated_Source\PSoC4/Timer_OutputSpeed.c **** *******************************************************************************/
 849:Generated_Source\PSoC4/Timer_OutputSpeed.c **** void Timer_OutputSpeed_WriteCompare(uint32 compare)
 850:Generated_Source\PSoC4/Timer_OutputSpeed.c **** {
 796              		.loc 1 850 0
 797              		.cfi_startproc
 798              		@ args = 0, pretend = 0, frame = 0
 799              		@ frame_needed = 0, uses_anonymous_args = 0
 800              		@ link register save eliminated.
 801              	.LVL54:
 851:Generated_Source\PSoC4/Timer_OutputSpeed.c ****     #if (Timer_OutputSpeed_CY_TCPWM_4000)
 852:Generated_Source\PSoC4/Timer_OutputSpeed.c ****         uint32 currentMode;
ARM GAS  C:\Users\Ade0n\AppData\Local\Temp\ccqKniWt.s 			page 30


 853:Generated_Source\PSoC4/Timer_OutputSpeed.c ****     #endif /* (Timer_OutputSpeed_CY_TCPWM_4000) */
 854:Generated_Source\PSoC4/Timer_OutputSpeed.c **** 
 855:Generated_Source\PSoC4/Timer_OutputSpeed.c ****     #if (Timer_OutputSpeed_CY_TCPWM_4000)
 856:Generated_Source\PSoC4/Timer_OutputSpeed.c ****         currentMode = ((Timer_OutputSpeed_CONTROL_REG & Timer_OutputSpeed_UPDOWN_MASK) >> Timer_Out
 857:Generated_Source\PSoC4/Timer_OutputSpeed.c **** 
 858:Generated_Source\PSoC4/Timer_OutputSpeed.c ****         if (((uint32)Timer_OutputSpeed__COUNT_DOWN == currentMode) && (0xFFFFu != compare))
 859:Generated_Source\PSoC4/Timer_OutputSpeed.c ****         {
 860:Generated_Source\PSoC4/Timer_OutputSpeed.c ****             compare++;
 861:Generated_Source\PSoC4/Timer_OutputSpeed.c ****         }
 862:Generated_Source\PSoC4/Timer_OutputSpeed.c ****         else if (((uint32)Timer_OutputSpeed__COUNT_UP == currentMode) && (0u != compare))
 863:Generated_Source\PSoC4/Timer_OutputSpeed.c ****         {
 864:Generated_Source\PSoC4/Timer_OutputSpeed.c ****             compare--;
 865:Generated_Source\PSoC4/Timer_OutputSpeed.c ****         }
 866:Generated_Source\PSoC4/Timer_OutputSpeed.c ****         else
 867:Generated_Source\PSoC4/Timer_OutputSpeed.c ****         {
 868:Generated_Source\PSoC4/Timer_OutputSpeed.c ****         }
 869:Generated_Source\PSoC4/Timer_OutputSpeed.c ****         
 870:Generated_Source\PSoC4/Timer_OutputSpeed.c ****     
 871:Generated_Source\PSoC4/Timer_OutputSpeed.c ****     #endif /* (Timer_OutputSpeed_CY_TCPWM_4000) */
 872:Generated_Source\PSoC4/Timer_OutputSpeed.c ****     
 873:Generated_Source\PSoC4/Timer_OutputSpeed.c ****     Timer_OutputSpeed_COMP_CAP_REG = (compare & Timer_OutputSpeed_16BIT_MASK);
 802              		.loc 1 873 0
 803 0000 0004     		lsls	r0, r0, #16
 804              	.LVL55:
 805 0002 000C     		lsrs	r0, r0, #16
 806 0004 014B     		ldr	r3, .L59
 807 0006 1860     		str	r0, [r3]
 874:Generated_Source\PSoC4/Timer_OutputSpeed.c **** }
 808              		.loc 1 874 0
 809              		@ sp needed
 810 0008 7047     		bx	lr
 811              	.L60:
 812 000a C046     		.align	2
 813              	.L59:
 814 000c 0C012040 		.word	1075839244
 815              		.cfi_endproc
 816              	.LFE24:
 817              		.size	Timer_OutputSpeed_WriteCompare, .-Timer_OutputSpeed_WriteCompare
 818              		.section	.text.Timer_OutputSpeed_ReadCompare,"ax",%progbits
 819              		.align	2
 820              		.global	Timer_OutputSpeed_ReadCompare
 821              		.code	16
 822              		.thumb_func
 823              		.type	Timer_OutputSpeed_ReadCompare, %function
 824              	Timer_OutputSpeed_ReadCompare:
 825              	.LFB25:
 875:Generated_Source\PSoC4/Timer_OutputSpeed.c **** 
 876:Generated_Source\PSoC4/Timer_OutputSpeed.c **** 
 877:Generated_Source\PSoC4/Timer_OutputSpeed.c **** /*******************************************************************************
 878:Generated_Source\PSoC4/Timer_OutputSpeed.c **** * Function Name: Timer_OutputSpeed_ReadCompare
 879:Generated_Source\PSoC4/Timer_OutputSpeed.c **** ********************************************************************************
 880:Generated_Source\PSoC4/Timer_OutputSpeed.c **** *
 881:Generated_Source\PSoC4/Timer_OutputSpeed.c **** * Summary:
 882:Generated_Source\PSoC4/Timer_OutputSpeed.c **** *  Reads the compare register. Not applicable for Timer/Counter with Capture
 883:Generated_Source\PSoC4/Timer_OutputSpeed.c **** *  or in Quadrature Decoder modes.
 884:Generated_Source\PSoC4/Timer_OutputSpeed.c **** *  PSoC 4000 devices read the incremented compare register value in the 
 885:Generated_Source\PSoC4/Timer_OutputSpeed.c **** *  Up counting mode (except 0xFFFFu), and the decremented value in the 
ARM GAS  C:\Users\Ade0n\AppData\Local\Temp\ccqKniWt.s 			page 31


 886:Generated_Source\PSoC4/Timer_OutputSpeed.c **** *  Down counting mode (except 0x0u).
 887:Generated_Source\PSoC4/Timer_OutputSpeed.c **** *
 888:Generated_Source\PSoC4/Timer_OutputSpeed.c **** * Parameters:
 889:Generated_Source\PSoC4/Timer_OutputSpeed.c **** *  None
 890:Generated_Source\PSoC4/Timer_OutputSpeed.c **** *
 891:Generated_Source\PSoC4/Timer_OutputSpeed.c **** * Return:
 892:Generated_Source\PSoC4/Timer_OutputSpeed.c **** *  Compare value
 893:Generated_Source\PSoC4/Timer_OutputSpeed.c **** *
 894:Generated_Source\PSoC4/Timer_OutputSpeed.c **** * Note:
 895:Generated_Source\PSoC4/Timer_OutputSpeed.c **** *  PSoC 4000 devices read the incremented compare register value in the 
 896:Generated_Source\PSoC4/Timer_OutputSpeed.c **** *  Up counting mode (except 0xFFFFu), and the decremented value in the 
 897:Generated_Source\PSoC4/Timer_OutputSpeed.c **** *  Down counting mode (except 0x0u).
 898:Generated_Source\PSoC4/Timer_OutputSpeed.c **** *
 899:Generated_Source\PSoC4/Timer_OutputSpeed.c **** *******************************************************************************/
 900:Generated_Source\PSoC4/Timer_OutputSpeed.c **** uint32 Timer_OutputSpeed_ReadCompare(void)
 901:Generated_Source\PSoC4/Timer_OutputSpeed.c **** {
 826              		.loc 1 901 0
 827              		.cfi_startproc
 828              		@ args = 0, pretend = 0, frame = 0
 829              		@ frame_needed = 0, uses_anonymous_args = 0
 830              		@ link register save eliminated.
 902:Generated_Source\PSoC4/Timer_OutputSpeed.c ****     #if (Timer_OutputSpeed_CY_TCPWM_4000)
 903:Generated_Source\PSoC4/Timer_OutputSpeed.c ****         uint32 currentMode;
 904:Generated_Source\PSoC4/Timer_OutputSpeed.c ****         uint32 regVal;
 905:Generated_Source\PSoC4/Timer_OutputSpeed.c ****     #endif /* (Timer_OutputSpeed_CY_TCPWM_4000) */
 906:Generated_Source\PSoC4/Timer_OutputSpeed.c **** 
 907:Generated_Source\PSoC4/Timer_OutputSpeed.c ****     #if (Timer_OutputSpeed_CY_TCPWM_4000)
 908:Generated_Source\PSoC4/Timer_OutputSpeed.c ****         currentMode = ((Timer_OutputSpeed_CONTROL_REG & Timer_OutputSpeed_UPDOWN_MASK) >> Timer_Out
 909:Generated_Source\PSoC4/Timer_OutputSpeed.c ****         
 910:Generated_Source\PSoC4/Timer_OutputSpeed.c ****         regVal = Timer_OutputSpeed_COMP_CAP_REG;
 911:Generated_Source\PSoC4/Timer_OutputSpeed.c ****         
 912:Generated_Source\PSoC4/Timer_OutputSpeed.c ****         if (((uint32)Timer_OutputSpeed__COUNT_DOWN == currentMode) && (0u != regVal))
 913:Generated_Source\PSoC4/Timer_OutputSpeed.c ****         {
 914:Generated_Source\PSoC4/Timer_OutputSpeed.c ****             regVal--;
 915:Generated_Source\PSoC4/Timer_OutputSpeed.c ****         }
 916:Generated_Source\PSoC4/Timer_OutputSpeed.c ****         else if (((uint32)Timer_OutputSpeed__COUNT_UP == currentMode) && (0xFFFFu != regVal))
 917:Generated_Source\PSoC4/Timer_OutputSpeed.c ****         {
 918:Generated_Source\PSoC4/Timer_OutputSpeed.c ****             regVal++;
 919:Generated_Source\PSoC4/Timer_OutputSpeed.c ****         }
 920:Generated_Source\PSoC4/Timer_OutputSpeed.c ****         else
 921:Generated_Source\PSoC4/Timer_OutputSpeed.c ****         {
 922:Generated_Source\PSoC4/Timer_OutputSpeed.c ****         }
 923:Generated_Source\PSoC4/Timer_OutputSpeed.c **** 
 924:Generated_Source\PSoC4/Timer_OutputSpeed.c ****         return (regVal & Timer_OutputSpeed_16BIT_MASK);
 925:Generated_Source\PSoC4/Timer_OutputSpeed.c ****     #else
 926:Generated_Source\PSoC4/Timer_OutputSpeed.c ****         return (Timer_OutputSpeed_COMP_CAP_REG & Timer_OutputSpeed_16BIT_MASK);
 831              		.loc 1 926 0
 832 0000 024B     		ldr	r3, .L62
 833 0002 1868     		ldr	r0, [r3]
 834 0004 0004     		lsls	r0, r0, #16
 835 0006 000C     		lsrs	r0, r0, #16
 927:Generated_Source\PSoC4/Timer_OutputSpeed.c ****     #endif /* (Timer_OutputSpeed_CY_TCPWM_4000) */
 928:Generated_Source\PSoC4/Timer_OutputSpeed.c **** }
 836              		.loc 1 928 0
 837              		@ sp needed
 838 0008 7047     		bx	lr
 839              	.L63:
ARM GAS  C:\Users\Ade0n\AppData\Local\Temp\ccqKniWt.s 			page 32


 840 000a C046     		.align	2
 841              	.L62:
 842 000c 0C012040 		.word	1075839244
 843              		.cfi_endproc
 844              	.LFE25:
 845              		.size	Timer_OutputSpeed_ReadCompare, .-Timer_OutputSpeed_ReadCompare
 846              		.section	.text.Timer_OutputSpeed_WriteCompareBuf,"ax",%progbits
 847              		.align	2
 848              		.global	Timer_OutputSpeed_WriteCompareBuf
 849              		.code	16
 850              		.thumb_func
 851              		.type	Timer_OutputSpeed_WriteCompareBuf, %function
 852              	Timer_OutputSpeed_WriteCompareBuf:
 853              	.LFB26:
 929:Generated_Source\PSoC4/Timer_OutputSpeed.c **** 
 930:Generated_Source\PSoC4/Timer_OutputSpeed.c **** 
 931:Generated_Source\PSoC4/Timer_OutputSpeed.c **** /*******************************************************************************
 932:Generated_Source\PSoC4/Timer_OutputSpeed.c **** * Function Name: Timer_OutputSpeed_WriteCompareBuf
 933:Generated_Source\PSoC4/Timer_OutputSpeed.c **** ********************************************************************************
 934:Generated_Source\PSoC4/Timer_OutputSpeed.c **** *
 935:Generated_Source\PSoC4/Timer_OutputSpeed.c **** * Summary:
 936:Generated_Source\PSoC4/Timer_OutputSpeed.c **** *  Writes the 16 bit compare buffer register with the new compare value. Not
 937:Generated_Source\PSoC4/Timer_OutputSpeed.c **** *  applicable for Timer/Counter with Capture or in Quadrature Decoder modes.
 938:Generated_Source\PSoC4/Timer_OutputSpeed.c **** *
 939:Generated_Source\PSoC4/Timer_OutputSpeed.c **** * Parameters:
 940:Generated_Source\PSoC4/Timer_OutputSpeed.c **** *  compareBuf: Compare value
 941:Generated_Source\PSoC4/Timer_OutputSpeed.c **** *
 942:Generated_Source\PSoC4/Timer_OutputSpeed.c **** * Return:
 943:Generated_Source\PSoC4/Timer_OutputSpeed.c **** *  None
 944:Generated_Source\PSoC4/Timer_OutputSpeed.c **** *
 945:Generated_Source\PSoC4/Timer_OutputSpeed.c **** * Note:
 946:Generated_Source\PSoC4/Timer_OutputSpeed.c **** *  It is not recommended to use the value equal to "0" or equal to 
 947:Generated_Source\PSoC4/Timer_OutputSpeed.c **** *  "period value" in Center or Asymmetric align PWM modes on the 
 948:Generated_Source\PSoC4/Timer_OutputSpeed.c **** *  PSoC 4100/PSoC 4200 devices.
 949:Generated_Source\PSoC4/Timer_OutputSpeed.c **** *  PSoC 4000 devices write the 16 bit compare register with the decremented 
 950:Generated_Source\PSoC4/Timer_OutputSpeed.c **** *  compare value in the Up counting mode (except 0x0u), and the incremented 
 951:Generated_Source\PSoC4/Timer_OutputSpeed.c **** *  compare value in the Down counting mode (except 0xFFFFu).
 952:Generated_Source\PSoC4/Timer_OutputSpeed.c **** *
 953:Generated_Source\PSoC4/Timer_OutputSpeed.c **** *******************************************************************************/
 954:Generated_Source\PSoC4/Timer_OutputSpeed.c **** void Timer_OutputSpeed_WriteCompareBuf(uint32 compareBuf)
 955:Generated_Source\PSoC4/Timer_OutputSpeed.c **** {
 854              		.loc 1 955 0
 855              		.cfi_startproc
 856              		@ args = 0, pretend = 0, frame = 0
 857              		@ frame_needed = 0, uses_anonymous_args = 0
 858              		@ link register save eliminated.
 859              	.LVL56:
 956:Generated_Source\PSoC4/Timer_OutputSpeed.c ****     #if (Timer_OutputSpeed_CY_TCPWM_4000)
 957:Generated_Source\PSoC4/Timer_OutputSpeed.c ****         uint32 currentMode;
 958:Generated_Source\PSoC4/Timer_OutputSpeed.c ****     #endif /* (Timer_OutputSpeed_CY_TCPWM_4000) */
 959:Generated_Source\PSoC4/Timer_OutputSpeed.c **** 
 960:Generated_Source\PSoC4/Timer_OutputSpeed.c ****     #if (Timer_OutputSpeed_CY_TCPWM_4000)
 961:Generated_Source\PSoC4/Timer_OutputSpeed.c ****         currentMode = ((Timer_OutputSpeed_CONTROL_REG & Timer_OutputSpeed_UPDOWN_MASK) >> Timer_Out
 962:Generated_Source\PSoC4/Timer_OutputSpeed.c **** 
 963:Generated_Source\PSoC4/Timer_OutputSpeed.c ****         if (((uint32)Timer_OutputSpeed__COUNT_DOWN == currentMode) && (0xFFFFu != compareBuf))
 964:Generated_Source\PSoC4/Timer_OutputSpeed.c ****         {
 965:Generated_Source\PSoC4/Timer_OutputSpeed.c ****             compareBuf++;
ARM GAS  C:\Users\Ade0n\AppData\Local\Temp\ccqKniWt.s 			page 33


 966:Generated_Source\PSoC4/Timer_OutputSpeed.c ****         }
 967:Generated_Source\PSoC4/Timer_OutputSpeed.c ****         else if (((uint32)Timer_OutputSpeed__COUNT_UP == currentMode) && (0u != compareBuf))
 968:Generated_Source\PSoC4/Timer_OutputSpeed.c ****         {
 969:Generated_Source\PSoC4/Timer_OutputSpeed.c ****             compareBuf --;
 970:Generated_Source\PSoC4/Timer_OutputSpeed.c ****         }
 971:Generated_Source\PSoC4/Timer_OutputSpeed.c ****         else
 972:Generated_Source\PSoC4/Timer_OutputSpeed.c ****         {
 973:Generated_Source\PSoC4/Timer_OutputSpeed.c ****         }
 974:Generated_Source\PSoC4/Timer_OutputSpeed.c ****     #endif /* (Timer_OutputSpeed_CY_TCPWM_4000) */
 975:Generated_Source\PSoC4/Timer_OutputSpeed.c ****     
 976:Generated_Source\PSoC4/Timer_OutputSpeed.c ****     Timer_OutputSpeed_COMP_CAP_BUF_REG = (compareBuf & Timer_OutputSpeed_16BIT_MASK);
 860              		.loc 1 976 0
 861 0000 0004     		lsls	r0, r0, #16
 862              	.LVL57:
 863 0002 000C     		lsrs	r0, r0, #16
 864 0004 014B     		ldr	r3, .L65
 865 0006 1860     		str	r0, [r3]
 977:Generated_Source\PSoC4/Timer_OutputSpeed.c **** }
 866              		.loc 1 977 0
 867              		@ sp needed
 868 0008 7047     		bx	lr
 869              	.L66:
 870 000a C046     		.align	2
 871              	.L65:
 872 000c 10012040 		.word	1075839248
 873              		.cfi_endproc
 874              	.LFE26:
 875              		.size	Timer_OutputSpeed_WriteCompareBuf, .-Timer_OutputSpeed_WriteCompareBuf
 876              		.section	.text.Timer_OutputSpeed_ReadCompareBuf,"ax",%progbits
 877              		.align	2
 878              		.global	Timer_OutputSpeed_ReadCompareBuf
 879              		.code	16
 880              		.thumb_func
 881              		.type	Timer_OutputSpeed_ReadCompareBuf, %function
 882              	Timer_OutputSpeed_ReadCompareBuf:
 883              	.LFB27:
 978:Generated_Source\PSoC4/Timer_OutputSpeed.c **** 
 979:Generated_Source\PSoC4/Timer_OutputSpeed.c **** 
 980:Generated_Source\PSoC4/Timer_OutputSpeed.c **** /*******************************************************************************
 981:Generated_Source\PSoC4/Timer_OutputSpeed.c **** * Function Name: Timer_OutputSpeed_ReadCompareBuf
 982:Generated_Source\PSoC4/Timer_OutputSpeed.c **** ********************************************************************************
 983:Generated_Source\PSoC4/Timer_OutputSpeed.c **** *
 984:Generated_Source\PSoC4/Timer_OutputSpeed.c **** * Summary:
 985:Generated_Source\PSoC4/Timer_OutputSpeed.c **** *  Reads the compare buffer register. Not applicable for Timer/Counter with
 986:Generated_Source\PSoC4/Timer_OutputSpeed.c **** *  Capture or in Quadrature Decoder modes.
 987:Generated_Source\PSoC4/Timer_OutputSpeed.c **** *
 988:Generated_Source\PSoC4/Timer_OutputSpeed.c **** * Parameters:
 989:Generated_Source\PSoC4/Timer_OutputSpeed.c **** *  None
 990:Generated_Source\PSoC4/Timer_OutputSpeed.c **** *
 991:Generated_Source\PSoC4/Timer_OutputSpeed.c **** * Return:
 992:Generated_Source\PSoC4/Timer_OutputSpeed.c **** *  Compare buffer value
 993:Generated_Source\PSoC4/Timer_OutputSpeed.c **** *
 994:Generated_Source\PSoC4/Timer_OutputSpeed.c **** * Note:
 995:Generated_Source\PSoC4/Timer_OutputSpeed.c **** *  PSoC 4000 devices read the incremented compare register value in the 
 996:Generated_Source\PSoC4/Timer_OutputSpeed.c **** *  Up counting mode (except 0xFFFFu), and the decremented value in the 
 997:Generated_Source\PSoC4/Timer_OutputSpeed.c **** *  Down counting mode (except 0x0u).
 998:Generated_Source\PSoC4/Timer_OutputSpeed.c **** *
ARM GAS  C:\Users\Ade0n\AppData\Local\Temp\ccqKniWt.s 			page 34


 999:Generated_Source\PSoC4/Timer_OutputSpeed.c **** *******************************************************************************/
1000:Generated_Source\PSoC4/Timer_OutputSpeed.c **** uint32 Timer_OutputSpeed_ReadCompareBuf(void)
1001:Generated_Source\PSoC4/Timer_OutputSpeed.c **** {
 884              		.loc 1 1001 0
 885              		.cfi_startproc
 886              		@ args = 0, pretend = 0, frame = 0
 887              		@ frame_needed = 0, uses_anonymous_args = 0
 888              		@ link register save eliminated.
1002:Generated_Source\PSoC4/Timer_OutputSpeed.c ****     #if (Timer_OutputSpeed_CY_TCPWM_4000)
1003:Generated_Source\PSoC4/Timer_OutputSpeed.c ****         uint32 currentMode;
1004:Generated_Source\PSoC4/Timer_OutputSpeed.c ****         uint32 regVal;
1005:Generated_Source\PSoC4/Timer_OutputSpeed.c ****     #endif /* (Timer_OutputSpeed_CY_TCPWM_4000) */
1006:Generated_Source\PSoC4/Timer_OutputSpeed.c **** 
1007:Generated_Source\PSoC4/Timer_OutputSpeed.c ****     #if (Timer_OutputSpeed_CY_TCPWM_4000)
1008:Generated_Source\PSoC4/Timer_OutputSpeed.c ****         currentMode = ((Timer_OutputSpeed_CONTROL_REG & Timer_OutputSpeed_UPDOWN_MASK) >> Timer_Out
1009:Generated_Source\PSoC4/Timer_OutputSpeed.c **** 
1010:Generated_Source\PSoC4/Timer_OutputSpeed.c ****         regVal = Timer_OutputSpeed_COMP_CAP_BUF_REG;
1011:Generated_Source\PSoC4/Timer_OutputSpeed.c ****         
1012:Generated_Source\PSoC4/Timer_OutputSpeed.c ****         if (((uint32)Timer_OutputSpeed__COUNT_DOWN == currentMode) && (0u != regVal))
1013:Generated_Source\PSoC4/Timer_OutputSpeed.c ****         {
1014:Generated_Source\PSoC4/Timer_OutputSpeed.c ****             regVal--;
1015:Generated_Source\PSoC4/Timer_OutputSpeed.c ****         }
1016:Generated_Source\PSoC4/Timer_OutputSpeed.c ****         else if (((uint32)Timer_OutputSpeed__COUNT_UP == currentMode) && (0xFFFFu != regVal))
1017:Generated_Source\PSoC4/Timer_OutputSpeed.c ****         {
1018:Generated_Source\PSoC4/Timer_OutputSpeed.c ****             regVal++;
1019:Generated_Source\PSoC4/Timer_OutputSpeed.c ****         }
1020:Generated_Source\PSoC4/Timer_OutputSpeed.c ****         else
1021:Generated_Source\PSoC4/Timer_OutputSpeed.c ****         {
1022:Generated_Source\PSoC4/Timer_OutputSpeed.c ****         }
1023:Generated_Source\PSoC4/Timer_OutputSpeed.c **** 
1024:Generated_Source\PSoC4/Timer_OutputSpeed.c ****         return (regVal & Timer_OutputSpeed_16BIT_MASK);
1025:Generated_Source\PSoC4/Timer_OutputSpeed.c ****     #else
1026:Generated_Source\PSoC4/Timer_OutputSpeed.c ****         return (Timer_OutputSpeed_COMP_CAP_BUF_REG & Timer_OutputSpeed_16BIT_MASK);
 889              		.loc 1 1026 0
 890 0000 024B     		ldr	r3, .L68
 891 0002 1868     		ldr	r0, [r3]
 892 0004 0004     		lsls	r0, r0, #16
 893 0006 000C     		lsrs	r0, r0, #16
1027:Generated_Source\PSoC4/Timer_OutputSpeed.c ****     #endif /* (Timer_OutputSpeed_CY_TCPWM_4000) */
1028:Generated_Source\PSoC4/Timer_OutputSpeed.c **** }
 894              		.loc 1 1028 0
 895              		@ sp needed
 896 0008 7047     		bx	lr
 897              	.L69:
 898 000a C046     		.align	2
 899              	.L68:
 900 000c 10012040 		.word	1075839248
 901              		.cfi_endproc
 902              	.LFE27:
 903              		.size	Timer_OutputSpeed_ReadCompareBuf, .-Timer_OutputSpeed_ReadCompareBuf
 904              		.section	.text.Timer_OutputSpeed_ReadCapture,"ax",%progbits
 905              		.align	2
 906              		.global	Timer_OutputSpeed_ReadCapture
 907              		.code	16
 908              		.thumb_func
 909              		.type	Timer_OutputSpeed_ReadCapture, %function
 910              	Timer_OutputSpeed_ReadCapture:
ARM GAS  C:\Users\Ade0n\AppData\Local\Temp\ccqKniWt.s 			page 35


 911              	.LFB28:
1029:Generated_Source\PSoC4/Timer_OutputSpeed.c **** 
1030:Generated_Source\PSoC4/Timer_OutputSpeed.c **** 
1031:Generated_Source\PSoC4/Timer_OutputSpeed.c **** /*******************************************************************************
1032:Generated_Source\PSoC4/Timer_OutputSpeed.c **** * Function Name: Timer_OutputSpeed_ReadCapture
1033:Generated_Source\PSoC4/Timer_OutputSpeed.c **** ********************************************************************************
1034:Generated_Source\PSoC4/Timer_OutputSpeed.c **** *
1035:Generated_Source\PSoC4/Timer_OutputSpeed.c **** * Summary:
1036:Generated_Source\PSoC4/Timer_OutputSpeed.c **** *  Reads the captured counter value. This API is applicable only for
1037:Generated_Source\PSoC4/Timer_OutputSpeed.c **** *  Timer/Counter with the capture mode and Quadrature Decoder modes.
1038:Generated_Source\PSoC4/Timer_OutputSpeed.c **** *
1039:Generated_Source\PSoC4/Timer_OutputSpeed.c **** * Parameters:
1040:Generated_Source\PSoC4/Timer_OutputSpeed.c **** *  None
1041:Generated_Source\PSoC4/Timer_OutputSpeed.c **** *
1042:Generated_Source\PSoC4/Timer_OutputSpeed.c **** * Return:
1043:Generated_Source\PSoC4/Timer_OutputSpeed.c **** *  Capture value
1044:Generated_Source\PSoC4/Timer_OutputSpeed.c **** *
1045:Generated_Source\PSoC4/Timer_OutputSpeed.c **** *******************************************************************************/
1046:Generated_Source\PSoC4/Timer_OutputSpeed.c **** uint32 Timer_OutputSpeed_ReadCapture(void)
1047:Generated_Source\PSoC4/Timer_OutputSpeed.c **** {
 912              		.loc 1 1047 0
 913              		.cfi_startproc
 914              		@ args = 0, pretend = 0, frame = 0
 915              		@ frame_needed = 0, uses_anonymous_args = 0
 916              		@ link register save eliminated.
1048:Generated_Source\PSoC4/Timer_OutputSpeed.c ****     return (Timer_OutputSpeed_COMP_CAP_REG & Timer_OutputSpeed_16BIT_MASK);
 917              		.loc 1 1048 0
 918 0000 024B     		ldr	r3, .L71
 919 0002 1868     		ldr	r0, [r3]
 920 0004 0004     		lsls	r0, r0, #16
 921 0006 000C     		lsrs	r0, r0, #16
1049:Generated_Source\PSoC4/Timer_OutputSpeed.c **** }
 922              		.loc 1 1049 0
 923              		@ sp needed
 924 0008 7047     		bx	lr
 925              	.L72:
 926 000a C046     		.align	2
 927              	.L71:
 928 000c 0C012040 		.word	1075839244
 929              		.cfi_endproc
 930              	.LFE28:
 931              		.size	Timer_OutputSpeed_ReadCapture, .-Timer_OutputSpeed_ReadCapture
 932              		.section	.text.Timer_OutputSpeed_ReadCaptureBuf,"ax",%progbits
 933              		.align	2
 934              		.global	Timer_OutputSpeed_ReadCaptureBuf
 935              		.code	16
 936              		.thumb_func
 937              		.type	Timer_OutputSpeed_ReadCaptureBuf, %function
 938              	Timer_OutputSpeed_ReadCaptureBuf:
 939              	.LFB29:
1050:Generated_Source\PSoC4/Timer_OutputSpeed.c **** 
1051:Generated_Source\PSoC4/Timer_OutputSpeed.c **** 
1052:Generated_Source\PSoC4/Timer_OutputSpeed.c **** /*******************************************************************************
1053:Generated_Source\PSoC4/Timer_OutputSpeed.c **** * Function Name: Timer_OutputSpeed_ReadCaptureBuf
1054:Generated_Source\PSoC4/Timer_OutputSpeed.c **** ********************************************************************************
1055:Generated_Source\PSoC4/Timer_OutputSpeed.c **** *
1056:Generated_Source\PSoC4/Timer_OutputSpeed.c **** * Summary:
ARM GAS  C:\Users\Ade0n\AppData\Local\Temp\ccqKniWt.s 			page 36


1057:Generated_Source\PSoC4/Timer_OutputSpeed.c **** *  Reads the capture buffer register. This API is applicable only for
1058:Generated_Source\PSoC4/Timer_OutputSpeed.c **** *  Timer/Counter with the capture mode and Quadrature Decoder modes.
1059:Generated_Source\PSoC4/Timer_OutputSpeed.c **** *
1060:Generated_Source\PSoC4/Timer_OutputSpeed.c **** * Parameters:
1061:Generated_Source\PSoC4/Timer_OutputSpeed.c **** *  None
1062:Generated_Source\PSoC4/Timer_OutputSpeed.c **** *
1063:Generated_Source\PSoC4/Timer_OutputSpeed.c **** * Return:
1064:Generated_Source\PSoC4/Timer_OutputSpeed.c **** *  Capture buffer value
1065:Generated_Source\PSoC4/Timer_OutputSpeed.c **** *
1066:Generated_Source\PSoC4/Timer_OutputSpeed.c **** *******************************************************************************/
1067:Generated_Source\PSoC4/Timer_OutputSpeed.c **** uint32 Timer_OutputSpeed_ReadCaptureBuf(void)
1068:Generated_Source\PSoC4/Timer_OutputSpeed.c **** {
 940              		.loc 1 1068 0
 941              		.cfi_startproc
 942              		@ args = 0, pretend = 0, frame = 0
 943              		@ frame_needed = 0, uses_anonymous_args = 0
 944              		@ link register save eliminated.
1069:Generated_Source\PSoC4/Timer_OutputSpeed.c ****     return (Timer_OutputSpeed_COMP_CAP_BUF_REG & Timer_OutputSpeed_16BIT_MASK);
 945              		.loc 1 1069 0
 946 0000 024B     		ldr	r3, .L74
 947 0002 1868     		ldr	r0, [r3]
 948 0004 0004     		lsls	r0, r0, #16
 949 0006 000C     		lsrs	r0, r0, #16
1070:Generated_Source\PSoC4/Timer_OutputSpeed.c **** }
 950              		.loc 1 1070 0
 951              		@ sp needed
 952 0008 7047     		bx	lr
 953              	.L75:
 954 000a C046     		.align	2
 955              	.L74:
 956 000c 10012040 		.word	1075839248
 957              		.cfi_endproc
 958              	.LFE29:
 959              		.size	Timer_OutputSpeed_ReadCaptureBuf, .-Timer_OutputSpeed_ReadCaptureBuf
 960              		.section	.text.Timer_OutputSpeed_SetCaptureMode,"ax",%progbits
 961              		.align	2
 962              		.global	Timer_OutputSpeed_SetCaptureMode
 963              		.code	16
 964              		.thumb_func
 965              		.type	Timer_OutputSpeed_SetCaptureMode, %function
 966              	Timer_OutputSpeed_SetCaptureMode:
 967              	.LFB30:
1071:Generated_Source\PSoC4/Timer_OutputSpeed.c **** 
1072:Generated_Source\PSoC4/Timer_OutputSpeed.c **** 
1073:Generated_Source\PSoC4/Timer_OutputSpeed.c **** /*******************************************************************************
1074:Generated_Source\PSoC4/Timer_OutputSpeed.c **** * Function Name: Timer_OutputSpeed_SetCaptureMode
1075:Generated_Source\PSoC4/Timer_OutputSpeed.c **** ********************************************************************************
1076:Generated_Source\PSoC4/Timer_OutputSpeed.c **** *
1077:Generated_Source\PSoC4/Timer_OutputSpeed.c **** * Summary:
1078:Generated_Source\PSoC4/Timer_OutputSpeed.c **** *  Sets the capture trigger mode. For PWM mode this is the switch input.
1079:Generated_Source\PSoC4/Timer_OutputSpeed.c **** *  This input is not applicable to the Timer/Counter without Capture and
1080:Generated_Source\PSoC4/Timer_OutputSpeed.c **** *  Quadrature Decoder modes.
1081:Generated_Source\PSoC4/Timer_OutputSpeed.c **** *
1082:Generated_Source\PSoC4/Timer_OutputSpeed.c **** * Parameters:
1083:Generated_Source\PSoC4/Timer_OutputSpeed.c **** *  triggerMode: Enumerated trigger mode value
1084:Generated_Source\PSoC4/Timer_OutputSpeed.c **** *   Values:
1085:Generated_Source\PSoC4/Timer_OutputSpeed.c **** *     - Timer_OutputSpeed_TRIG_LEVEL     - Level
ARM GAS  C:\Users\Ade0n\AppData\Local\Temp\ccqKniWt.s 			page 37


1086:Generated_Source\PSoC4/Timer_OutputSpeed.c **** *     - Timer_OutputSpeed_TRIG_RISING    - Rising edge
1087:Generated_Source\PSoC4/Timer_OutputSpeed.c **** *     - Timer_OutputSpeed_TRIG_FALLING   - Falling edge
1088:Generated_Source\PSoC4/Timer_OutputSpeed.c **** *     - Timer_OutputSpeed_TRIG_BOTH      - Both rising and falling edge
1089:Generated_Source\PSoC4/Timer_OutputSpeed.c **** *
1090:Generated_Source\PSoC4/Timer_OutputSpeed.c **** * Return:
1091:Generated_Source\PSoC4/Timer_OutputSpeed.c **** *  None
1092:Generated_Source\PSoC4/Timer_OutputSpeed.c **** *
1093:Generated_Source\PSoC4/Timer_OutputSpeed.c **** *******************************************************************************/
1094:Generated_Source\PSoC4/Timer_OutputSpeed.c **** void Timer_OutputSpeed_SetCaptureMode(uint32 triggerMode)
1095:Generated_Source\PSoC4/Timer_OutputSpeed.c **** {
 968              		.loc 1 1095 0
 969              		.cfi_startproc
 970              		@ args = 0, pretend = 0, frame = 0
 971              		@ frame_needed = 0, uses_anonymous_args = 0
 972              	.LVL58:
 973 0000 10B5     		push	{r4, lr}
 974              		.cfi_def_cfa_offset 8
 975              		.cfi_offset 4, -8
 976              		.cfi_offset 14, -4
 977 0002 0400     		movs	r4, r0
1096:Generated_Source\PSoC4/Timer_OutputSpeed.c ****     uint8 enableInterrupts;
1097:Generated_Source\PSoC4/Timer_OutputSpeed.c **** 
1098:Generated_Source\PSoC4/Timer_OutputSpeed.c ****     enableInterrupts = CyEnterCriticalSection();
 978              		.loc 1 1098 0
 979 0004 FFF7FEFF 		bl	CyEnterCriticalSection
 980              	.LVL59:
1099:Generated_Source\PSoC4/Timer_OutputSpeed.c **** 
1100:Generated_Source\PSoC4/Timer_OutputSpeed.c ****     Timer_OutputSpeed_TRIG_CONTROL1_REG &= (uint32)~Timer_OutputSpeed_CAPTURE_MASK;
 981              		.loc 1 1100 0
 982 0008 054B     		ldr	r3, .L77
 983 000a 1A68     		ldr	r2, [r3]
 984 000c 0321     		movs	r1, #3
 985 000e 8A43     		bics	r2, r1
 986 0010 1A60     		str	r2, [r3]
1101:Generated_Source\PSoC4/Timer_OutputSpeed.c ****     Timer_OutputSpeed_TRIG_CONTROL1_REG |= triggerMode;
 987              		.loc 1 1101 0
 988 0012 1A68     		ldr	r2, [r3]
 989 0014 1443     		orrs	r4, r2
 990              	.LVL60:
 991 0016 1C60     		str	r4, [r3]
1102:Generated_Source\PSoC4/Timer_OutputSpeed.c **** 
1103:Generated_Source\PSoC4/Timer_OutputSpeed.c ****     CyExitCriticalSection(enableInterrupts);
 992              		.loc 1 1103 0
 993 0018 FFF7FEFF 		bl	CyExitCriticalSection
 994              	.LVL61:
1104:Generated_Source\PSoC4/Timer_OutputSpeed.c **** }
 995              		.loc 1 1104 0
 996              		@ sp needed
 997 001c 10BD     		pop	{r4, pc}
 998              	.L78:
 999 001e C046     		.align	2
 1000              	.L77:
 1001 0020 24012040 		.word	1075839268
 1002              		.cfi_endproc
 1003              	.LFE30:
 1004              		.size	Timer_OutputSpeed_SetCaptureMode, .-Timer_OutputSpeed_SetCaptureMode
 1005              		.section	.text.Timer_OutputSpeed_SetReloadMode,"ax",%progbits
ARM GAS  C:\Users\Ade0n\AppData\Local\Temp\ccqKniWt.s 			page 38


 1006              		.align	2
 1007              		.global	Timer_OutputSpeed_SetReloadMode
 1008              		.code	16
 1009              		.thumb_func
 1010              		.type	Timer_OutputSpeed_SetReloadMode, %function
 1011              	Timer_OutputSpeed_SetReloadMode:
 1012              	.LFB31:
1105:Generated_Source\PSoC4/Timer_OutputSpeed.c **** 
1106:Generated_Source\PSoC4/Timer_OutputSpeed.c **** 
1107:Generated_Source\PSoC4/Timer_OutputSpeed.c **** /*******************************************************************************
1108:Generated_Source\PSoC4/Timer_OutputSpeed.c **** * Function Name: Timer_OutputSpeed_SetReloadMode
1109:Generated_Source\PSoC4/Timer_OutputSpeed.c **** ********************************************************************************
1110:Generated_Source\PSoC4/Timer_OutputSpeed.c **** *
1111:Generated_Source\PSoC4/Timer_OutputSpeed.c **** * Summary:
1112:Generated_Source\PSoC4/Timer_OutputSpeed.c **** *  Sets the reload trigger mode. For Quadrature Decoder mode this is the index
1113:Generated_Source\PSoC4/Timer_OutputSpeed.c **** *  input.
1114:Generated_Source\PSoC4/Timer_OutputSpeed.c **** *
1115:Generated_Source\PSoC4/Timer_OutputSpeed.c **** * Parameters:
1116:Generated_Source\PSoC4/Timer_OutputSpeed.c **** *  triggerMode: Enumerated trigger mode value
1117:Generated_Source\PSoC4/Timer_OutputSpeed.c **** *   Values:
1118:Generated_Source\PSoC4/Timer_OutputSpeed.c **** *     - Timer_OutputSpeed_TRIG_LEVEL     - Level
1119:Generated_Source\PSoC4/Timer_OutputSpeed.c **** *     - Timer_OutputSpeed_TRIG_RISING    - Rising edge
1120:Generated_Source\PSoC4/Timer_OutputSpeed.c **** *     - Timer_OutputSpeed_TRIG_FALLING   - Falling edge
1121:Generated_Source\PSoC4/Timer_OutputSpeed.c **** *     - Timer_OutputSpeed_TRIG_BOTH      - Both rising and falling edge
1122:Generated_Source\PSoC4/Timer_OutputSpeed.c **** *
1123:Generated_Source\PSoC4/Timer_OutputSpeed.c **** * Return:
1124:Generated_Source\PSoC4/Timer_OutputSpeed.c **** *  None
1125:Generated_Source\PSoC4/Timer_OutputSpeed.c **** *
1126:Generated_Source\PSoC4/Timer_OutputSpeed.c **** *******************************************************************************/
1127:Generated_Source\PSoC4/Timer_OutputSpeed.c **** void Timer_OutputSpeed_SetReloadMode(uint32 triggerMode)
1128:Generated_Source\PSoC4/Timer_OutputSpeed.c **** {
 1013              		.loc 1 1128 0
 1014              		.cfi_startproc
 1015              		@ args = 0, pretend = 0, frame = 0
 1016              		@ frame_needed = 0, uses_anonymous_args = 0
 1017              	.LVL62:
 1018 0000 10B5     		push	{r4, lr}
 1019              		.cfi_def_cfa_offset 8
 1020              		.cfi_offset 4, -8
 1021              		.cfi_offset 14, -4
 1022 0002 0400     		movs	r4, r0
1129:Generated_Source\PSoC4/Timer_OutputSpeed.c ****     uint8 enableInterrupts;
1130:Generated_Source\PSoC4/Timer_OutputSpeed.c **** 
1131:Generated_Source\PSoC4/Timer_OutputSpeed.c ****     enableInterrupts = CyEnterCriticalSection();
 1023              		.loc 1 1131 0
 1024 0004 FFF7FEFF 		bl	CyEnterCriticalSection
 1025              	.LVL63:
1132:Generated_Source\PSoC4/Timer_OutputSpeed.c **** 
1133:Generated_Source\PSoC4/Timer_OutputSpeed.c ****     Timer_OutputSpeed_TRIG_CONTROL1_REG &= (uint32)~Timer_OutputSpeed_RELOAD_MASK;
 1026              		.loc 1 1133 0
 1027 0008 054B     		ldr	r3, .L80
 1028 000a 1A68     		ldr	r2, [r3]
 1029 000c 3021     		movs	r1, #48
 1030 000e 8A43     		bics	r2, r1
 1031 0010 1A60     		str	r2, [r3]
1134:Generated_Source\PSoC4/Timer_OutputSpeed.c ****     Timer_OutputSpeed_TRIG_CONTROL1_REG |= ((uint32)(triggerMode << Timer_OutputSpeed_RELOAD_SHIFT)
 1032              		.loc 1 1134 0
ARM GAS  C:\Users\Ade0n\AppData\Local\Temp\ccqKniWt.s 			page 39


 1033 0012 1A68     		ldr	r2, [r3]
 1034 0014 2401     		lsls	r4, r4, #4
 1035              	.LVL64:
 1036 0016 1443     		orrs	r4, r2
 1037 0018 1C60     		str	r4, [r3]
1135:Generated_Source\PSoC4/Timer_OutputSpeed.c **** 
1136:Generated_Source\PSoC4/Timer_OutputSpeed.c ****     CyExitCriticalSection(enableInterrupts);
 1038              		.loc 1 1136 0
 1039 001a FFF7FEFF 		bl	CyExitCriticalSection
 1040              	.LVL65:
1137:Generated_Source\PSoC4/Timer_OutputSpeed.c **** }
 1041              		.loc 1 1137 0
 1042              		@ sp needed
 1043 001e 10BD     		pop	{r4, pc}
 1044              	.L81:
 1045              		.align	2
 1046              	.L80:
 1047 0020 24012040 		.word	1075839268
 1048              		.cfi_endproc
 1049              	.LFE31:
 1050              		.size	Timer_OutputSpeed_SetReloadMode, .-Timer_OutputSpeed_SetReloadMode
 1051              		.section	.text.Timer_OutputSpeed_SetStartMode,"ax",%progbits
 1052              		.align	2
 1053              		.global	Timer_OutputSpeed_SetStartMode
 1054              		.code	16
 1055              		.thumb_func
 1056              		.type	Timer_OutputSpeed_SetStartMode, %function
 1057              	Timer_OutputSpeed_SetStartMode:
 1058              	.LFB32:
1138:Generated_Source\PSoC4/Timer_OutputSpeed.c **** 
1139:Generated_Source\PSoC4/Timer_OutputSpeed.c **** 
1140:Generated_Source\PSoC4/Timer_OutputSpeed.c **** /*******************************************************************************
1141:Generated_Source\PSoC4/Timer_OutputSpeed.c **** * Function Name: Timer_OutputSpeed_SetStartMode
1142:Generated_Source\PSoC4/Timer_OutputSpeed.c **** ********************************************************************************
1143:Generated_Source\PSoC4/Timer_OutputSpeed.c **** *
1144:Generated_Source\PSoC4/Timer_OutputSpeed.c **** * Summary:
1145:Generated_Source\PSoC4/Timer_OutputSpeed.c **** *  Sets the start trigger mode. For Quadrature Decoder mode this is the
1146:Generated_Source\PSoC4/Timer_OutputSpeed.c **** *  phiB input.
1147:Generated_Source\PSoC4/Timer_OutputSpeed.c **** *
1148:Generated_Source\PSoC4/Timer_OutputSpeed.c **** * Parameters:
1149:Generated_Source\PSoC4/Timer_OutputSpeed.c **** *  triggerMode: Enumerated trigger mode value
1150:Generated_Source\PSoC4/Timer_OutputSpeed.c **** *   Values:
1151:Generated_Source\PSoC4/Timer_OutputSpeed.c **** *     - Timer_OutputSpeed_TRIG_LEVEL     - Level
1152:Generated_Source\PSoC4/Timer_OutputSpeed.c **** *     - Timer_OutputSpeed_TRIG_RISING    - Rising edge
1153:Generated_Source\PSoC4/Timer_OutputSpeed.c **** *     - Timer_OutputSpeed_TRIG_FALLING   - Falling edge
1154:Generated_Source\PSoC4/Timer_OutputSpeed.c **** *     - Timer_OutputSpeed_TRIG_BOTH      - Both rising and falling edge
1155:Generated_Source\PSoC4/Timer_OutputSpeed.c **** *
1156:Generated_Source\PSoC4/Timer_OutputSpeed.c **** * Return:
1157:Generated_Source\PSoC4/Timer_OutputSpeed.c **** *  None
1158:Generated_Source\PSoC4/Timer_OutputSpeed.c **** *
1159:Generated_Source\PSoC4/Timer_OutputSpeed.c **** *******************************************************************************/
1160:Generated_Source\PSoC4/Timer_OutputSpeed.c **** void Timer_OutputSpeed_SetStartMode(uint32 triggerMode)
1161:Generated_Source\PSoC4/Timer_OutputSpeed.c **** {
 1059              		.loc 1 1161 0
 1060              		.cfi_startproc
 1061              		@ args = 0, pretend = 0, frame = 0
 1062              		@ frame_needed = 0, uses_anonymous_args = 0
ARM GAS  C:\Users\Ade0n\AppData\Local\Temp\ccqKniWt.s 			page 40


 1063              	.LVL66:
 1064 0000 10B5     		push	{r4, lr}
 1065              		.cfi_def_cfa_offset 8
 1066              		.cfi_offset 4, -8
 1067              		.cfi_offset 14, -4
 1068 0002 0400     		movs	r4, r0
1162:Generated_Source\PSoC4/Timer_OutputSpeed.c ****     uint8 enableInterrupts;
1163:Generated_Source\PSoC4/Timer_OutputSpeed.c **** 
1164:Generated_Source\PSoC4/Timer_OutputSpeed.c ****     enableInterrupts = CyEnterCriticalSection();
 1069              		.loc 1 1164 0
 1070 0004 FFF7FEFF 		bl	CyEnterCriticalSection
 1071              	.LVL67:
1165:Generated_Source\PSoC4/Timer_OutputSpeed.c **** 
1166:Generated_Source\PSoC4/Timer_OutputSpeed.c ****     Timer_OutputSpeed_TRIG_CONTROL1_REG &= (uint32)~Timer_OutputSpeed_START_MASK;
 1072              		.loc 1 1166 0
 1073 0008 054B     		ldr	r3, .L83
 1074 000a 1968     		ldr	r1, [r3]
 1075 000c 054A     		ldr	r2, .L83+4
 1076 000e 0A40     		ands	r2, r1
 1077 0010 1A60     		str	r2, [r3]
1167:Generated_Source\PSoC4/Timer_OutputSpeed.c ****     Timer_OutputSpeed_TRIG_CONTROL1_REG |= ((uint32)(triggerMode << Timer_OutputSpeed_START_SHIFT))
 1078              		.loc 1 1167 0
 1079 0012 1A68     		ldr	r2, [r3]
 1080 0014 2402     		lsls	r4, r4, #8
 1081              	.LVL68:
 1082 0016 1443     		orrs	r4, r2
 1083 0018 1C60     		str	r4, [r3]
1168:Generated_Source\PSoC4/Timer_OutputSpeed.c **** 
1169:Generated_Source\PSoC4/Timer_OutputSpeed.c ****     CyExitCriticalSection(enableInterrupts);
 1084              		.loc 1 1169 0
 1085 001a FFF7FEFF 		bl	CyExitCriticalSection
 1086              	.LVL69:
1170:Generated_Source\PSoC4/Timer_OutputSpeed.c **** }
 1087              		.loc 1 1170 0
 1088              		@ sp needed
 1089 001e 10BD     		pop	{r4, pc}
 1090              	.L84:
 1091              		.align	2
 1092              	.L83:
 1093 0020 24012040 		.word	1075839268
 1094 0024 FFFCFFFF 		.word	-769
 1095              		.cfi_endproc
 1096              	.LFE32:
 1097              		.size	Timer_OutputSpeed_SetStartMode, .-Timer_OutputSpeed_SetStartMode
 1098              		.section	.text.Timer_OutputSpeed_SetStopMode,"ax",%progbits
 1099              		.align	2
 1100              		.global	Timer_OutputSpeed_SetStopMode
 1101              		.code	16
 1102              		.thumb_func
 1103              		.type	Timer_OutputSpeed_SetStopMode, %function
 1104              	Timer_OutputSpeed_SetStopMode:
 1105              	.LFB33:
1171:Generated_Source\PSoC4/Timer_OutputSpeed.c **** 
1172:Generated_Source\PSoC4/Timer_OutputSpeed.c **** 
1173:Generated_Source\PSoC4/Timer_OutputSpeed.c **** /*******************************************************************************
1174:Generated_Source\PSoC4/Timer_OutputSpeed.c **** * Function Name: Timer_OutputSpeed_SetStopMode
1175:Generated_Source\PSoC4/Timer_OutputSpeed.c **** ********************************************************************************
ARM GAS  C:\Users\Ade0n\AppData\Local\Temp\ccqKniWt.s 			page 41


1176:Generated_Source\PSoC4/Timer_OutputSpeed.c **** *
1177:Generated_Source\PSoC4/Timer_OutputSpeed.c **** * Summary:
1178:Generated_Source\PSoC4/Timer_OutputSpeed.c **** *  Sets the stop trigger mode. For PWM mode this is the kill input.
1179:Generated_Source\PSoC4/Timer_OutputSpeed.c **** *
1180:Generated_Source\PSoC4/Timer_OutputSpeed.c **** * Parameters:
1181:Generated_Source\PSoC4/Timer_OutputSpeed.c **** *  triggerMode: Enumerated trigger mode value
1182:Generated_Source\PSoC4/Timer_OutputSpeed.c **** *   Values:
1183:Generated_Source\PSoC4/Timer_OutputSpeed.c **** *     - Timer_OutputSpeed_TRIG_LEVEL     - Level
1184:Generated_Source\PSoC4/Timer_OutputSpeed.c **** *     - Timer_OutputSpeed_TRIG_RISING    - Rising edge
1185:Generated_Source\PSoC4/Timer_OutputSpeed.c **** *     - Timer_OutputSpeed_TRIG_FALLING   - Falling edge
1186:Generated_Source\PSoC4/Timer_OutputSpeed.c **** *     - Timer_OutputSpeed_TRIG_BOTH      - Both rising and falling edge
1187:Generated_Source\PSoC4/Timer_OutputSpeed.c **** *
1188:Generated_Source\PSoC4/Timer_OutputSpeed.c **** * Return:
1189:Generated_Source\PSoC4/Timer_OutputSpeed.c **** *  None
1190:Generated_Source\PSoC4/Timer_OutputSpeed.c **** *
1191:Generated_Source\PSoC4/Timer_OutputSpeed.c **** *******************************************************************************/
1192:Generated_Source\PSoC4/Timer_OutputSpeed.c **** void Timer_OutputSpeed_SetStopMode(uint32 triggerMode)
1193:Generated_Source\PSoC4/Timer_OutputSpeed.c **** {
 1106              		.loc 1 1193 0
 1107              		.cfi_startproc
 1108              		@ args = 0, pretend = 0, frame = 0
 1109              		@ frame_needed = 0, uses_anonymous_args = 0
 1110              	.LVL70:
 1111 0000 10B5     		push	{r4, lr}
 1112              		.cfi_def_cfa_offset 8
 1113              		.cfi_offset 4, -8
 1114              		.cfi_offset 14, -4
 1115 0002 0400     		movs	r4, r0
1194:Generated_Source\PSoC4/Timer_OutputSpeed.c ****     uint8 enableInterrupts;
1195:Generated_Source\PSoC4/Timer_OutputSpeed.c **** 
1196:Generated_Source\PSoC4/Timer_OutputSpeed.c ****     enableInterrupts = CyEnterCriticalSection();
 1116              		.loc 1 1196 0
 1117 0004 FFF7FEFF 		bl	CyEnterCriticalSection
 1118              	.LVL71:
1197:Generated_Source\PSoC4/Timer_OutputSpeed.c **** 
1198:Generated_Source\PSoC4/Timer_OutputSpeed.c ****     Timer_OutputSpeed_TRIG_CONTROL1_REG &= (uint32)~Timer_OutputSpeed_STOP_MASK;
 1119              		.loc 1 1198 0
 1120 0008 054B     		ldr	r3, .L86
 1121 000a 1A68     		ldr	r2, [r3]
 1122 000c C021     		movs	r1, #192
 1123 000e 8A43     		bics	r2, r1
 1124 0010 1A60     		str	r2, [r3]
1199:Generated_Source\PSoC4/Timer_OutputSpeed.c ****     Timer_OutputSpeed_TRIG_CONTROL1_REG |= ((uint32)(triggerMode << Timer_OutputSpeed_STOP_SHIFT));
 1125              		.loc 1 1199 0
 1126 0012 1A68     		ldr	r2, [r3]
 1127 0014 A401     		lsls	r4, r4, #6
 1128              	.LVL72:
 1129 0016 1443     		orrs	r4, r2
 1130 0018 1C60     		str	r4, [r3]
1200:Generated_Source\PSoC4/Timer_OutputSpeed.c **** 
1201:Generated_Source\PSoC4/Timer_OutputSpeed.c ****     CyExitCriticalSection(enableInterrupts);
 1131              		.loc 1 1201 0
 1132 001a FFF7FEFF 		bl	CyExitCriticalSection
 1133              	.LVL73:
1202:Generated_Source\PSoC4/Timer_OutputSpeed.c **** }
 1134              		.loc 1 1202 0
 1135              		@ sp needed
ARM GAS  C:\Users\Ade0n\AppData\Local\Temp\ccqKniWt.s 			page 42


 1136 001e 10BD     		pop	{r4, pc}
 1137              	.L87:
 1138              		.align	2
 1139              	.L86:
 1140 0020 24012040 		.word	1075839268
 1141              		.cfi_endproc
 1142              	.LFE33:
 1143              		.size	Timer_OutputSpeed_SetStopMode, .-Timer_OutputSpeed_SetStopMode
 1144              		.section	.text.Timer_OutputSpeed_SetCountMode,"ax",%progbits
 1145              		.align	2
 1146              		.global	Timer_OutputSpeed_SetCountMode
 1147              		.code	16
 1148              		.thumb_func
 1149              		.type	Timer_OutputSpeed_SetCountMode, %function
 1150              	Timer_OutputSpeed_SetCountMode:
 1151              	.LFB34:
1203:Generated_Source\PSoC4/Timer_OutputSpeed.c **** 
1204:Generated_Source\PSoC4/Timer_OutputSpeed.c **** 
1205:Generated_Source\PSoC4/Timer_OutputSpeed.c **** /*******************************************************************************
1206:Generated_Source\PSoC4/Timer_OutputSpeed.c **** * Function Name: Timer_OutputSpeed_SetCountMode
1207:Generated_Source\PSoC4/Timer_OutputSpeed.c **** ********************************************************************************
1208:Generated_Source\PSoC4/Timer_OutputSpeed.c **** *
1209:Generated_Source\PSoC4/Timer_OutputSpeed.c **** * Summary:
1210:Generated_Source\PSoC4/Timer_OutputSpeed.c **** *  Sets the count trigger mode. For Quadrature Decoder mode this is the phiA
1211:Generated_Source\PSoC4/Timer_OutputSpeed.c **** *  input.
1212:Generated_Source\PSoC4/Timer_OutputSpeed.c **** *
1213:Generated_Source\PSoC4/Timer_OutputSpeed.c **** * Parameters:
1214:Generated_Source\PSoC4/Timer_OutputSpeed.c **** *  triggerMode: Enumerated trigger mode value
1215:Generated_Source\PSoC4/Timer_OutputSpeed.c **** *   Values:
1216:Generated_Source\PSoC4/Timer_OutputSpeed.c **** *     - Timer_OutputSpeed_TRIG_LEVEL     - Level
1217:Generated_Source\PSoC4/Timer_OutputSpeed.c **** *     - Timer_OutputSpeed_TRIG_RISING    - Rising edge
1218:Generated_Source\PSoC4/Timer_OutputSpeed.c **** *     - Timer_OutputSpeed_TRIG_FALLING   - Falling edge
1219:Generated_Source\PSoC4/Timer_OutputSpeed.c **** *     - Timer_OutputSpeed_TRIG_BOTH      - Both rising and falling edge
1220:Generated_Source\PSoC4/Timer_OutputSpeed.c **** *
1221:Generated_Source\PSoC4/Timer_OutputSpeed.c **** * Return:
1222:Generated_Source\PSoC4/Timer_OutputSpeed.c **** *  None
1223:Generated_Source\PSoC4/Timer_OutputSpeed.c **** *
1224:Generated_Source\PSoC4/Timer_OutputSpeed.c **** *******************************************************************************/
1225:Generated_Source\PSoC4/Timer_OutputSpeed.c **** void Timer_OutputSpeed_SetCountMode(uint32 triggerMode)
1226:Generated_Source\PSoC4/Timer_OutputSpeed.c **** {
 1152              		.loc 1 1226 0
 1153              		.cfi_startproc
 1154              		@ args = 0, pretend = 0, frame = 0
 1155              		@ frame_needed = 0, uses_anonymous_args = 0
 1156              	.LVL74:
 1157 0000 10B5     		push	{r4, lr}
 1158              		.cfi_def_cfa_offset 8
 1159              		.cfi_offset 4, -8
 1160              		.cfi_offset 14, -4
 1161 0002 0400     		movs	r4, r0
1227:Generated_Source\PSoC4/Timer_OutputSpeed.c ****     uint8 enableInterrupts;
1228:Generated_Source\PSoC4/Timer_OutputSpeed.c **** 
1229:Generated_Source\PSoC4/Timer_OutputSpeed.c ****     enableInterrupts = CyEnterCriticalSection();
 1162              		.loc 1 1229 0
 1163 0004 FFF7FEFF 		bl	CyEnterCriticalSection
 1164              	.LVL75:
1230:Generated_Source\PSoC4/Timer_OutputSpeed.c **** 
ARM GAS  C:\Users\Ade0n\AppData\Local\Temp\ccqKniWt.s 			page 43


1231:Generated_Source\PSoC4/Timer_OutputSpeed.c ****     Timer_OutputSpeed_TRIG_CONTROL1_REG &= (uint32)~Timer_OutputSpeed_COUNT_MASK;
 1165              		.loc 1 1231 0
 1166 0008 054B     		ldr	r3, .L89
 1167 000a 1A68     		ldr	r2, [r3]
 1168 000c 0C21     		movs	r1, #12
 1169 000e 8A43     		bics	r2, r1
 1170 0010 1A60     		str	r2, [r3]
1232:Generated_Source\PSoC4/Timer_OutputSpeed.c ****     Timer_OutputSpeed_TRIG_CONTROL1_REG |= ((uint32)(triggerMode << Timer_OutputSpeed_COUNT_SHIFT))
 1171              		.loc 1 1232 0
 1172 0012 1A68     		ldr	r2, [r3]
 1173 0014 A400     		lsls	r4, r4, #2
 1174              	.LVL76:
 1175 0016 1443     		orrs	r4, r2
 1176 0018 1C60     		str	r4, [r3]
1233:Generated_Source\PSoC4/Timer_OutputSpeed.c **** 
1234:Generated_Source\PSoC4/Timer_OutputSpeed.c ****     CyExitCriticalSection(enableInterrupts);
 1177              		.loc 1 1234 0
 1178 001a FFF7FEFF 		bl	CyExitCriticalSection
 1179              	.LVL77:
1235:Generated_Source\PSoC4/Timer_OutputSpeed.c **** }
 1180              		.loc 1 1235 0
 1181              		@ sp needed
 1182 001e 10BD     		pop	{r4, pc}
 1183              	.L90:
 1184              		.align	2
 1185              	.L89:
 1186 0020 24012040 		.word	1075839268
 1187              		.cfi_endproc
 1188              	.LFE34:
 1189              		.size	Timer_OutputSpeed_SetCountMode, .-Timer_OutputSpeed_SetCountMode
 1190              		.section	.text.Timer_OutputSpeed_TriggerCommand,"ax",%progbits
 1191              		.align	2
 1192              		.global	Timer_OutputSpeed_TriggerCommand
 1193              		.code	16
 1194              		.thumb_func
 1195              		.type	Timer_OutputSpeed_TriggerCommand, %function
 1196              	Timer_OutputSpeed_TriggerCommand:
 1197              	.LFB35:
1236:Generated_Source\PSoC4/Timer_OutputSpeed.c **** 
1237:Generated_Source\PSoC4/Timer_OutputSpeed.c **** 
1238:Generated_Source\PSoC4/Timer_OutputSpeed.c **** /*******************************************************************************
1239:Generated_Source\PSoC4/Timer_OutputSpeed.c **** * Function Name: Timer_OutputSpeed_TriggerCommand
1240:Generated_Source\PSoC4/Timer_OutputSpeed.c **** ********************************************************************************
1241:Generated_Source\PSoC4/Timer_OutputSpeed.c **** *
1242:Generated_Source\PSoC4/Timer_OutputSpeed.c **** * Summary:
1243:Generated_Source\PSoC4/Timer_OutputSpeed.c **** *  Triggers the designated command to occur on the designated TCPWM instances.
1244:Generated_Source\PSoC4/Timer_OutputSpeed.c **** *  The mask can be used to apply this command simultaneously to more than one
1245:Generated_Source\PSoC4/Timer_OutputSpeed.c **** *  instance.  This allows multiple TCPWM instances to be synchronized.
1246:Generated_Source\PSoC4/Timer_OutputSpeed.c **** *
1247:Generated_Source\PSoC4/Timer_OutputSpeed.c **** * Parameters:
1248:Generated_Source\PSoC4/Timer_OutputSpeed.c **** *  mask: A combination of mask bits for each instance of the TCPWM that the
1249:Generated_Source\PSoC4/Timer_OutputSpeed.c **** *        command should apply to.  This function from one instance can be used
1250:Generated_Source\PSoC4/Timer_OutputSpeed.c **** *        to apply the command to any of the instances in the design.
1251:Generated_Source\PSoC4/Timer_OutputSpeed.c **** *        The mask value for a specific instance is available with the MASK
1252:Generated_Source\PSoC4/Timer_OutputSpeed.c **** *        define.
1253:Generated_Source\PSoC4/Timer_OutputSpeed.c **** *  command: Enumerated command values. Capture command only applicable for
1254:Generated_Source\PSoC4/Timer_OutputSpeed.c **** *           Timer/Counter with Capture and PWM modes.
ARM GAS  C:\Users\Ade0n\AppData\Local\Temp\ccqKniWt.s 			page 44


1255:Generated_Source\PSoC4/Timer_OutputSpeed.c **** *   Values:
1256:Generated_Source\PSoC4/Timer_OutputSpeed.c **** *     - Timer_OutputSpeed_CMD_CAPTURE    - Trigger Capture/Switch command
1257:Generated_Source\PSoC4/Timer_OutputSpeed.c **** *     - Timer_OutputSpeed_CMD_RELOAD     - Trigger Reload/Index command
1258:Generated_Source\PSoC4/Timer_OutputSpeed.c **** *     - Timer_OutputSpeed_CMD_STOP       - Trigger Stop/Kill command
1259:Generated_Source\PSoC4/Timer_OutputSpeed.c **** *     - Timer_OutputSpeed_CMD_START      - Trigger Start/phiB command
1260:Generated_Source\PSoC4/Timer_OutputSpeed.c **** *
1261:Generated_Source\PSoC4/Timer_OutputSpeed.c **** * Return:
1262:Generated_Source\PSoC4/Timer_OutputSpeed.c **** *  None
1263:Generated_Source\PSoC4/Timer_OutputSpeed.c **** *
1264:Generated_Source\PSoC4/Timer_OutputSpeed.c **** *******************************************************************************/
1265:Generated_Source\PSoC4/Timer_OutputSpeed.c **** void Timer_OutputSpeed_TriggerCommand(uint32 mask, uint32 command)
1266:Generated_Source\PSoC4/Timer_OutputSpeed.c **** {
 1198              		.loc 1 1266 0
 1199              		.cfi_startproc
 1200              		@ args = 0, pretend = 0, frame = 0
 1201              		@ frame_needed = 0, uses_anonymous_args = 0
 1202              	.LVL78:
 1203 0000 70B5     		push	{r4, r5, r6, lr}
 1204              		.cfi_def_cfa_offset 16
 1205              		.cfi_offset 4, -16
 1206              		.cfi_offset 5, -12
 1207              		.cfi_offset 6, -8
 1208              		.cfi_offset 14, -4
 1209 0002 0400     		movs	r4, r0
 1210 0004 0D00     		movs	r5, r1
1267:Generated_Source\PSoC4/Timer_OutputSpeed.c ****     uint8 enableInterrupts;
1268:Generated_Source\PSoC4/Timer_OutputSpeed.c **** 
1269:Generated_Source\PSoC4/Timer_OutputSpeed.c ****     enableInterrupts = CyEnterCriticalSection();
 1211              		.loc 1 1269 0
 1212 0006 FFF7FEFF 		bl	CyEnterCriticalSection
 1213              	.LVL79:
1270:Generated_Source\PSoC4/Timer_OutputSpeed.c **** 
1271:Generated_Source\PSoC4/Timer_OutputSpeed.c ****     Timer_OutputSpeed_COMMAND_REG = ((uint32)(mask << command));
 1214              		.loc 1 1271 0
 1215 000a AC40     		lsls	r4, r4, r5
 1216              	.LVL80:
 1217 000c 024B     		ldr	r3, .L92
 1218 000e 1C60     		str	r4, [r3]
1272:Generated_Source\PSoC4/Timer_OutputSpeed.c **** 
1273:Generated_Source\PSoC4/Timer_OutputSpeed.c ****     CyExitCriticalSection(enableInterrupts);
 1219              		.loc 1 1273 0
 1220 0010 FFF7FEFF 		bl	CyExitCriticalSection
 1221              	.LVL81:
1274:Generated_Source\PSoC4/Timer_OutputSpeed.c **** }
 1222              		.loc 1 1274 0
 1223              		@ sp needed
 1224              	.LVL82:
 1225 0014 70BD     		pop	{r4, r5, r6, pc}
 1226              	.L93:
 1227 0016 C046     		.align	2
 1228              	.L92:
 1229 0018 08002040 		.word	1075838984
 1230              		.cfi_endproc
 1231              	.LFE35:
 1232              		.size	Timer_OutputSpeed_TriggerCommand, .-Timer_OutputSpeed_TriggerCommand
 1233              		.section	.text.Timer_OutputSpeed_Enable,"ax",%progbits
 1234              		.align	2
ARM GAS  C:\Users\Ade0n\AppData\Local\Temp\ccqKniWt.s 			page 45


 1235              		.global	Timer_OutputSpeed_Enable
 1236              		.code	16
 1237              		.thumb_func
 1238              		.type	Timer_OutputSpeed_Enable, %function
 1239              	Timer_OutputSpeed_Enable:
 1240              	.LFB3:
 178:Generated_Source\PSoC4/Timer_OutputSpeed.c ****     uint8 enableInterrupts;
 1241              		.loc 1 178 0
 1242              		.cfi_startproc
 1243              		@ args = 0, pretend = 0, frame = 0
 1244              		@ frame_needed = 0, uses_anonymous_args = 0
 1245 0000 10B5     		push	{r4, lr}
 1246              		.cfi_def_cfa_offset 8
 1247              		.cfi_offset 4, -8
 1248              		.cfi_offset 14, -4
 181:Generated_Source\PSoC4/Timer_OutputSpeed.c ****     Timer_OutputSpeed_BLOCK_CONTROL_REG |= Timer_OutputSpeed_MASK;
 1249              		.loc 1 181 0
 1250 0002 FFF7FEFF 		bl	CyEnterCriticalSection
 1251              	.LVL83:
 182:Generated_Source\PSoC4/Timer_OutputSpeed.c ****     CyExitCriticalSection(enableInterrupts);
 1252              		.loc 1 182 0
 1253 0006 064A     		ldr	r2, .L95
 1254 0008 1168     		ldr	r1, [r2]
 1255 000a 0123     		movs	r3, #1
 1256 000c 0B43     		orrs	r3, r1
 1257 000e 1360     		str	r3, [r2]
 183:Generated_Source\PSoC4/Timer_OutputSpeed.c **** 
 1258              		.loc 1 183 0
 1259 0010 FFF7FEFF 		bl	CyExitCriticalSection
 1260              	.LVL84:
 194:Generated_Source\PSoC4/Timer_OutputSpeed.c ****         #endif /* (0u == Timer_OutputSpeed_TC_START_SIGNAL_PRESENT) */
 1261              		.loc 1 194 0
 1262 0014 1821     		movs	r1, #24
 1263 0016 0120     		movs	r0, #1
 1264 0018 FFF7FEFF 		bl	Timer_OutputSpeed_TriggerCommand
 1265              	.LVL85:
 203:Generated_Source\PSoC4/Timer_OutputSpeed.c **** 
 1266              		.loc 1 203 0
 1267              		@ sp needed
 1268 001c 10BD     		pop	{r4, pc}
 1269              	.L96:
 1270 001e C046     		.align	2
 1271              	.L95:
 1272 0020 00002040 		.word	1075838976
 1273              		.cfi_endproc
 1274              	.LFE3:
 1275              		.size	Timer_OutputSpeed_Enable, .-Timer_OutputSpeed_Enable
 1276              		.section	.text.Timer_OutputSpeed_ReadStatus,"ax",%progbits
 1277              		.align	2
 1278              		.global	Timer_OutputSpeed_ReadStatus
 1279              		.code	16
 1280              		.thumb_func
 1281              		.type	Timer_OutputSpeed_ReadStatus, %function
 1282              	Timer_OutputSpeed_ReadStatus:
 1283              	.LFB36:
1275:Generated_Source\PSoC4/Timer_OutputSpeed.c **** 
1276:Generated_Source\PSoC4/Timer_OutputSpeed.c **** 
ARM GAS  C:\Users\Ade0n\AppData\Local\Temp\ccqKniWt.s 			page 46


1277:Generated_Source\PSoC4/Timer_OutputSpeed.c **** /*******************************************************************************
1278:Generated_Source\PSoC4/Timer_OutputSpeed.c **** * Function Name: Timer_OutputSpeed_ReadStatus
1279:Generated_Source\PSoC4/Timer_OutputSpeed.c **** ********************************************************************************
1280:Generated_Source\PSoC4/Timer_OutputSpeed.c **** *
1281:Generated_Source\PSoC4/Timer_OutputSpeed.c **** * Summary:
1282:Generated_Source\PSoC4/Timer_OutputSpeed.c **** *  Reads the status of the Timer_OutputSpeed.
1283:Generated_Source\PSoC4/Timer_OutputSpeed.c **** *
1284:Generated_Source\PSoC4/Timer_OutputSpeed.c **** * Parameters:
1285:Generated_Source\PSoC4/Timer_OutputSpeed.c **** *  None
1286:Generated_Source\PSoC4/Timer_OutputSpeed.c **** *
1287:Generated_Source\PSoC4/Timer_OutputSpeed.c **** * Return:
1288:Generated_Source\PSoC4/Timer_OutputSpeed.c **** *  Status
1289:Generated_Source\PSoC4/Timer_OutputSpeed.c **** *   Values:
1290:Generated_Source\PSoC4/Timer_OutputSpeed.c **** *     - Timer_OutputSpeed_STATUS_DOWN    - Set if counting down
1291:Generated_Source\PSoC4/Timer_OutputSpeed.c **** *     - Timer_OutputSpeed_STATUS_RUNNING - Set if counter is running
1292:Generated_Source\PSoC4/Timer_OutputSpeed.c **** *
1293:Generated_Source\PSoC4/Timer_OutputSpeed.c **** *******************************************************************************/
1294:Generated_Source\PSoC4/Timer_OutputSpeed.c **** uint32 Timer_OutputSpeed_ReadStatus(void)
1295:Generated_Source\PSoC4/Timer_OutputSpeed.c **** {
 1284              		.loc 1 1295 0
 1285              		.cfi_startproc
 1286              		@ args = 0, pretend = 0, frame = 0
 1287              		@ frame_needed = 0, uses_anonymous_args = 0
 1288              		@ link register save eliminated.
1296:Generated_Source\PSoC4/Timer_OutputSpeed.c ****     return ((Timer_OutputSpeed_STATUS_REG >> Timer_OutputSpeed_RUNNING_STATUS_SHIFT) |
 1289              		.loc 1 1296 0
 1290 0000 034B     		ldr	r3, .L98
 1291 0002 1868     		ldr	r0, [r3]
 1292 0004 820F     		lsrs	r2, r0, #30
1297:Generated_Source\PSoC4/Timer_OutputSpeed.c ****             (Timer_OutputSpeed_STATUS_REG & Timer_OutputSpeed_STATUS_DOWN));
 1293              		.loc 1 1297 0
 1294 0006 1B68     		ldr	r3, [r3]
 1295 0008 0120     		movs	r0, #1
 1296 000a 1840     		ands	r0, r3
1296:Generated_Source\PSoC4/Timer_OutputSpeed.c ****     return ((Timer_OutputSpeed_STATUS_REG >> Timer_OutputSpeed_RUNNING_STATUS_SHIFT) |
 1297              		.loc 1 1296 0
 1298 000c 1043     		orrs	r0, r2
1298:Generated_Source\PSoC4/Timer_OutputSpeed.c **** }
 1299              		.loc 1 1298 0
 1300              		@ sp needed
 1301 000e 7047     		bx	lr
 1302              	.L99:
 1303              		.align	2
 1304              	.L98:
 1305 0010 04012040 		.word	1075839236
 1306              		.cfi_endproc
 1307              	.LFE36:
 1308              		.size	Timer_OutputSpeed_ReadStatus, .-Timer_OutputSpeed_ReadStatus
 1309              		.section	.text.Timer_OutputSpeed_SetInterruptMode,"ax",%progbits
 1310              		.align	2
 1311              		.global	Timer_OutputSpeed_SetInterruptMode
 1312              		.code	16
 1313              		.thumb_func
 1314              		.type	Timer_OutputSpeed_SetInterruptMode, %function
 1315              	Timer_OutputSpeed_SetInterruptMode:
 1316              	.LFB37:
1299:Generated_Source\PSoC4/Timer_OutputSpeed.c **** 
ARM GAS  C:\Users\Ade0n\AppData\Local\Temp\ccqKniWt.s 			page 47


1300:Generated_Source\PSoC4/Timer_OutputSpeed.c **** 
1301:Generated_Source\PSoC4/Timer_OutputSpeed.c **** /*******************************************************************************
1302:Generated_Source\PSoC4/Timer_OutputSpeed.c **** * Function Name: Timer_OutputSpeed_SetInterruptMode
1303:Generated_Source\PSoC4/Timer_OutputSpeed.c **** ********************************************************************************
1304:Generated_Source\PSoC4/Timer_OutputSpeed.c **** *
1305:Generated_Source\PSoC4/Timer_OutputSpeed.c **** * Summary:
1306:Generated_Source\PSoC4/Timer_OutputSpeed.c **** *  Sets the interrupt mask to control which interrupt
1307:Generated_Source\PSoC4/Timer_OutputSpeed.c **** *  requests generate the interrupt signal.
1308:Generated_Source\PSoC4/Timer_OutputSpeed.c **** *
1309:Generated_Source\PSoC4/Timer_OutputSpeed.c **** * Parameters:
1310:Generated_Source\PSoC4/Timer_OutputSpeed.c **** *   interruptMask: Mask of bits to be enabled
1311:Generated_Source\PSoC4/Timer_OutputSpeed.c **** *   Values:
1312:Generated_Source\PSoC4/Timer_OutputSpeed.c **** *     - Timer_OutputSpeed_INTR_MASK_TC       - Terminal count mask
1313:Generated_Source\PSoC4/Timer_OutputSpeed.c **** *     - Timer_OutputSpeed_INTR_MASK_CC_MATCH - Compare count / capture mask
1314:Generated_Source\PSoC4/Timer_OutputSpeed.c **** *
1315:Generated_Source\PSoC4/Timer_OutputSpeed.c **** * Return:
1316:Generated_Source\PSoC4/Timer_OutputSpeed.c **** *  None
1317:Generated_Source\PSoC4/Timer_OutputSpeed.c **** *
1318:Generated_Source\PSoC4/Timer_OutputSpeed.c **** *******************************************************************************/
1319:Generated_Source\PSoC4/Timer_OutputSpeed.c **** void Timer_OutputSpeed_SetInterruptMode(uint32 interruptMask)
1320:Generated_Source\PSoC4/Timer_OutputSpeed.c **** {
 1317              		.loc 1 1320 0
 1318              		.cfi_startproc
 1319              		@ args = 0, pretend = 0, frame = 0
 1320              		@ frame_needed = 0, uses_anonymous_args = 0
 1321              		@ link register save eliminated.
 1322              	.LVL86:
1321:Generated_Source\PSoC4/Timer_OutputSpeed.c ****     Timer_OutputSpeed_INTERRUPT_MASK_REG =  interruptMask;
 1323              		.loc 1 1321 0
 1324 0000 014B     		ldr	r3, .L101
 1325 0002 1860     		str	r0, [r3]
1322:Generated_Source\PSoC4/Timer_OutputSpeed.c **** }
 1326              		.loc 1 1322 0
 1327              		@ sp needed
 1328 0004 7047     		bx	lr
 1329              	.L102:
 1330 0006 C046     		.align	2
 1331              	.L101:
 1332 0008 38012040 		.word	1075839288
 1333              		.cfi_endproc
 1334              	.LFE37:
 1335              		.size	Timer_OutputSpeed_SetInterruptMode, .-Timer_OutputSpeed_SetInterruptMode
 1336              		.section	.text.Timer_OutputSpeed_Init,"ax",%progbits
 1337              		.align	2
 1338              		.global	Timer_OutputSpeed_Init
 1339              		.code	16
 1340              		.thumb_func
 1341              		.type	Timer_OutputSpeed_Init, %function
 1342              	Timer_OutputSpeed_Init:
 1343              	.LFB2:
  39:Generated_Source\PSoC4/Timer_OutputSpeed.c **** 
 1344              		.loc 1 39 0
 1345              		.cfi_startproc
 1346              		@ args = 0, pretend = 0, frame = 0
 1347              		@ frame_needed = 0, uses_anonymous_args = 0
 1348 0000 10B5     		push	{r4, lr}
 1349              		.cfi_def_cfa_offset 8
ARM GAS  C:\Users\Ade0n\AppData\Local\Temp\ccqKniWt.s 			page 48


 1350              		.cfi_offset 4, -8
 1351              		.cfi_offset 14, -4
  58:Generated_Source\PSoC4/Timer_OutputSpeed.c ****         
 1352              		.loc 1 58 0
 1353 0002 8022     		movs	r2, #128
 1354 0004 9204     		lsls	r2, r2, #18
 1355 0006 074B     		ldr	r3, .L104
 1356 0008 1A60     		str	r2, [r3]
  61:Generated_Source\PSoC4/Timer_OutputSpeed.c ****     
 1357              		.loc 1 61 0
 1358 000a 0C22     		movs	r2, #12
 1359 000c 064B     		ldr	r3, .L104+4
 1360 000e 1A60     		str	r2, [r3]
  64:Generated_Source\PSoC4/Timer_OutputSpeed.c ****         
 1361              		.loc 1 64 0
 1362 0010 0120     		movs	r0, #1
 1363 0012 FFF7FEFF 		bl	Timer_OutputSpeed_SetInterruptMode
 1364              	.LVL87:
  67:Generated_Source\PSoC4/Timer_OutputSpeed.c **** 
 1365              		.loc 1 67 0
 1366 0016 0320     		movs	r0, #3
 1367 0018 FFF7FEFF 		bl	Timer_OutputSpeed_WritePeriod
 1368              	.LVL88:
  84:Generated_Source\PSoC4/Timer_OutputSpeed.c ****         #endif /* (Timer_OutputSpeed_CY_TCPWM_V2 && Timer_OutputSpeed_TIMER_UPDOWN_CNT_USED && !Tim
 1369              		.loc 1 84 0
 1370 001c 0020     		movs	r0, #0
 1371 001e FFF7FEFF 		bl	Timer_OutputSpeed_WriteCounter
 1372              	.LVL89:
 160:Generated_Source\PSoC4/Timer_OutputSpeed.c **** 
 1373              		.loc 1 160 0
 1374              		@ sp needed
 1375 0022 10BD     		pop	{r4, pc}
 1376              	.L105:
 1377              		.align	2
 1378              	.L104:
 1379 0024 00012040 		.word	1075839232
 1380 0028 24012040 		.word	1075839268
 1381              		.cfi_endproc
 1382              	.LFE2:
 1383              		.size	Timer_OutputSpeed_Init, .-Timer_OutputSpeed_Init
 1384              		.section	.text.Timer_OutputSpeed_Start,"ax",%progbits
 1385              		.align	2
 1386              		.global	Timer_OutputSpeed_Start
 1387              		.code	16
 1388              		.thumb_func
 1389              		.type	Timer_OutputSpeed_Start, %function
 1390              	Timer_OutputSpeed_Start:
 1391              	.LFB4:
 231:Generated_Source\PSoC4/Timer_OutputSpeed.c ****     if (0u == Timer_OutputSpeed_initVar)
 1392              		.loc 1 231 0
 1393              		.cfi_startproc
 1394              		@ args = 0, pretend = 0, frame = 0
 1395              		@ frame_needed = 0, uses_anonymous_args = 0
 1396 0000 10B5     		push	{r4, lr}
 1397              		.cfi_def_cfa_offset 8
 1398              		.cfi_offset 4, -8
 1399              		.cfi_offset 14, -4
ARM GAS  C:\Users\Ade0n\AppData\Local\Temp\ccqKniWt.s 			page 49


 232:Generated_Source\PSoC4/Timer_OutputSpeed.c ****     {
 1400              		.loc 1 232 0
 1401 0002 064B     		ldr	r3, .L108
 1402 0004 1B78     		ldrb	r3, [r3]
 1403 0006 002B     		cmp	r3, #0
 1404 0008 04D1     		bne	.L107
 234:Generated_Source\PSoC4/Timer_OutputSpeed.c ****         Timer_OutputSpeed_initVar = 1u;
 1405              		.loc 1 234 0
 1406 000a FFF7FEFF 		bl	Timer_OutputSpeed_Init
 1407              	.LVL90:
 235:Generated_Source\PSoC4/Timer_OutputSpeed.c ****     }
 1408              		.loc 1 235 0
 1409 000e 0122     		movs	r2, #1
 1410 0010 024B     		ldr	r3, .L108
 1411 0012 1A70     		strb	r2, [r3]
 1412              	.L107:
 238:Generated_Source\PSoC4/Timer_OutputSpeed.c **** }
 1413              		.loc 1 238 0
 1414 0014 FFF7FEFF 		bl	Timer_OutputSpeed_Enable
 1415              	.LVL91:
 239:Generated_Source\PSoC4/Timer_OutputSpeed.c **** 
 1416              		.loc 1 239 0
 1417              		@ sp needed
 1418 0018 10BD     		pop	{r4, pc}
 1419              	.L109:
 1420 001a C046     		.align	2
 1421              	.L108:
 1422 001c 00000000 		.word	.LANCHOR0
 1423              		.cfi_endproc
 1424              	.LFE4:
 1425              		.size	Timer_OutputSpeed_Start, .-Timer_OutputSpeed_Start
 1426              		.section	.text.Timer_OutputSpeed_GetInterruptSourceMasked,"ax",%progbits
 1427              		.align	2
 1428              		.global	Timer_OutputSpeed_GetInterruptSourceMasked
 1429              		.code	16
 1430              		.thumb_func
 1431              		.type	Timer_OutputSpeed_GetInterruptSourceMasked, %function
 1432              	Timer_OutputSpeed_GetInterruptSourceMasked:
 1433              	.LFB38:
1323:Generated_Source\PSoC4/Timer_OutputSpeed.c **** 
1324:Generated_Source\PSoC4/Timer_OutputSpeed.c **** 
1325:Generated_Source\PSoC4/Timer_OutputSpeed.c **** /*******************************************************************************
1326:Generated_Source\PSoC4/Timer_OutputSpeed.c **** * Function Name: Timer_OutputSpeed_GetInterruptSourceMasked
1327:Generated_Source\PSoC4/Timer_OutputSpeed.c **** ********************************************************************************
1328:Generated_Source\PSoC4/Timer_OutputSpeed.c **** *
1329:Generated_Source\PSoC4/Timer_OutputSpeed.c **** * Summary:
1330:Generated_Source\PSoC4/Timer_OutputSpeed.c **** *  Gets the interrupt requests masked by the interrupt mask.
1331:Generated_Source\PSoC4/Timer_OutputSpeed.c **** *
1332:Generated_Source\PSoC4/Timer_OutputSpeed.c **** * Parameters:
1333:Generated_Source\PSoC4/Timer_OutputSpeed.c **** *   None
1334:Generated_Source\PSoC4/Timer_OutputSpeed.c **** *
1335:Generated_Source\PSoC4/Timer_OutputSpeed.c **** * Return:
1336:Generated_Source\PSoC4/Timer_OutputSpeed.c **** *  Masked interrupt source
1337:Generated_Source\PSoC4/Timer_OutputSpeed.c **** *   Values:
1338:Generated_Source\PSoC4/Timer_OutputSpeed.c **** *     - Timer_OutputSpeed_INTR_MASK_TC       - Terminal count mask
1339:Generated_Source\PSoC4/Timer_OutputSpeed.c **** *     - Timer_OutputSpeed_INTR_MASK_CC_MATCH - Compare count / capture mask
1340:Generated_Source\PSoC4/Timer_OutputSpeed.c **** *
ARM GAS  C:\Users\Ade0n\AppData\Local\Temp\ccqKniWt.s 			page 50


1341:Generated_Source\PSoC4/Timer_OutputSpeed.c **** *******************************************************************************/
1342:Generated_Source\PSoC4/Timer_OutputSpeed.c **** uint32 Timer_OutputSpeed_GetInterruptSourceMasked(void)
1343:Generated_Source\PSoC4/Timer_OutputSpeed.c **** {
 1434              		.loc 1 1343 0
 1435              		.cfi_startproc
 1436              		@ args = 0, pretend = 0, frame = 0
 1437              		@ frame_needed = 0, uses_anonymous_args = 0
 1438              		@ link register save eliminated.
1344:Generated_Source\PSoC4/Timer_OutputSpeed.c ****     return (Timer_OutputSpeed_INTERRUPT_MASKED_REG);
 1439              		.loc 1 1344 0
 1440 0000 014B     		ldr	r3, .L111
 1441 0002 1868     		ldr	r0, [r3]
1345:Generated_Source\PSoC4/Timer_OutputSpeed.c **** }
 1442              		.loc 1 1345 0
 1443              		@ sp needed
 1444 0004 7047     		bx	lr
 1445              	.L112:
 1446 0006 C046     		.align	2
 1447              	.L111:
 1448 0008 3C012040 		.word	1075839292
 1449              		.cfi_endproc
 1450              	.LFE38:
 1451              		.size	Timer_OutputSpeed_GetInterruptSourceMasked, .-Timer_OutputSpeed_GetInterruptSourceMasked
 1452              		.section	.text.Timer_OutputSpeed_GetInterruptSource,"ax",%progbits
 1453              		.align	2
 1454              		.global	Timer_OutputSpeed_GetInterruptSource
 1455              		.code	16
 1456              		.thumb_func
 1457              		.type	Timer_OutputSpeed_GetInterruptSource, %function
 1458              	Timer_OutputSpeed_GetInterruptSource:
 1459              	.LFB39:
1346:Generated_Source\PSoC4/Timer_OutputSpeed.c **** 
1347:Generated_Source\PSoC4/Timer_OutputSpeed.c **** 
1348:Generated_Source\PSoC4/Timer_OutputSpeed.c **** /*******************************************************************************
1349:Generated_Source\PSoC4/Timer_OutputSpeed.c **** * Function Name: Timer_OutputSpeed_GetInterruptSource
1350:Generated_Source\PSoC4/Timer_OutputSpeed.c **** ********************************************************************************
1351:Generated_Source\PSoC4/Timer_OutputSpeed.c **** *
1352:Generated_Source\PSoC4/Timer_OutputSpeed.c **** * Summary:
1353:Generated_Source\PSoC4/Timer_OutputSpeed.c **** *  Gets the interrupt requests (without masking).
1354:Generated_Source\PSoC4/Timer_OutputSpeed.c **** *
1355:Generated_Source\PSoC4/Timer_OutputSpeed.c **** * Parameters:
1356:Generated_Source\PSoC4/Timer_OutputSpeed.c **** *  None
1357:Generated_Source\PSoC4/Timer_OutputSpeed.c **** *
1358:Generated_Source\PSoC4/Timer_OutputSpeed.c **** * Return:
1359:Generated_Source\PSoC4/Timer_OutputSpeed.c **** *  Interrupt request value
1360:Generated_Source\PSoC4/Timer_OutputSpeed.c **** *   Values:
1361:Generated_Source\PSoC4/Timer_OutputSpeed.c **** *     - Timer_OutputSpeed_INTR_MASK_TC       - Terminal count mask
1362:Generated_Source\PSoC4/Timer_OutputSpeed.c **** *     - Timer_OutputSpeed_INTR_MASK_CC_MATCH - Compare count / capture mask
1363:Generated_Source\PSoC4/Timer_OutputSpeed.c **** *
1364:Generated_Source\PSoC4/Timer_OutputSpeed.c **** *******************************************************************************/
1365:Generated_Source\PSoC4/Timer_OutputSpeed.c **** uint32 Timer_OutputSpeed_GetInterruptSource(void)
1366:Generated_Source\PSoC4/Timer_OutputSpeed.c **** {
 1460              		.loc 1 1366 0
 1461              		.cfi_startproc
 1462              		@ args = 0, pretend = 0, frame = 0
 1463              		@ frame_needed = 0, uses_anonymous_args = 0
 1464              		@ link register save eliminated.
ARM GAS  C:\Users\Ade0n\AppData\Local\Temp\ccqKniWt.s 			page 51


1367:Generated_Source\PSoC4/Timer_OutputSpeed.c ****     return (Timer_OutputSpeed_INTERRUPT_REQ_REG);
 1465              		.loc 1 1367 0
 1466 0000 014B     		ldr	r3, .L114
 1467 0002 1868     		ldr	r0, [r3]
1368:Generated_Source\PSoC4/Timer_OutputSpeed.c **** }
 1468              		.loc 1 1368 0
 1469              		@ sp needed
 1470 0004 7047     		bx	lr
 1471              	.L115:
 1472 0006 C046     		.align	2
 1473              	.L114:
 1474 0008 30012040 		.word	1075839280
 1475              		.cfi_endproc
 1476              	.LFE39:
 1477              		.size	Timer_OutputSpeed_GetInterruptSource, .-Timer_OutputSpeed_GetInterruptSource
 1478              		.section	.text.Timer_OutputSpeed_ClearInterrupt,"ax",%progbits
 1479              		.align	2
 1480              		.global	Timer_OutputSpeed_ClearInterrupt
 1481              		.code	16
 1482              		.thumb_func
 1483              		.type	Timer_OutputSpeed_ClearInterrupt, %function
 1484              	Timer_OutputSpeed_ClearInterrupt:
 1485              	.LFB40:
1369:Generated_Source\PSoC4/Timer_OutputSpeed.c **** 
1370:Generated_Source\PSoC4/Timer_OutputSpeed.c **** 
1371:Generated_Source\PSoC4/Timer_OutputSpeed.c **** /*******************************************************************************
1372:Generated_Source\PSoC4/Timer_OutputSpeed.c **** * Function Name: Timer_OutputSpeed_ClearInterrupt
1373:Generated_Source\PSoC4/Timer_OutputSpeed.c **** ********************************************************************************
1374:Generated_Source\PSoC4/Timer_OutputSpeed.c **** *
1375:Generated_Source\PSoC4/Timer_OutputSpeed.c **** * Summary:
1376:Generated_Source\PSoC4/Timer_OutputSpeed.c **** *  Clears the interrupt request.
1377:Generated_Source\PSoC4/Timer_OutputSpeed.c **** *
1378:Generated_Source\PSoC4/Timer_OutputSpeed.c **** * Parameters:
1379:Generated_Source\PSoC4/Timer_OutputSpeed.c **** *   interruptMask: Mask of interrupts to clear
1380:Generated_Source\PSoC4/Timer_OutputSpeed.c **** *   Values:
1381:Generated_Source\PSoC4/Timer_OutputSpeed.c **** *     - Timer_OutputSpeed_INTR_MASK_TC       - Terminal count mask
1382:Generated_Source\PSoC4/Timer_OutputSpeed.c **** *     - Timer_OutputSpeed_INTR_MASK_CC_MATCH - Compare count / capture mask
1383:Generated_Source\PSoC4/Timer_OutputSpeed.c **** *
1384:Generated_Source\PSoC4/Timer_OutputSpeed.c **** * Return:
1385:Generated_Source\PSoC4/Timer_OutputSpeed.c **** *  None
1386:Generated_Source\PSoC4/Timer_OutputSpeed.c **** *
1387:Generated_Source\PSoC4/Timer_OutputSpeed.c **** *******************************************************************************/
1388:Generated_Source\PSoC4/Timer_OutputSpeed.c **** void Timer_OutputSpeed_ClearInterrupt(uint32 interruptMask)
1389:Generated_Source\PSoC4/Timer_OutputSpeed.c **** {
 1486              		.loc 1 1389 0
 1487              		.cfi_startproc
 1488              		@ args = 0, pretend = 0, frame = 0
 1489              		@ frame_needed = 0, uses_anonymous_args = 0
 1490              		@ link register save eliminated.
 1491              	.LVL92:
1390:Generated_Source\PSoC4/Timer_OutputSpeed.c ****     Timer_OutputSpeed_INTERRUPT_REQ_REG = interruptMask;
 1492              		.loc 1 1390 0
 1493 0000 014B     		ldr	r3, .L117
 1494 0002 1860     		str	r0, [r3]
1391:Generated_Source\PSoC4/Timer_OutputSpeed.c **** }
 1495              		.loc 1 1391 0
 1496              		@ sp needed
ARM GAS  C:\Users\Ade0n\AppData\Local\Temp\ccqKniWt.s 			page 52


 1497 0004 7047     		bx	lr
 1498              	.L118:
 1499 0006 C046     		.align	2
 1500              	.L117:
 1501 0008 30012040 		.word	1075839280
 1502              		.cfi_endproc
 1503              	.LFE40:
 1504              		.size	Timer_OutputSpeed_ClearInterrupt, .-Timer_OutputSpeed_ClearInterrupt
 1505              		.section	.text.Timer_OutputSpeed_SetInterrupt,"ax",%progbits
 1506              		.align	2
 1507              		.global	Timer_OutputSpeed_SetInterrupt
 1508              		.code	16
 1509              		.thumb_func
 1510              		.type	Timer_OutputSpeed_SetInterrupt, %function
 1511              	Timer_OutputSpeed_SetInterrupt:
 1512              	.LFB41:
1392:Generated_Source\PSoC4/Timer_OutputSpeed.c **** 
1393:Generated_Source\PSoC4/Timer_OutputSpeed.c **** 
1394:Generated_Source\PSoC4/Timer_OutputSpeed.c **** /*******************************************************************************
1395:Generated_Source\PSoC4/Timer_OutputSpeed.c **** * Function Name: Timer_OutputSpeed_SetInterrupt
1396:Generated_Source\PSoC4/Timer_OutputSpeed.c **** ********************************************************************************
1397:Generated_Source\PSoC4/Timer_OutputSpeed.c **** *
1398:Generated_Source\PSoC4/Timer_OutputSpeed.c **** * Summary:
1399:Generated_Source\PSoC4/Timer_OutputSpeed.c **** *  Sets a software interrupt request.
1400:Generated_Source\PSoC4/Timer_OutputSpeed.c **** *
1401:Generated_Source\PSoC4/Timer_OutputSpeed.c **** * Parameters:
1402:Generated_Source\PSoC4/Timer_OutputSpeed.c **** *   interruptMask: Mask of interrupts to set
1403:Generated_Source\PSoC4/Timer_OutputSpeed.c **** *   Values:
1404:Generated_Source\PSoC4/Timer_OutputSpeed.c **** *     - Timer_OutputSpeed_INTR_MASK_TC       - Terminal count mask
1405:Generated_Source\PSoC4/Timer_OutputSpeed.c **** *     - Timer_OutputSpeed_INTR_MASK_CC_MATCH - Compare count / capture mask
1406:Generated_Source\PSoC4/Timer_OutputSpeed.c **** *
1407:Generated_Source\PSoC4/Timer_OutputSpeed.c **** * Return:
1408:Generated_Source\PSoC4/Timer_OutputSpeed.c **** *  None
1409:Generated_Source\PSoC4/Timer_OutputSpeed.c **** *
1410:Generated_Source\PSoC4/Timer_OutputSpeed.c **** *******************************************************************************/
1411:Generated_Source\PSoC4/Timer_OutputSpeed.c **** void Timer_OutputSpeed_SetInterrupt(uint32 interruptMask)
1412:Generated_Source\PSoC4/Timer_OutputSpeed.c **** {
 1513              		.loc 1 1412 0
 1514              		.cfi_startproc
 1515              		@ args = 0, pretend = 0, frame = 0
 1516              		@ frame_needed = 0, uses_anonymous_args = 0
 1517              		@ link register save eliminated.
 1518              	.LVL93:
1413:Generated_Source\PSoC4/Timer_OutputSpeed.c ****     Timer_OutputSpeed_INTERRUPT_SET_REG = interruptMask;
 1519              		.loc 1 1413 0
 1520 0000 014B     		ldr	r3, .L120
 1521 0002 1860     		str	r0, [r3]
1414:Generated_Source\PSoC4/Timer_OutputSpeed.c **** }
 1522              		.loc 1 1414 0
 1523              		@ sp needed
 1524 0004 7047     		bx	lr
 1525              	.L121:
 1526 0006 C046     		.align	2
 1527              	.L120:
 1528 0008 34012040 		.word	1075839284
 1529              		.cfi_endproc
 1530              	.LFE41:
ARM GAS  C:\Users\Ade0n\AppData\Local\Temp\ccqKniWt.s 			page 53


 1531              		.size	Timer_OutputSpeed_SetInterrupt, .-Timer_OutputSpeed_SetInterrupt
 1532              		.global	Timer_OutputSpeed_initVar
 1533              		.bss
 1534              		.set	.LANCHOR0,. + 0
 1535              		.type	Timer_OutputSpeed_initVar, %object
 1536              		.size	Timer_OutputSpeed_initVar, 1
 1537              	Timer_OutputSpeed_initVar:
 1538 0000 00       		.space	1
 1539              		.text
 1540              	.Letext0:
 1541              		.file 2 "Generated_Source\\PSoC4\\cytypes.h"
 1542              		.file 3 "Generated_Source\\PSoC4\\CyLib.h"
 1543              		.section	.debug_info,"",%progbits
 1544              	.Ldebug_info0:
 1545 0000 F0080000 		.4byte	0x8f0
 1546 0004 0400     		.2byte	0x4
 1547 0006 00000000 		.4byte	.Ldebug_abbrev0
 1548 000a 04       		.byte	0x4
 1549 000b 01       		.uleb128 0x1
 1550 000c 7C000000 		.4byte	.LASF79
 1551 0010 0C       		.byte	0xc
 1552 0011 22060000 		.4byte	.LASF80
 1553 0015 EC010000 		.4byte	.LASF81
 1554 0019 00000000 		.4byte	.Ldebug_ranges0+0
 1555 001d 00000000 		.4byte	0
 1556 0021 00000000 		.4byte	.Ldebug_line0
 1557 0025 02       		.uleb128 0x2
 1558 0026 01       		.byte	0x1
 1559 0027 06       		.byte	0x6
 1560 0028 75010000 		.4byte	.LASF0
 1561 002c 02       		.uleb128 0x2
 1562 002d 01       		.byte	0x1
 1563 002e 08       		.byte	0x8
 1564 002f 01050000 		.4byte	.LASF1
 1565 0033 02       		.uleb128 0x2
 1566 0034 02       		.byte	0x2
 1567 0035 05       		.byte	0x5
 1568 0036 3A050000 		.4byte	.LASF2
 1569 003a 02       		.uleb128 0x2
 1570 003b 02       		.byte	0x2
 1571 003c 07       		.byte	0x7
 1572 003d 4A030000 		.4byte	.LASF3
 1573 0041 02       		.uleb128 0x2
 1574 0042 04       		.byte	0x4
 1575 0043 05       		.byte	0x5
 1576 0044 A0010000 		.4byte	.LASF4
 1577 0048 02       		.uleb128 0x2
 1578 0049 04       		.byte	0x4
 1579 004a 07       		.byte	0x7
 1580 004b F9020000 		.4byte	.LASF5
 1581 004f 02       		.uleb128 0x2
 1582 0050 08       		.byte	0x8
 1583 0051 05       		.byte	0x5
 1584 0052 67010000 		.4byte	.LASF6
 1585 0056 02       		.uleb128 0x2
 1586 0057 08       		.byte	0x8
 1587 0058 07       		.byte	0x7
ARM GAS  C:\Users\Ade0n\AppData\Local\Temp\ccqKniWt.s 			page 54


 1588 0059 32010000 		.4byte	.LASF7
 1589 005d 03       		.uleb128 0x3
 1590 005e 04       		.byte	0x4
 1591 005f 05       		.byte	0x5
 1592 0060 696E7400 		.ascii	"int\000"
 1593 0064 02       		.uleb128 0x2
 1594 0065 04       		.byte	0x4
 1595 0066 07       		.byte	0x7
 1596 0067 A0020000 		.4byte	.LASF8
 1597 006b 04       		.uleb128 0x4
 1598 006c E6010000 		.4byte	.LASF9
 1599 0070 02       		.byte	0x2
 1600 0071 FB01     		.2byte	0x1fb
 1601 0073 2C000000 		.4byte	0x2c
 1602 0077 04       		.uleb128 0x4
 1603 0078 60020000 		.4byte	.LASF10
 1604 007c 02       		.byte	0x2
 1605 007d FD01     		.2byte	0x1fd
 1606 007f 48000000 		.4byte	0x48
 1607 0083 02       		.uleb128 0x2
 1608 0084 04       		.byte	0x4
 1609 0085 04       		.byte	0x4
 1610 0086 76040000 		.4byte	.LASF11
 1611 008a 02       		.uleb128 0x2
 1612 008b 08       		.byte	0x8
 1613 008c 04       		.byte	0x4
 1614 008d 68070000 		.4byte	.LASF12
 1615 0091 02       		.uleb128 0x2
 1616 0092 01       		.byte	0x1
 1617 0093 08       		.byte	0x8
 1618 0094 FA050000 		.4byte	.LASF13
 1619 0098 04       		.uleb128 0x4
 1620 0099 C8030000 		.4byte	.LASF14
 1621 009d 02       		.byte	0x2
 1622 009e A702     		.2byte	0x2a7
 1623 00a0 A4000000 		.4byte	0xa4
 1624 00a4 05       		.uleb128 0x5
 1625 00a5 77000000 		.4byte	0x77
 1626 00a9 02       		.uleb128 0x2
 1627 00aa 08       		.byte	0x8
 1628 00ab 04       		.byte	0x4
 1629 00ac FB030000 		.4byte	.LASF15
 1630 00b0 02       		.uleb128 0x2
 1631 00b1 04       		.byte	0x4
 1632 00b2 07       		.byte	0x7
 1633 00b3 DA030000 		.4byte	.LASF16
 1634 00b7 06       		.uleb128 0x6
 1635 00b8 A8050000 		.4byte	.LASF17
 1636 00bc 01       		.byte	0x1
 1637 00bd 0001     		.2byte	0x100
 1638 00bf 00000000 		.4byte	.LFB5
 1639 00c3 1C000000 		.4byte	.LFE5-.LFB5
 1640 00c7 01       		.uleb128 0x1
 1641 00c8 9C       		.byte	0x9c
 1642 00c9 F0000000 		.4byte	0xf0
 1643 00cd 07       		.uleb128 0x7
 1644 00ce 98060000 		.4byte	.LASF19
ARM GAS  C:\Users\Ade0n\AppData\Local\Temp\ccqKniWt.s 			page 55


 1645 00d2 01       		.byte	0x1
 1646 00d3 0201     		.2byte	0x102
 1647 00d5 6B000000 		.4byte	0x6b
 1648 00d9 00000000 		.4byte	.LLST0
 1649 00dd 08       		.uleb128 0x8
 1650 00de 06000000 		.4byte	.LVL0
 1651 00e2 DD080000 		.4byte	0x8dd
 1652 00e6 08       		.uleb128 0x8
 1653 00e7 14000000 		.4byte	.LVL1
 1654 00eb E8080000 		.4byte	0x8e8
 1655 00ef 00       		.byte	0
 1656 00f0 06       		.uleb128 0x6
 1657 00f1 E0050000 		.4byte	.LASF18
 1658 00f5 01       		.byte	0x1
 1659 00f6 2501     		.2byte	0x125
 1660 00f8 00000000 		.4byte	.LFB6
 1661 00fc 28000000 		.4byte	.LFE6-.LFB6
 1662 0100 01       		.uleb128 0x1
 1663 0101 9C       		.byte	0x9c
 1664 0102 39010000 		.4byte	0x139
 1665 0106 09       		.uleb128 0x9
 1666 0107 1D060000 		.4byte	.LASF21
 1667 010b 01       		.byte	0x1
 1668 010c 2501     		.2byte	0x125
 1669 010e 77000000 		.4byte	0x77
 1670 0112 13000000 		.4byte	.LLST1
 1671 0116 07       		.uleb128 0x7
 1672 0117 98060000 		.4byte	.LASF19
 1673 011b 01       		.byte	0x1
 1674 011c 2701     		.2byte	0x127
 1675 011e 6B000000 		.4byte	0x6b
 1676 0122 3F000000 		.4byte	.LLST2
 1677 0126 08       		.uleb128 0x8
 1678 0127 08000000 		.4byte	.LVL3
 1679 012b DD080000 		.4byte	0x8dd
 1680 012f 08       		.uleb128 0x8
 1681 0130 1C000000 		.4byte	.LVL5
 1682 0134 E8080000 		.4byte	0x8e8
 1683 0138 00       		.byte	0
 1684 0139 06       		.uleb128 0x6
 1685 013a CA010000 		.4byte	.LASF20
 1686 013e 01       		.byte	0x1
 1687 013f 4601     		.2byte	0x146
 1688 0141 00000000 		.4byte	.LFB7
 1689 0145 28000000 		.4byte	.LFE7-.LFB7
 1690 0149 01       		.uleb128 0x1
 1691 014a 9C       		.byte	0x9c
 1692 014b 82010000 		.4byte	0x182
 1693 014f 09       		.uleb128 0x9
 1694 0150 49010000 		.4byte	.LASF22
 1695 0154 01       		.byte	0x1
 1696 0155 4601     		.2byte	0x146
 1697 0157 77000000 		.4byte	0x77
 1698 015b 52000000 		.4byte	.LLST3
 1699 015f 07       		.uleb128 0x7
 1700 0160 98060000 		.4byte	.LASF19
 1701 0164 01       		.byte	0x1
ARM GAS  C:\Users\Ade0n\AppData\Local\Temp\ccqKniWt.s 			page 56


 1702 0165 4801     		.2byte	0x148
 1703 0167 6B000000 		.4byte	0x6b
 1704 016b 7E000000 		.4byte	.LLST4
 1705 016f 08       		.uleb128 0x8
 1706 0170 08000000 		.4byte	.LVL7
 1707 0174 DD080000 		.4byte	0x8dd
 1708 0178 08       		.uleb128 0x8
 1709 0179 1C000000 		.4byte	.LVL9
 1710 017d E8080000 		.4byte	0x8e8
 1711 0181 00       		.byte	0
 1712 0182 06       		.uleb128 0x6
 1713 0183 4D060000 		.4byte	.LASF23
 1714 0187 01       		.byte	0x1
 1715 0188 6B01     		.2byte	0x16b
 1716 018a 00000000 		.4byte	.LFB8
 1717 018e 28000000 		.4byte	.LFE8-.LFB8
 1718 0192 01       		.uleb128 0x1
 1719 0193 9C       		.byte	0x9c
 1720 0194 CB010000 		.4byte	0x1cb
 1721 0198 09       		.uleb128 0x9
 1722 0199 7C040000 		.4byte	.LASF24
 1723 019d 01       		.byte	0x1
 1724 019e 6B01     		.2byte	0x16b
 1725 01a0 77000000 		.4byte	0x77
 1726 01a4 91000000 		.4byte	.LLST5
 1727 01a8 07       		.uleb128 0x7
 1728 01a9 98060000 		.4byte	.LASF19
 1729 01ad 01       		.byte	0x1
 1730 01ae 6D01     		.2byte	0x16d
 1731 01b0 6B000000 		.4byte	0x6b
 1732 01b4 BD000000 		.4byte	.LLST6
 1733 01b8 08       		.uleb128 0x8
 1734 01b9 08000000 		.4byte	.LVL11
 1735 01bd DD080000 		.4byte	0x8dd
 1736 01c1 08       		.uleb128 0x8
 1737 01c2 1C000000 		.4byte	.LVL13
 1738 01c6 E8080000 		.4byte	0x8e8
 1739 01ca 00       		.byte	0
 1740 01cb 06       		.uleb128 0x6
 1741 01cc A4040000 		.4byte	.LASF25
 1742 01d0 01       		.byte	0x1
 1743 01d1 8B01     		.2byte	0x18b
 1744 01d3 00000000 		.4byte	.LFB9
 1745 01d7 30000000 		.4byte	.LFE9-.LFB9
 1746 01db 01       		.uleb128 0x1
 1747 01dc 9C       		.byte	0x9c
 1748 01dd 14020000 		.4byte	0x214
 1749 01e1 09       		.uleb128 0x9
 1750 01e2 7B030000 		.4byte	.LASF26
 1751 01e6 01       		.byte	0x1
 1752 01e7 8B01     		.2byte	0x18b
 1753 01e9 77000000 		.4byte	0x77
 1754 01ed D0000000 		.4byte	.LLST7
 1755 01f1 07       		.uleb128 0x7
 1756 01f2 98060000 		.4byte	.LASF19
 1757 01f6 01       		.byte	0x1
 1758 01f7 8D01     		.2byte	0x18d
ARM GAS  C:\Users\Ade0n\AppData\Local\Temp\ccqKniWt.s 			page 57


 1759 01f9 6B000000 		.4byte	0x6b
 1760 01fd FC000000 		.4byte	.LLST8
 1761 0201 08       		.uleb128 0x8
 1762 0202 08000000 		.4byte	.LVL15
 1763 0206 DD080000 		.4byte	0x8dd
 1764 020a 08       		.uleb128 0x8
 1765 020b 24000000 		.4byte	.LVL16
 1766 020f E8080000 		.4byte	0x8e8
 1767 0213 00       		.byte	0
 1768 0214 06       		.uleb128 0x6
 1769 0215 3C000000 		.4byte	.LASF27
 1770 0219 01       		.byte	0x1
 1771 021a C101     		.2byte	0x1c1
 1772 021c 00000000 		.4byte	.LFB10
 1773 0220 10000000 		.4byte	.LFE10-.LFB10
 1774 0224 01       		.uleb128 0x1
 1775 0225 9C       		.byte	0x9c
 1776 0226 3B020000 		.4byte	0x23b
 1777 022a 09       		.uleb128 0x9
 1778 022b 0B030000 		.4byte	.LASF28
 1779 022f 01       		.byte	0x1
 1780 0230 C101     		.2byte	0x1c1
 1781 0232 77000000 		.4byte	0x77
 1782 0236 0F010000 		.4byte	.LLST9
 1783 023a 00       		.byte	0
 1784 023b 06       		.uleb128 0x6
 1785 023c A7030000 		.4byte	.LASF29
 1786 0240 01       		.byte	0x1
 1787 0241 E501     		.2byte	0x1e5
 1788 0243 00000000 		.4byte	.LFB11
 1789 0247 28000000 		.4byte	.LFE11-.LFB11
 1790 024b 01       		.uleb128 0x1
 1791 024c 9C       		.byte	0x9c
 1792 024d 84020000 		.4byte	0x284
 1793 0251 09       		.uleb128 0x9
 1794 0252 0F070000 		.4byte	.LASF30
 1795 0256 01       		.byte	0x1
 1796 0257 E501     		.2byte	0x1e5
 1797 0259 77000000 		.4byte	0x77
 1798 025d 30010000 		.4byte	.LLST10
 1799 0261 07       		.uleb128 0x7
 1800 0262 98060000 		.4byte	.LASF19
 1801 0266 01       		.byte	0x1
 1802 0267 E701     		.2byte	0x1e7
 1803 0269 6B000000 		.4byte	0x6b
 1804 026d 5C010000 		.4byte	.LLST11
 1805 0271 08       		.uleb128 0x8
 1806 0272 08000000 		.4byte	.LVL21
 1807 0276 DD080000 		.4byte	0x8dd
 1808 027a 08       		.uleb128 0x8
 1809 027b 22000000 		.4byte	.LVL23
 1810 027f E8080000 		.4byte	0x8e8
 1811 0283 00       		.byte	0
 1812 0284 06       		.uleb128 0x6
 1813 0285 59000000 		.4byte	.LASF31
 1814 0289 01       		.byte	0x1
 1815 028a 0702     		.2byte	0x207
ARM GAS  C:\Users\Ade0n\AppData\Local\Temp\ccqKniWt.s 			page 58


 1816 028c 00000000 		.4byte	.LFB12
 1817 0290 28000000 		.4byte	.LFE12-.LFB12
 1818 0294 01       		.uleb128 0x1
 1819 0295 9C       		.byte	0x9c
 1820 0296 CD020000 		.4byte	0x2cd
 1821 029a 09       		.uleb128 0x9
 1822 029b 29050000 		.4byte	.LASF32
 1823 029f 01       		.byte	0x1
 1824 02a0 0702     		.2byte	0x207
 1825 02a2 77000000 		.4byte	0x77
 1826 02a6 6F010000 		.4byte	.LLST12
 1827 02aa 07       		.uleb128 0x7
 1828 02ab 98060000 		.4byte	.LASF19
 1829 02af 01       		.byte	0x1
 1830 02b0 0902     		.2byte	0x209
 1831 02b2 6B000000 		.4byte	0x6b
 1832 02b6 9B010000 		.4byte	.LLST13
 1833 02ba 08       		.uleb128 0x8
 1834 02bb 08000000 		.4byte	.LVL25
 1835 02bf DD080000 		.4byte	0x8dd
 1836 02c3 08       		.uleb128 0x8
 1837 02c4 22000000 		.4byte	.LVL27
 1838 02c8 E8080000 		.4byte	0x8e8
 1839 02cc 00       		.byte	0
 1840 02cd 06       		.uleb128 0x6
 1841 02ce BF050000 		.4byte	.LASF33
 1842 02d2 01       		.byte	0x1
 1843 02d3 2802     		.2byte	0x228
 1844 02d5 00000000 		.4byte	.LFB13
 1845 02d9 2C000000 		.4byte	.LFE13-.LFB13
 1846 02dd 01       		.uleb128 0x1
 1847 02de 9C       		.byte	0x9c
 1848 02df 16030000 		.4byte	0x316
 1849 02e3 09       		.uleb128 0x9
 1850 02e4 97020000 		.4byte	.LASF34
 1851 02e8 01       		.byte	0x1
 1852 02e9 2802     		.2byte	0x228
 1853 02eb 77000000 		.4byte	0x77
 1854 02ef AE010000 		.4byte	.LLST14
 1855 02f3 07       		.uleb128 0x7
 1856 02f4 98060000 		.4byte	.LASF19
 1857 02f8 01       		.byte	0x1
 1858 02f9 2A02     		.2byte	0x22a
 1859 02fb 6B000000 		.4byte	0x6b
 1860 02ff DA010000 		.4byte	.LLST15
 1861 0303 08       		.uleb128 0x8
 1862 0304 08000000 		.4byte	.LVL29
 1863 0308 DD080000 		.4byte	0x8dd
 1864 030c 08       		.uleb128 0x8
 1865 030d 20000000 		.4byte	.LVL31
 1866 0311 E8080000 		.4byte	0x8e8
 1867 0315 00       		.byte	0
 1868 0316 06       		.uleb128 0x6
 1869 0317 E2040000 		.4byte	.LASF35
 1870 031b 01       		.byte	0x1
 1871 031c 4902     		.2byte	0x249
 1872 031e 00000000 		.4byte	.LFB14
ARM GAS  C:\Users\Ade0n\AppData\Local\Temp\ccqKniWt.s 			page 59


 1873 0322 28000000 		.4byte	.LFE14-.LFB14
 1874 0326 01       		.uleb128 0x1
 1875 0327 9C       		.byte	0x9c
 1876 0328 5F030000 		.4byte	0x35f
 1877 032c 09       		.uleb128 0x9
 1878 032d 73020000 		.4byte	.LASF36
 1879 0331 01       		.byte	0x1
 1880 0332 4902     		.2byte	0x249
 1881 0334 77000000 		.4byte	0x77
 1882 0338 ED010000 		.4byte	.LLST16
 1883 033c 07       		.uleb128 0x7
 1884 033d 98060000 		.4byte	.LASF19
 1885 0341 01       		.byte	0x1
 1886 0342 4B02     		.2byte	0x24b
 1887 0344 6B000000 		.4byte	0x6b
 1888 0348 19020000 		.4byte	.LLST17
 1889 034c 08       		.uleb128 0x8
 1890 034d 08000000 		.4byte	.LVL33
 1891 0351 DD080000 		.4byte	0x8dd
 1892 0355 08       		.uleb128 0x8
 1893 0356 1C000000 		.4byte	.LVL35
 1894 035a E8080000 		.4byte	0x8e8
 1895 035e 00       		.byte	0
 1896 035f 06       		.uleb128 0x6
 1897 0360 49070000 		.4byte	.LASF37
 1898 0364 01       		.byte	0x1
 1899 0365 6702     		.2byte	0x267
 1900 0367 00000000 		.4byte	.LFB15
 1901 036b 10000000 		.4byte	.LFE15-.LFB15
 1902 036f 01       		.uleb128 0x1
 1903 0370 9C       		.byte	0x9c
 1904 0371 86030000 		.4byte	0x386
 1905 0375 09       		.uleb128 0x9
 1906 0376 00000000 		.4byte	.LASF38
 1907 037a 01       		.byte	0x1
 1908 037b 6702     		.2byte	0x267
 1909 037d 77000000 		.4byte	0x77
 1910 0381 2C020000 		.4byte	.LLST18
 1911 0385 00       		.byte	0
 1912 0386 0A       		.uleb128 0xa
 1913 0387 89030000 		.4byte	.LASF43
 1914 038b 01       		.byte	0x1
 1915 038c 7B02     		.2byte	0x27b
 1916 038e 77000000 		.4byte	0x77
 1917 0392 00000000 		.4byte	.LFB16
 1918 0396 10000000 		.4byte	.LFE16-.LFB16
 1919 039a 01       		.uleb128 0x1
 1920 039b 9C       		.byte	0x9c
 1921 039c 06       		.uleb128 0x6
 1922 039d 11010000 		.4byte	.LASF39
 1923 03a1 01       		.byte	0x1
 1924 03a2 9802     		.2byte	0x298
 1925 03a4 00000000 		.4byte	.LFB17
 1926 03a8 28000000 		.4byte	.LFE17-.LFB17
 1927 03ac 01       		.uleb128 0x1
 1928 03ad 9C       		.byte	0x9c
 1929 03ae E5030000 		.4byte	0x3e5
ARM GAS  C:\Users\Ade0n\AppData\Local\Temp\ccqKniWt.s 			page 60


 1930 03b2 09       		.uleb128 0x9
 1931 03b3 CE030000 		.4byte	.LASF40
 1932 03b7 01       		.byte	0x1
 1933 03b8 9802     		.2byte	0x298
 1934 03ba 77000000 		.4byte	0x77
 1935 03be 4D020000 		.4byte	.LLST19
 1936 03c2 07       		.uleb128 0x7
 1937 03c3 98060000 		.4byte	.LASF19
 1938 03c7 01       		.byte	0x1
 1939 03c8 9A02     		.2byte	0x29a
 1940 03ca 6B000000 		.4byte	0x6b
 1941 03ce 79020000 		.4byte	.LLST20
 1942 03d2 08       		.uleb128 0x8
 1943 03d3 08000000 		.4byte	.LVL39
 1944 03d7 DD080000 		.4byte	0x8dd
 1945 03db 08       		.uleb128 0x8
 1946 03dc 1C000000 		.4byte	.LVL41
 1947 03e0 E8080000 		.4byte	0x8e8
 1948 03e4 00       		.byte	0
 1949 03e5 06       		.uleb128 0x6
 1950 03e6 FF050000 		.4byte	.LASF41
 1951 03ea 01       		.byte	0x1
 1952 03eb B502     		.2byte	0x2b5
 1953 03ed 00000000 		.4byte	.LFB18
 1954 03f1 10000000 		.4byte	.LFE18-.LFB18
 1955 03f5 01       		.uleb128 0x1
 1956 03f6 9C       		.byte	0x9c
 1957 03f7 0C040000 		.4byte	0x40c
 1958 03fb 09       		.uleb128 0x9
 1959 03fc 0A010000 		.4byte	.LASF42
 1960 0400 01       		.byte	0x1
 1961 0401 B502     		.2byte	0x2b5
 1962 0403 77000000 		.4byte	0x77
 1963 0407 8C020000 		.4byte	.LLST21
 1964 040b 00       		.byte	0
 1965 040c 0A       		.uleb128 0xa
 1966 040d A9060000 		.4byte	.LASF44
 1967 0411 01       		.byte	0x1
 1968 0412 C902     		.2byte	0x2c9
 1969 0414 77000000 		.4byte	0x77
 1970 0418 00000000 		.4byte	.LFB19
 1971 041c 10000000 		.4byte	.LFE19-.LFB19
 1972 0420 01       		.uleb128 0x1
 1973 0421 9C       		.byte	0x9c
 1974 0422 06       		.uleb128 0x6
 1975 0423 D8020000 		.4byte	.LASF45
 1976 0427 01       		.byte	0x1
 1977 0428 E302     		.2byte	0x2e3
 1978 042a 00000000 		.4byte	.LFB20
 1979 042e 24000000 		.4byte	.LFE20-.LFB20
 1980 0432 01       		.uleb128 0x1
 1981 0433 9C       		.byte	0x9c
 1982 0434 6B040000 		.4byte	0x46b
 1983 0438 09       		.uleb128 0x9
 1984 0439 1E070000 		.4byte	.LASF46
 1985 043d 01       		.byte	0x1
 1986 043e E302     		.2byte	0x2e3
ARM GAS  C:\Users\Ade0n\AppData\Local\Temp\ccqKniWt.s 			page 61


 1987 0440 77000000 		.4byte	0x77
 1988 0444 AD020000 		.4byte	.LLST22
 1989 0448 07       		.uleb128 0x7
 1990 0449 98060000 		.4byte	.LASF19
 1991 044d 01       		.byte	0x1
 1992 044e E502     		.2byte	0x2e5
 1993 0450 6B000000 		.4byte	0x6b
 1994 0454 D9020000 		.4byte	.LLST23
 1995 0458 08       		.uleb128 0x8
 1996 0459 08000000 		.4byte	.LVL45
 1997 045d DD080000 		.4byte	0x8dd
 1998 0461 08       		.uleb128 0x8
 1999 0462 1E000000 		.4byte	.LVL47
 2000 0466 E8080000 		.4byte	0x8e8
 2001 046a 00       		.byte	0
 2002 046b 06       		.uleb128 0x6
 2003 046c 77060000 		.4byte	.LASF47
 2004 0470 01       		.byte	0x1
 2005 0471 FE02     		.2byte	0x2fe
 2006 0473 00000000 		.4byte	.LFB21
 2007 0477 10000000 		.4byte	.LFE21-.LFB21
 2008 047b 01       		.uleb128 0x1
 2009 047c 9C       		.byte	0x9c
 2010 047d 92040000 		.4byte	0x492
 2011 0481 09       		.uleb128 0x9
 2012 0482 6F070000 		.4byte	.LASF48
 2013 0486 01       		.byte	0x1
 2014 0487 FE02     		.2byte	0x2fe
 2015 0489 77000000 		.4byte	0x77
 2016 048d EC020000 		.4byte	.LLST24
 2017 0491 00       		.byte	0
 2018 0492 0A       		.uleb128 0xa
 2019 0493 29070000 		.4byte	.LASF49
 2020 0497 01       		.byte	0x1
 2021 0498 1203     		.2byte	0x312
 2022 049a 77000000 		.4byte	0x77
 2023 049e 00000000 		.4byte	.LFB22
 2024 04a2 10000000 		.4byte	.LFE22-.LFB22
 2025 04a6 01       		.uleb128 0x1
 2026 04a7 9C       		.byte	0x9c
 2027 04a8 06       		.uleb128 0x6
 2028 04a9 1C000000 		.4byte	.LASF50
 2029 04ad 01       		.byte	0x1
 2030 04ae 2C03     		.2byte	0x32c
 2031 04b0 00000000 		.4byte	.LFB23
 2032 04b4 28000000 		.4byte	.LFE23-.LFB23
 2033 04b8 01       		.uleb128 0x1
 2034 04b9 9C       		.byte	0x9c
 2035 04ba F1040000 		.4byte	0x4f1
 2036 04be 09       		.uleb128 0x9
 2037 04bf 1E070000 		.4byte	.LASF46
 2038 04c3 01       		.byte	0x1
 2039 04c4 2C03     		.2byte	0x32c
 2040 04c6 77000000 		.4byte	0x77
 2041 04ca 0D030000 		.4byte	.LLST25
 2042 04ce 07       		.uleb128 0x7
 2043 04cf 98060000 		.4byte	.LASF19
ARM GAS  C:\Users\Ade0n\AppData\Local\Temp\ccqKniWt.s 			page 62


 2044 04d3 01       		.byte	0x1
 2045 04d4 2E03     		.2byte	0x32e
 2046 04d6 6B000000 		.4byte	0x6b
 2047 04da 39030000 		.4byte	.LLST26
 2048 04de 08       		.uleb128 0x8
 2049 04df 08000000 		.4byte	.LVL51
 2050 04e3 DD080000 		.4byte	0x8dd
 2051 04e7 08       		.uleb128 0x8
 2052 04e8 22000000 		.4byte	.LVL53
 2053 04ec E8080000 		.4byte	0x8e8
 2054 04f0 00       		.byte	0
 2055 04f1 06       		.uleb128 0x6
 2056 04f2 2B030000 		.4byte	.LASF51
 2057 04f6 01       		.byte	0x1
 2058 04f7 5103     		.2byte	0x351
 2059 04f9 00000000 		.4byte	.LFB24
 2060 04fd 10000000 		.4byte	.LFE24-.LFB24
 2061 0501 01       		.uleb128 0x1
 2062 0502 9C       		.byte	0x9c
 2063 0503 18050000 		.4byte	0x518
 2064 0507 09       		.uleb128 0x9
 2065 0508 07040000 		.4byte	.LASF52
 2066 050c 01       		.byte	0x1
 2067 050d 5103     		.2byte	0x351
 2068 050f 77000000 		.4byte	0x77
 2069 0513 4C030000 		.4byte	.LLST27
 2070 0517 00       		.byte	0
 2071 0518 0A       		.uleb128 0xa
 2072 0519 5D030000 		.4byte	.LASF53
 2073 051d 01       		.byte	0x1
 2074 051e 8403     		.2byte	0x384
 2075 0520 77000000 		.4byte	0x77
 2076 0524 00000000 		.4byte	.LFB25
 2077 0528 10000000 		.4byte	.LFE25-.LFB25
 2078 052c 01       		.uleb128 0x1
 2079 052d 9C       		.byte	0x9c
 2080 052e 06       		.uleb128 0x6
 2081 052f 79070000 		.4byte	.LASF54
 2082 0533 01       		.byte	0x1
 2083 0534 BA03     		.2byte	0x3ba
 2084 0536 00000000 		.4byte	.LFB26
 2085 053a 10000000 		.4byte	.LFE26-.LFB26
 2086 053e 01       		.uleb128 0x1
 2087 053f 9C       		.byte	0x9c
 2088 0540 55050000 		.4byte	0x555
 2089 0544 09       		.uleb128 0x9
 2090 0545 6C060000 		.4byte	.LASF55
 2091 0549 01       		.byte	0x1
 2092 054a BA03     		.2byte	0x3ba
 2093 054c 77000000 		.4byte	0x77
 2094 0550 6D030000 		.4byte	.LLST28
 2095 0554 00       		.byte	0
 2096 0555 0A       		.uleb128 0xa
 2097 0556 C1040000 		.4byte	.LASF56
 2098 055a 01       		.byte	0x1
 2099 055b E803     		.2byte	0x3e8
 2100 055d 77000000 		.4byte	0x77
ARM GAS  C:\Users\Ade0n\AppData\Local\Temp\ccqKniWt.s 			page 63


 2101 0561 00000000 		.4byte	.LFB27
 2102 0565 10000000 		.4byte	.LFE27-.LFB27
 2103 0569 01       		.uleb128 0x1
 2104 056a 9C       		.byte	0x9c
 2105 056b 0A       		.uleb128 0xa
 2106 056c F1060000 		.4byte	.LASF57
 2107 0570 01       		.byte	0x1
 2108 0571 1604     		.2byte	0x416
 2109 0573 77000000 		.4byte	0x77
 2110 0577 00000000 		.4byte	.LFB28
 2111 057b 10000000 		.4byte	.LFE28-.LFB28
 2112 057f 01       		.uleb128 0x1
 2113 0580 9C       		.byte	0x9c
 2114 0581 0A       		.uleb128 0xa
 2115 0582 3F020000 		.4byte	.LASF58
 2116 0586 01       		.byte	0x1
 2117 0587 2B04     		.2byte	0x42b
 2118 0589 77000000 		.4byte	0x77
 2119 058d 00000000 		.4byte	.LFB29
 2120 0591 10000000 		.4byte	.LFE29-.LFB29
 2121 0595 01       		.uleb128 0x1
 2122 0596 9C       		.byte	0x9c
 2123 0597 06       		.uleb128 0x6
 2124 0598 A9010000 		.4byte	.LASF59
 2125 059c 01       		.byte	0x1
 2126 059d 4604     		.2byte	0x446
 2127 059f 00000000 		.4byte	.LFB30
 2128 05a3 24000000 		.4byte	.LFE30-.LFB30
 2129 05a7 01       		.uleb128 0x1
 2130 05a8 9C       		.byte	0x9c
 2131 05a9 E0050000 		.4byte	0x5e0
 2132 05ad 09       		.uleb128 0x9
 2133 05ae 67020000 		.4byte	.LASF60
 2134 05b2 01       		.byte	0x1
 2135 05b3 4604     		.2byte	0x446
 2136 05b5 77000000 		.4byte	0x77
 2137 05b9 8E030000 		.4byte	.LLST29
 2138 05bd 07       		.uleb128 0x7
 2139 05be 98060000 		.4byte	.LASF19
 2140 05c2 01       		.byte	0x1
 2141 05c3 4804     		.2byte	0x448
 2142 05c5 6B000000 		.4byte	0x6b
 2143 05c9 BA030000 		.4byte	.LLST30
 2144 05cd 08       		.uleb128 0x8
 2145 05ce 08000000 		.4byte	.LVL59
 2146 05d2 DD080000 		.4byte	0x8dd
 2147 05d6 08       		.uleb128 0x8
 2148 05d7 1C000000 		.4byte	.LVL61
 2149 05db E8080000 		.4byte	0x8e8
 2150 05df 00       		.byte	0
 2151 05e0 06       		.uleb128 0x6
 2152 05e1 44050000 		.4byte	.LASF61
 2153 05e5 01       		.byte	0x1
 2154 05e6 6704     		.2byte	0x467
 2155 05e8 00000000 		.4byte	.LFB31
 2156 05ec 24000000 		.4byte	.LFE31-.LFB31
 2157 05f0 01       		.uleb128 0x1
ARM GAS  C:\Users\Ade0n\AppData\Local\Temp\ccqKniWt.s 			page 64


 2158 05f1 9C       		.byte	0x9c
 2159 05f2 29060000 		.4byte	0x629
 2160 05f6 09       		.uleb128 0x9
 2161 05f7 67020000 		.4byte	.LASF60
 2162 05fb 01       		.byte	0x1
 2163 05fc 6704     		.2byte	0x467
 2164 05fe 77000000 		.4byte	0x77
 2165 0602 CD030000 		.4byte	.LLST31
 2166 0606 07       		.uleb128 0x7
 2167 0607 98060000 		.4byte	.LASF19
 2168 060b 01       		.byte	0x1
 2169 060c 6904     		.2byte	0x469
 2170 060e 6B000000 		.4byte	0x6b
 2171 0612 F9030000 		.4byte	.LLST32
 2172 0616 08       		.uleb128 0x8
 2173 0617 08000000 		.4byte	.LVL63
 2174 061b DD080000 		.4byte	0x8dd
 2175 061f 08       		.uleb128 0x8
 2176 0620 1E000000 		.4byte	.LVL65
 2177 0624 E8080000 		.4byte	0x8e8
 2178 0628 00       		.byte	0
 2179 0629 06       		.uleb128 0x6
 2180 062a 20020000 		.4byte	.LASF62
 2181 062e 01       		.byte	0x1
 2182 062f 8804     		.2byte	0x488
 2183 0631 00000000 		.4byte	.LFB32
 2184 0635 28000000 		.4byte	.LFE32-.LFB32
 2185 0639 01       		.uleb128 0x1
 2186 063a 9C       		.byte	0x9c
 2187 063b 72060000 		.4byte	0x672
 2188 063f 09       		.uleb128 0x9
 2189 0640 67020000 		.4byte	.LASF60
 2190 0644 01       		.byte	0x1
 2191 0645 8804     		.2byte	0x488
 2192 0647 77000000 		.4byte	0x77
 2193 064b 0C040000 		.4byte	.LLST33
 2194 064f 07       		.uleb128 0x7
 2195 0650 98060000 		.4byte	.LASF19
 2196 0654 01       		.byte	0x1
 2197 0655 8A04     		.2byte	0x48a
 2198 0657 6B000000 		.4byte	0x6b
 2199 065b 38040000 		.4byte	.LLST34
 2200 065f 08       		.uleb128 0x8
 2201 0660 08000000 		.4byte	.LVL67
 2202 0664 DD080000 		.4byte	0x8dd
 2203 0668 08       		.uleb128 0x8
 2204 0669 1E000000 		.4byte	.LVL69
 2205 066d E8080000 		.4byte	0x8e8
 2206 0671 00       		.byte	0
 2207 0672 06       		.uleb128 0x6
 2208 0673 86040000 		.4byte	.LASF63
 2209 0677 01       		.byte	0x1
 2210 0678 A804     		.2byte	0x4a8
 2211 067a 00000000 		.4byte	.LFB33
 2212 067e 24000000 		.4byte	.LFE33-.LFB33
 2213 0682 01       		.uleb128 0x1
 2214 0683 9C       		.byte	0x9c
ARM GAS  C:\Users\Ade0n\AppData\Local\Temp\ccqKniWt.s 			page 65


 2215 0684 BB060000 		.4byte	0x6bb
 2216 0688 09       		.uleb128 0x9
 2217 0689 67020000 		.4byte	.LASF60
 2218 068d 01       		.byte	0x1
 2219 068e A804     		.2byte	0x4a8
 2220 0690 77000000 		.4byte	0x77
 2221 0694 4B040000 		.4byte	.LLST35
 2222 0698 07       		.uleb128 0x7
 2223 0699 98060000 		.4byte	.LASF19
 2224 069d 01       		.byte	0x1
 2225 069e AA04     		.2byte	0x4aa
 2226 06a0 6B000000 		.4byte	0x6b
 2227 06a4 77040000 		.4byte	.LLST36
 2228 06a8 08       		.uleb128 0x8
 2229 06a9 08000000 		.4byte	.LVL71
 2230 06ad DD080000 		.4byte	0x8dd
 2231 06b1 08       		.uleb128 0x8
 2232 06b2 1E000000 		.4byte	.LVL73
 2233 06b6 E8080000 		.4byte	0x8e8
 2234 06ba 00       		.byte	0
 2235 06bb 06       		.uleb128 0x6
 2236 06bc 78020000 		.4byte	.LASF64
 2237 06c0 01       		.byte	0x1
 2238 06c1 C904     		.2byte	0x4c9
 2239 06c3 00000000 		.4byte	.LFB34
 2240 06c7 24000000 		.4byte	.LFE34-.LFB34
 2241 06cb 01       		.uleb128 0x1
 2242 06cc 9C       		.byte	0x9c
 2243 06cd 04070000 		.4byte	0x704
 2244 06d1 09       		.uleb128 0x9
 2245 06d2 67020000 		.4byte	.LASF60
 2246 06d6 01       		.byte	0x1
 2247 06d7 C904     		.2byte	0x4c9
 2248 06d9 77000000 		.4byte	0x77
 2249 06dd 8A040000 		.4byte	.LLST37
 2250 06e1 07       		.uleb128 0x7
 2251 06e2 98060000 		.4byte	.LASF19
 2252 06e6 01       		.byte	0x1
 2253 06e7 CB04     		.2byte	0x4cb
 2254 06e9 6B000000 		.4byte	0x6b
 2255 06ed B6040000 		.4byte	.LLST38
 2256 06f1 08       		.uleb128 0x8
 2257 06f2 08000000 		.4byte	.LVL75
 2258 06f6 DD080000 		.4byte	0x8dd
 2259 06fa 08       		.uleb128 0x8
 2260 06fb 1E000000 		.4byte	.LVL77
 2261 06ff E8080000 		.4byte	0x8e8
 2262 0703 00       		.byte	0
 2263 0704 06       		.uleb128 0x6
 2264 0705 0F040000 		.4byte	.LASF65
 2265 0709 01       		.byte	0x1
 2266 070a F104     		.2byte	0x4f1
 2267 070c 00000000 		.4byte	.LFB35
 2268 0710 1C000000 		.4byte	.LFE35-.LFB35
 2269 0714 01       		.uleb128 0x1
 2270 0715 9C       		.byte	0x9c
 2271 0716 5D070000 		.4byte	0x75d
ARM GAS  C:\Users\Ade0n\AppData\Local\Temp\ccqKniWt.s 			page 66


 2272 071a 09       		.uleb128 0x9
 2273 071b 73020000 		.4byte	.LASF36
 2274 071f 01       		.byte	0x1
 2275 0720 F104     		.2byte	0x4f1
 2276 0722 77000000 		.4byte	0x77
 2277 0726 C9040000 		.4byte	.LLST39
 2278 072a 09       		.uleb128 0x9
 2279 072b D0020000 		.4byte	.LASF66
 2280 072f 01       		.byte	0x1
 2281 0730 F104     		.2byte	0x4f1
 2282 0732 77000000 		.4byte	0x77
 2283 0736 F5040000 		.4byte	.LLST40
 2284 073a 07       		.uleb128 0x7
 2285 073b 98060000 		.4byte	.LASF19
 2286 073f 01       		.byte	0x1
 2287 0740 F304     		.2byte	0x4f3
 2288 0742 6B000000 		.4byte	0x6b
 2289 0746 21050000 		.4byte	.LLST41
 2290 074a 08       		.uleb128 0x8
 2291 074b 0A000000 		.4byte	.LVL79
 2292 074f DD080000 		.4byte	0x8dd
 2293 0753 08       		.uleb128 0x8
 2294 0754 14000000 		.4byte	.LVL81
 2295 0758 E8080000 		.4byte	0x8e8
 2296 075c 00       		.byte	0
 2297 075d 0B       		.uleb128 0xb
 2298 075e 8F050000 		.4byte	.LASF67
 2299 0762 01       		.byte	0x1
 2300 0763 B1       		.byte	0xb1
 2301 0764 00000000 		.4byte	.LFB3
 2302 0768 24000000 		.4byte	.LFE3-.LFB3
 2303 076c 01       		.uleb128 0x1
 2304 076d 9C       		.byte	0x9c
 2305 076e A8070000 		.4byte	0x7a8
 2306 0772 0C       		.uleb128 0xc
 2307 0773 98060000 		.4byte	.LASF19
 2308 0777 01       		.byte	0x1
 2309 0778 B3       		.byte	0xb3
 2310 0779 6B000000 		.4byte	0x6b
 2311 077d 34050000 		.4byte	.LLST42
 2312 0781 08       		.uleb128 0x8
 2313 0782 06000000 		.4byte	.LVL83
 2314 0786 DD080000 		.4byte	0x8dd
 2315 078a 08       		.uleb128 0x8
 2316 078b 14000000 		.4byte	.LVL84
 2317 078f E8080000 		.4byte	0x8e8
 2318 0793 0D       		.uleb128 0xd
 2319 0794 1C000000 		.4byte	.LVL85
 2320 0798 04070000 		.4byte	0x704
 2321 079c 0E       		.uleb128 0xe
 2322 079d 01       		.uleb128 0x1
 2323 079e 50       		.byte	0x50
 2324 079f 01       		.uleb128 0x1
 2325 07a0 31       		.byte	0x31
 2326 07a1 0E       		.uleb128 0xe
 2327 07a2 01       		.uleb128 0x1
 2328 07a3 51       		.byte	0x51
ARM GAS  C:\Users\Ade0n\AppData\Local\Temp\ccqKniWt.s 			page 67


 2329 07a4 01       		.uleb128 0x1
 2330 07a5 48       		.byte	0x48
 2331 07a6 00       		.byte	0
 2332 07a7 00       		.byte	0
 2333 07a8 0A       		.uleb128 0xa
 2334 07a9 64050000 		.4byte	.LASF68
 2335 07ad 01       		.byte	0x1
 2336 07ae 0E05     		.2byte	0x50e
 2337 07b0 77000000 		.4byte	0x77
 2338 07b4 00000000 		.4byte	.LFB36
 2339 07b8 14000000 		.4byte	.LFE36-.LFB36
 2340 07bc 01       		.uleb128 0x1
 2341 07bd 9C       		.byte	0x9c
 2342 07be 06       		.uleb128 0x6
 2343 07bf AD020000 		.4byte	.LASF69
 2344 07c3 01       		.byte	0x1
 2345 07c4 2705     		.2byte	0x527
 2346 07c6 00000000 		.4byte	.LFB37
 2347 07ca 0C000000 		.4byte	.LFE37-.LFB37
 2348 07ce 01       		.uleb128 0x1
 2349 07cf 9C       		.byte	0x9c
 2350 07d0 E3070000 		.4byte	0x7e3
 2351 07d4 0F       		.uleb128 0xf
 2352 07d5 81050000 		.4byte	.LASF70
 2353 07d9 01       		.byte	0x1
 2354 07da 2705     		.2byte	0x527
 2355 07dc 77000000 		.4byte	0x77
 2356 07e0 01       		.uleb128 0x1
 2357 07e1 50       		.byte	0x50
 2358 07e2 00       		.byte	0
 2359 07e3 0B       		.uleb128 0xb
 2360 07e4 50010000 		.4byte	.LASF71
 2361 07e8 01       		.byte	0x1
 2362 07e9 26       		.byte	0x26
 2363 07ea 00000000 		.4byte	.LFB2
 2364 07ee 2C000000 		.4byte	.LFE2-.LFB2
 2365 07f2 01       		.uleb128 0x1
 2366 07f3 9C       		.byte	0x9c
 2367 07f4 2E080000 		.4byte	0x82e
 2368 07f8 10       		.uleb128 0x10
 2369 07f9 16000000 		.4byte	.LVL87
 2370 07fd BE070000 		.4byte	0x7be
 2371 0801 0B080000 		.4byte	0x80b
 2372 0805 0E       		.uleb128 0xe
 2373 0806 01       		.uleb128 0x1
 2374 0807 50       		.byte	0x50
 2375 0808 01       		.uleb128 0x1
 2376 0809 31       		.byte	0x31
 2377 080a 00       		.byte	0
 2378 080b 10       		.uleb128 0x10
 2379 080c 1C000000 		.4byte	.LVL88
 2380 0810 E5030000 		.4byte	0x3e5
 2381 0814 1E080000 		.4byte	0x81e
 2382 0818 0E       		.uleb128 0xe
 2383 0819 01       		.uleb128 0x1
 2384 081a 50       		.byte	0x50
 2385 081b 01       		.uleb128 0x1
ARM GAS  C:\Users\Ade0n\AppData\Local\Temp\ccqKniWt.s 			page 68


 2386 081c 33       		.byte	0x33
 2387 081d 00       		.byte	0
 2388 081e 0D       		.uleb128 0xd
 2389 081f 22000000 		.4byte	.LVL89
 2390 0823 5F030000 		.4byte	0x35f
 2391 0827 0E       		.uleb128 0xe
 2392 0828 01       		.uleb128 0x1
 2393 0829 50       		.byte	0x50
 2394 082a 01       		.uleb128 0x1
 2395 082b 30       		.byte	0x30
 2396 082c 00       		.byte	0
 2397 082d 00       		.byte	0
 2398 082e 0B       		.uleb128 0xb
 2399 082f E3030000 		.4byte	.LASF72
 2400 0833 01       		.byte	0x1
 2401 0834 E6       		.byte	0xe6
 2402 0835 00000000 		.4byte	.LFB4
 2403 0839 20000000 		.4byte	.LFE4-.LFB4
 2404 083d 01       		.uleb128 0x1
 2405 083e 9C       		.byte	0x9c
 2406 083f 56080000 		.4byte	0x856
 2407 0843 08       		.uleb128 0x8
 2408 0844 0E000000 		.4byte	.LVL90
 2409 0848 E3070000 		.4byte	0x7e3
 2410 084c 08       		.uleb128 0x8
 2411 084d 18000000 		.4byte	.LVL91
 2412 0851 5D070000 		.4byte	0x75d
 2413 0855 00       		.byte	0
 2414 0856 0A       		.uleb128 0xa
 2415 0857 C6060000 		.4byte	.LASF73
 2416 085b 01       		.byte	0x1
 2417 085c 3E05     		.2byte	0x53e
 2418 085e 77000000 		.4byte	0x77
 2419 0862 00000000 		.4byte	.LFB38
 2420 0866 0C000000 		.4byte	.LFE38-.LFB38
 2421 086a 01       		.uleb128 0x1
 2422 086b 9C       		.byte	0x9c
 2423 086c 0A       		.uleb128 0xa
 2424 086d 30040000 		.4byte	.LASF74
 2425 0871 01       		.byte	0x1
 2426 0872 5505     		.2byte	0x555
 2427 0874 77000000 		.4byte	0x77
 2428 0878 00000000 		.4byte	.LFB39
 2429 087c 0C000000 		.4byte	.LFE39-.LFB39
 2430 0880 01       		.uleb128 0x1
 2431 0881 9C       		.byte	0x9c
 2432 0882 06       		.uleb128 0x6
 2433 0883 55040000 		.4byte	.LASF75
 2434 0887 01       		.byte	0x1
 2435 0888 6C05     		.2byte	0x56c
 2436 088a 00000000 		.4byte	.LFB40
 2437 088e 0C000000 		.4byte	.LFE40-.LFB40
 2438 0892 01       		.uleb128 0x1
 2439 0893 9C       		.byte	0x9c
 2440 0894 A7080000 		.4byte	0x8a7
 2441 0898 0F       		.uleb128 0xf
 2442 0899 81050000 		.4byte	.LASF70
ARM GAS  C:\Users\Ade0n\AppData\Local\Temp\ccqKniWt.s 			page 69


 2443 089d 01       		.byte	0x1
 2444 089e 6C05     		.2byte	0x56c
 2445 08a0 77000000 		.4byte	0x77
 2446 08a4 01       		.uleb128 0x1
 2447 08a5 50       		.byte	0x50
 2448 08a6 00       		.byte	0
 2449 08a7 06       		.uleb128 0x6
 2450 08a8 81010000 		.4byte	.LASF76
 2451 08ac 01       		.byte	0x1
 2452 08ad 8305     		.2byte	0x583
 2453 08af 00000000 		.4byte	.LFB41
 2454 08b3 0C000000 		.4byte	.LFE41-.LFB41
 2455 08b7 01       		.uleb128 0x1
 2456 08b8 9C       		.byte	0x9c
 2457 08b9 CC080000 		.4byte	0x8cc
 2458 08bd 0F       		.uleb128 0xf
 2459 08be 81050000 		.4byte	.LASF70
 2460 08c2 01       		.byte	0x1
 2461 08c3 8305     		.2byte	0x583
 2462 08c5 77000000 		.4byte	0x77
 2463 08c9 01       		.uleb128 0x1
 2464 08ca 50       		.byte	0x50
 2465 08cb 00       		.byte	0
 2466 08cc 11       		.uleb128 0x11
 2467 08cd 0F050000 		.4byte	.LASF82
 2468 08d1 01       		.byte	0x1
 2469 08d2 15       		.byte	0x15
 2470 08d3 6B000000 		.4byte	0x6b
 2471 08d7 05       		.uleb128 0x5
 2472 08d8 03       		.byte	0x3
 2473 08d9 00000000 		.4byte	Timer_OutputSpeed_initVar
 2474 08dd 12       		.uleb128 0x12
 2475 08de 14030000 		.4byte	.LASF77
 2476 08e2 14030000 		.4byte	.LASF77
 2477 08e6 03       		.byte	0x3
 2478 08e7 F8       		.byte	0xf8
 2479 08e8 12       		.uleb128 0x12
 2480 08e9 06000000 		.4byte	.LASF78
 2481 08ed 06000000 		.4byte	.LASF78
 2482 08f1 03       		.byte	0x3
 2483 08f2 F9       		.byte	0xf9
 2484 08f3 00       		.byte	0
 2485              		.section	.debug_abbrev,"",%progbits
 2486              	.Ldebug_abbrev0:
 2487 0000 01       		.uleb128 0x1
 2488 0001 11       		.uleb128 0x11
 2489 0002 01       		.byte	0x1
 2490 0003 25       		.uleb128 0x25
 2491 0004 0E       		.uleb128 0xe
 2492 0005 13       		.uleb128 0x13
 2493 0006 0B       		.uleb128 0xb
 2494 0007 03       		.uleb128 0x3
 2495 0008 0E       		.uleb128 0xe
 2496 0009 1B       		.uleb128 0x1b
 2497 000a 0E       		.uleb128 0xe
 2498 000b 55       		.uleb128 0x55
 2499 000c 17       		.uleb128 0x17
ARM GAS  C:\Users\Ade0n\AppData\Local\Temp\ccqKniWt.s 			page 70


 2500 000d 11       		.uleb128 0x11
 2501 000e 01       		.uleb128 0x1
 2502 000f 10       		.uleb128 0x10
 2503 0010 17       		.uleb128 0x17
 2504 0011 00       		.byte	0
 2505 0012 00       		.byte	0
 2506 0013 02       		.uleb128 0x2
 2507 0014 24       		.uleb128 0x24
 2508 0015 00       		.byte	0
 2509 0016 0B       		.uleb128 0xb
 2510 0017 0B       		.uleb128 0xb
 2511 0018 3E       		.uleb128 0x3e
 2512 0019 0B       		.uleb128 0xb
 2513 001a 03       		.uleb128 0x3
 2514 001b 0E       		.uleb128 0xe
 2515 001c 00       		.byte	0
 2516 001d 00       		.byte	0
 2517 001e 03       		.uleb128 0x3
 2518 001f 24       		.uleb128 0x24
 2519 0020 00       		.byte	0
 2520 0021 0B       		.uleb128 0xb
 2521 0022 0B       		.uleb128 0xb
 2522 0023 3E       		.uleb128 0x3e
 2523 0024 0B       		.uleb128 0xb
 2524 0025 03       		.uleb128 0x3
 2525 0026 08       		.uleb128 0x8
 2526 0027 00       		.byte	0
 2527 0028 00       		.byte	0
 2528 0029 04       		.uleb128 0x4
 2529 002a 16       		.uleb128 0x16
 2530 002b 00       		.byte	0
 2531 002c 03       		.uleb128 0x3
 2532 002d 0E       		.uleb128 0xe
 2533 002e 3A       		.uleb128 0x3a
 2534 002f 0B       		.uleb128 0xb
 2535 0030 3B       		.uleb128 0x3b
 2536 0031 05       		.uleb128 0x5
 2537 0032 49       		.uleb128 0x49
 2538 0033 13       		.uleb128 0x13
 2539 0034 00       		.byte	0
 2540 0035 00       		.byte	0
 2541 0036 05       		.uleb128 0x5
 2542 0037 35       		.uleb128 0x35
 2543 0038 00       		.byte	0
 2544 0039 49       		.uleb128 0x49
 2545 003a 13       		.uleb128 0x13
 2546 003b 00       		.byte	0
 2547 003c 00       		.byte	0
 2548 003d 06       		.uleb128 0x6
 2549 003e 2E       		.uleb128 0x2e
 2550 003f 01       		.byte	0x1
 2551 0040 3F       		.uleb128 0x3f
 2552 0041 19       		.uleb128 0x19
 2553 0042 03       		.uleb128 0x3
 2554 0043 0E       		.uleb128 0xe
 2555 0044 3A       		.uleb128 0x3a
 2556 0045 0B       		.uleb128 0xb
ARM GAS  C:\Users\Ade0n\AppData\Local\Temp\ccqKniWt.s 			page 71


 2557 0046 3B       		.uleb128 0x3b
 2558 0047 05       		.uleb128 0x5
 2559 0048 27       		.uleb128 0x27
 2560 0049 19       		.uleb128 0x19
 2561 004a 11       		.uleb128 0x11
 2562 004b 01       		.uleb128 0x1
 2563 004c 12       		.uleb128 0x12
 2564 004d 06       		.uleb128 0x6
 2565 004e 40       		.uleb128 0x40
 2566 004f 18       		.uleb128 0x18
 2567 0050 9742     		.uleb128 0x2117
 2568 0052 19       		.uleb128 0x19
 2569 0053 01       		.uleb128 0x1
 2570 0054 13       		.uleb128 0x13
 2571 0055 00       		.byte	0
 2572 0056 00       		.byte	0
 2573 0057 07       		.uleb128 0x7
 2574 0058 34       		.uleb128 0x34
 2575 0059 00       		.byte	0
 2576 005a 03       		.uleb128 0x3
 2577 005b 0E       		.uleb128 0xe
 2578 005c 3A       		.uleb128 0x3a
 2579 005d 0B       		.uleb128 0xb
 2580 005e 3B       		.uleb128 0x3b
 2581 005f 05       		.uleb128 0x5
 2582 0060 49       		.uleb128 0x49
 2583 0061 13       		.uleb128 0x13
 2584 0062 02       		.uleb128 0x2
 2585 0063 17       		.uleb128 0x17
 2586 0064 00       		.byte	0
 2587 0065 00       		.byte	0
 2588 0066 08       		.uleb128 0x8
 2589 0067 898201   		.uleb128 0x4109
 2590 006a 00       		.byte	0
 2591 006b 11       		.uleb128 0x11
 2592 006c 01       		.uleb128 0x1
 2593 006d 31       		.uleb128 0x31
 2594 006e 13       		.uleb128 0x13
 2595 006f 00       		.byte	0
 2596 0070 00       		.byte	0
 2597 0071 09       		.uleb128 0x9
 2598 0072 05       		.uleb128 0x5
 2599 0073 00       		.byte	0
 2600 0074 03       		.uleb128 0x3
 2601 0075 0E       		.uleb128 0xe
 2602 0076 3A       		.uleb128 0x3a
 2603 0077 0B       		.uleb128 0xb
 2604 0078 3B       		.uleb128 0x3b
 2605 0079 05       		.uleb128 0x5
 2606 007a 49       		.uleb128 0x49
 2607 007b 13       		.uleb128 0x13
 2608 007c 02       		.uleb128 0x2
 2609 007d 17       		.uleb128 0x17
 2610 007e 00       		.byte	0
 2611 007f 00       		.byte	0
 2612 0080 0A       		.uleb128 0xa
 2613 0081 2E       		.uleb128 0x2e
ARM GAS  C:\Users\Ade0n\AppData\Local\Temp\ccqKniWt.s 			page 72


 2614 0082 00       		.byte	0
 2615 0083 3F       		.uleb128 0x3f
 2616 0084 19       		.uleb128 0x19
 2617 0085 03       		.uleb128 0x3
 2618 0086 0E       		.uleb128 0xe
 2619 0087 3A       		.uleb128 0x3a
 2620 0088 0B       		.uleb128 0xb
 2621 0089 3B       		.uleb128 0x3b
 2622 008a 05       		.uleb128 0x5
 2623 008b 27       		.uleb128 0x27
 2624 008c 19       		.uleb128 0x19
 2625 008d 49       		.uleb128 0x49
 2626 008e 13       		.uleb128 0x13
 2627 008f 11       		.uleb128 0x11
 2628 0090 01       		.uleb128 0x1
 2629 0091 12       		.uleb128 0x12
 2630 0092 06       		.uleb128 0x6
 2631 0093 40       		.uleb128 0x40
 2632 0094 18       		.uleb128 0x18
 2633 0095 9742     		.uleb128 0x2117
 2634 0097 19       		.uleb128 0x19
 2635 0098 00       		.byte	0
 2636 0099 00       		.byte	0
 2637 009a 0B       		.uleb128 0xb
 2638 009b 2E       		.uleb128 0x2e
 2639 009c 01       		.byte	0x1
 2640 009d 3F       		.uleb128 0x3f
 2641 009e 19       		.uleb128 0x19
 2642 009f 03       		.uleb128 0x3
 2643 00a0 0E       		.uleb128 0xe
 2644 00a1 3A       		.uleb128 0x3a
 2645 00a2 0B       		.uleb128 0xb
 2646 00a3 3B       		.uleb128 0x3b
 2647 00a4 0B       		.uleb128 0xb
 2648 00a5 27       		.uleb128 0x27
 2649 00a6 19       		.uleb128 0x19
 2650 00a7 11       		.uleb128 0x11
 2651 00a8 01       		.uleb128 0x1
 2652 00a9 12       		.uleb128 0x12
 2653 00aa 06       		.uleb128 0x6
 2654 00ab 40       		.uleb128 0x40
 2655 00ac 18       		.uleb128 0x18
 2656 00ad 9742     		.uleb128 0x2117
 2657 00af 19       		.uleb128 0x19
 2658 00b0 01       		.uleb128 0x1
 2659 00b1 13       		.uleb128 0x13
 2660 00b2 00       		.byte	0
 2661 00b3 00       		.byte	0
 2662 00b4 0C       		.uleb128 0xc
 2663 00b5 34       		.uleb128 0x34
 2664 00b6 00       		.byte	0
 2665 00b7 03       		.uleb128 0x3
 2666 00b8 0E       		.uleb128 0xe
 2667 00b9 3A       		.uleb128 0x3a
 2668 00ba 0B       		.uleb128 0xb
 2669 00bb 3B       		.uleb128 0x3b
 2670 00bc 0B       		.uleb128 0xb
ARM GAS  C:\Users\Ade0n\AppData\Local\Temp\ccqKniWt.s 			page 73


 2671 00bd 49       		.uleb128 0x49
 2672 00be 13       		.uleb128 0x13
 2673 00bf 02       		.uleb128 0x2
 2674 00c0 17       		.uleb128 0x17
 2675 00c1 00       		.byte	0
 2676 00c2 00       		.byte	0
 2677 00c3 0D       		.uleb128 0xd
 2678 00c4 898201   		.uleb128 0x4109
 2679 00c7 01       		.byte	0x1
 2680 00c8 11       		.uleb128 0x11
 2681 00c9 01       		.uleb128 0x1
 2682 00ca 31       		.uleb128 0x31
 2683 00cb 13       		.uleb128 0x13
 2684 00cc 00       		.byte	0
 2685 00cd 00       		.byte	0
 2686 00ce 0E       		.uleb128 0xe
 2687 00cf 8A8201   		.uleb128 0x410a
 2688 00d2 00       		.byte	0
 2689 00d3 02       		.uleb128 0x2
 2690 00d4 18       		.uleb128 0x18
 2691 00d5 9142     		.uleb128 0x2111
 2692 00d7 18       		.uleb128 0x18
 2693 00d8 00       		.byte	0
 2694 00d9 00       		.byte	0
 2695 00da 0F       		.uleb128 0xf
 2696 00db 05       		.uleb128 0x5
 2697 00dc 00       		.byte	0
 2698 00dd 03       		.uleb128 0x3
 2699 00de 0E       		.uleb128 0xe
 2700 00df 3A       		.uleb128 0x3a
 2701 00e0 0B       		.uleb128 0xb
 2702 00e1 3B       		.uleb128 0x3b
 2703 00e2 05       		.uleb128 0x5
 2704 00e3 49       		.uleb128 0x49
 2705 00e4 13       		.uleb128 0x13
 2706 00e5 02       		.uleb128 0x2
 2707 00e6 18       		.uleb128 0x18
 2708 00e7 00       		.byte	0
 2709 00e8 00       		.byte	0
 2710 00e9 10       		.uleb128 0x10
 2711 00ea 898201   		.uleb128 0x4109
 2712 00ed 01       		.byte	0x1
 2713 00ee 11       		.uleb128 0x11
 2714 00ef 01       		.uleb128 0x1
 2715 00f0 31       		.uleb128 0x31
 2716 00f1 13       		.uleb128 0x13
 2717 00f2 01       		.uleb128 0x1
 2718 00f3 13       		.uleb128 0x13
 2719 00f4 00       		.byte	0
 2720 00f5 00       		.byte	0
 2721 00f6 11       		.uleb128 0x11
 2722 00f7 34       		.uleb128 0x34
 2723 00f8 00       		.byte	0
 2724 00f9 03       		.uleb128 0x3
 2725 00fa 0E       		.uleb128 0xe
 2726 00fb 3A       		.uleb128 0x3a
 2727 00fc 0B       		.uleb128 0xb
ARM GAS  C:\Users\Ade0n\AppData\Local\Temp\ccqKniWt.s 			page 74


 2728 00fd 3B       		.uleb128 0x3b
 2729 00fe 0B       		.uleb128 0xb
 2730 00ff 49       		.uleb128 0x49
 2731 0100 13       		.uleb128 0x13
 2732 0101 3F       		.uleb128 0x3f
 2733 0102 19       		.uleb128 0x19
 2734 0103 02       		.uleb128 0x2
 2735 0104 18       		.uleb128 0x18
 2736 0105 00       		.byte	0
 2737 0106 00       		.byte	0
 2738 0107 12       		.uleb128 0x12
 2739 0108 2E       		.uleb128 0x2e
 2740 0109 00       		.byte	0
 2741 010a 3F       		.uleb128 0x3f
 2742 010b 19       		.uleb128 0x19
 2743 010c 3C       		.uleb128 0x3c
 2744 010d 19       		.uleb128 0x19
 2745 010e 6E       		.uleb128 0x6e
 2746 010f 0E       		.uleb128 0xe
 2747 0110 03       		.uleb128 0x3
 2748 0111 0E       		.uleb128 0xe
 2749 0112 3A       		.uleb128 0x3a
 2750 0113 0B       		.uleb128 0xb
 2751 0114 3B       		.uleb128 0x3b
 2752 0115 0B       		.uleb128 0xb
 2753 0116 00       		.byte	0
 2754 0117 00       		.byte	0
 2755 0118 00       		.byte	0
 2756              		.section	.debug_loc,"",%progbits
 2757              	.Ldebug_loc0:
 2758              	.LLST0:
 2759 0000 06000000 		.4byte	.LVL0
 2760 0004 13000000 		.4byte	.LVL1-1
 2761 0008 0100     		.2byte	0x1
 2762 000a 50       		.byte	0x50
 2763 000b 00000000 		.4byte	0
 2764 000f 00000000 		.4byte	0
 2765              	.LLST1:
 2766 0013 00000000 		.4byte	.LVL2
 2767 0017 07000000 		.4byte	.LVL3-1
 2768 001b 0100     		.2byte	0x1
 2769 001d 50       		.byte	0x50
 2770 001e 07000000 		.4byte	.LVL3-1
 2771 0022 16000000 		.4byte	.LVL4
 2772 0026 0100     		.2byte	0x1
 2773 0028 54       		.byte	0x54
 2774 0029 16000000 		.4byte	.LVL4
 2775 002d 28000000 		.4byte	.LFE6
 2776 0031 0400     		.2byte	0x4
 2777 0033 F3       		.byte	0xf3
 2778 0034 01       		.uleb128 0x1
 2779 0035 50       		.byte	0x50
 2780 0036 9F       		.byte	0x9f
 2781 0037 00000000 		.4byte	0
 2782 003b 00000000 		.4byte	0
 2783              	.LLST2:
 2784 003f 08000000 		.4byte	.LVL3
ARM GAS  C:\Users\Ade0n\AppData\Local\Temp\ccqKniWt.s 			page 75


 2785 0043 1B000000 		.4byte	.LVL5-1
 2786 0047 0100     		.2byte	0x1
 2787 0049 50       		.byte	0x50
 2788 004a 00000000 		.4byte	0
 2789 004e 00000000 		.4byte	0
 2790              	.LLST3:
 2791 0052 00000000 		.4byte	.LVL6
 2792 0056 07000000 		.4byte	.LVL7-1
 2793 005a 0100     		.2byte	0x1
 2794 005c 50       		.byte	0x50
 2795 005d 07000000 		.4byte	.LVL7-1
 2796 0061 16000000 		.4byte	.LVL8
 2797 0065 0100     		.2byte	0x1
 2798 0067 54       		.byte	0x54
 2799 0068 16000000 		.4byte	.LVL8
 2800 006c 28000000 		.4byte	.LFE7
 2801 0070 0400     		.2byte	0x4
 2802 0072 F3       		.byte	0xf3
 2803 0073 01       		.uleb128 0x1
 2804 0074 50       		.byte	0x50
 2805 0075 9F       		.byte	0x9f
 2806 0076 00000000 		.4byte	0
 2807 007a 00000000 		.4byte	0
 2808              	.LLST4:
 2809 007e 08000000 		.4byte	.LVL7
 2810 0082 1B000000 		.4byte	.LVL9-1
 2811 0086 0100     		.2byte	0x1
 2812 0088 50       		.byte	0x50
 2813 0089 00000000 		.4byte	0
 2814 008d 00000000 		.4byte	0
 2815              	.LLST5:
 2816 0091 00000000 		.4byte	.LVL10
 2817 0095 07000000 		.4byte	.LVL11-1
 2818 0099 0100     		.2byte	0x1
 2819 009b 50       		.byte	0x50
 2820 009c 07000000 		.4byte	.LVL11-1
 2821 00a0 16000000 		.4byte	.LVL12
 2822 00a4 0100     		.2byte	0x1
 2823 00a6 54       		.byte	0x54
 2824 00a7 16000000 		.4byte	.LVL12
 2825 00ab 28000000 		.4byte	.LFE8
 2826 00af 0400     		.2byte	0x4
 2827 00b1 F3       		.byte	0xf3
 2828 00b2 01       		.uleb128 0x1
 2829 00b3 50       		.byte	0x50
 2830 00b4 9F       		.byte	0x9f
 2831 00b5 00000000 		.4byte	0
 2832 00b9 00000000 		.4byte	0
 2833              	.LLST6:
 2834 00bd 08000000 		.4byte	.LVL11
 2835 00c1 1B000000 		.4byte	.LVL13-1
 2836 00c5 0100     		.2byte	0x1
 2837 00c7 50       		.byte	0x50
 2838 00c8 00000000 		.4byte	0
 2839 00cc 00000000 		.4byte	0
 2840              	.LLST7:
 2841 00d0 00000000 		.4byte	.LVL14
ARM GAS  C:\Users\Ade0n\AppData\Local\Temp\ccqKniWt.s 			page 76


 2842 00d4 07000000 		.4byte	.LVL15-1
 2843 00d8 0100     		.2byte	0x1
 2844 00da 50       		.byte	0x50
 2845 00db 07000000 		.4byte	.LVL15-1
 2846 00df 24000000 		.4byte	.LVL17
 2847 00e3 0100     		.2byte	0x1
 2848 00e5 54       		.byte	0x54
 2849 00e6 24000000 		.4byte	.LVL17
 2850 00ea 30000000 		.4byte	.LFE9
 2851 00ee 0400     		.2byte	0x4
 2852 00f0 F3       		.byte	0xf3
 2853 00f1 01       		.uleb128 0x1
 2854 00f2 50       		.byte	0x50
 2855 00f3 9F       		.byte	0x9f
 2856 00f4 00000000 		.4byte	0
 2857 00f8 00000000 		.4byte	0
 2858              	.LLST8:
 2859 00fc 08000000 		.4byte	.LVL15
 2860 0100 23000000 		.4byte	.LVL16-1
 2861 0104 0100     		.2byte	0x1
 2862 0106 50       		.byte	0x50
 2863 0107 00000000 		.4byte	0
 2864 010b 00000000 		.4byte	0
 2865              	.LLST9:
 2866 010f 00000000 		.4byte	.LVL18
 2867 0113 04000000 		.4byte	.LVL19
 2868 0117 0100     		.2byte	0x1
 2869 0119 50       		.byte	0x50
 2870 011a 04000000 		.4byte	.LVL19
 2871 011e 10000000 		.4byte	.LFE10
 2872 0122 0400     		.2byte	0x4
 2873 0124 F3       		.byte	0xf3
 2874 0125 01       		.uleb128 0x1
 2875 0126 50       		.byte	0x50
 2876 0127 9F       		.byte	0x9f
 2877 0128 00000000 		.4byte	0
 2878 012c 00000000 		.4byte	0
 2879              	.LLST10:
 2880 0130 00000000 		.4byte	.LVL20
 2881 0134 07000000 		.4byte	.LVL21-1
 2882 0138 0100     		.2byte	0x1
 2883 013a 50       		.byte	0x50
 2884 013b 07000000 		.4byte	.LVL21-1
 2885 013f 1A000000 		.4byte	.LVL22
 2886 0143 0100     		.2byte	0x1
 2887 0145 54       		.byte	0x54
 2888 0146 1A000000 		.4byte	.LVL22
 2889 014a 28000000 		.4byte	.LFE11
 2890 014e 0400     		.2byte	0x4
 2891 0150 F3       		.byte	0xf3
 2892 0151 01       		.uleb128 0x1
 2893 0152 50       		.byte	0x50
 2894 0153 9F       		.byte	0x9f
 2895 0154 00000000 		.4byte	0
 2896 0158 00000000 		.4byte	0
 2897              	.LLST11:
 2898 015c 08000000 		.4byte	.LVL21
ARM GAS  C:\Users\Ade0n\AppData\Local\Temp\ccqKniWt.s 			page 77


 2899 0160 21000000 		.4byte	.LVL23-1
 2900 0164 0100     		.2byte	0x1
 2901 0166 50       		.byte	0x50
 2902 0167 00000000 		.4byte	0
 2903 016b 00000000 		.4byte	0
 2904              	.LLST12:
 2905 016f 00000000 		.4byte	.LVL24
 2906 0173 07000000 		.4byte	.LVL25-1
 2907 0177 0100     		.2byte	0x1
 2908 0179 50       		.byte	0x50
 2909 017a 07000000 		.4byte	.LVL25-1
 2910 017e 1A000000 		.4byte	.LVL26
 2911 0182 0100     		.2byte	0x1
 2912 0184 54       		.byte	0x54
 2913 0185 1A000000 		.4byte	.LVL26
 2914 0189 28000000 		.4byte	.LFE12
 2915 018d 0400     		.2byte	0x4
 2916 018f F3       		.byte	0xf3
 2917 0190 01       		.uleb128 0x1
 2918 0191 50       		.byte	0x50
 2919 0192 9F       		.byte	0x9f
 2920 0193 00000000 		.4byte	0
 2921 0197 00000000 		.4byte	0
 2922              	.LLST13:
 2923 019b 08000000 		.4byte	.LVL25
 2924 019f 21000000 		.4byte	.LVL27-1
 2925 01a3 0100     		.2byte	0x1
 2926 01a5 50       		.byte	0x50
 2927 01a6 00000000 		.4byte	0
 2928 01aa 00000000 		.4byte	0
 2929              	.LLST14:
 2930 01ae 00000000 		.4byte	.LVL28
 2931 01b2 07000000 		.4byte	.LVL29-1
 2932 01b6 0100     		.2byte	0x1
 2933 01b8 50       		.byte	0x50
 2934 01b9 07000000 		.4byte	.LVL29-1
 2935 01bd 16000000 		.4byte	.LVL30
 2936 01c1 0100     		.2byte	0x1
 2937 01c3 54       		.byte	0x54
 2938 01c4 16000000 		.4byte	.LVL30
 2939 01c8 2C000000 		.4byte	.LFE13
 2940 01cc 0400     		.2byte	0x4
 2941 01ce F3       		.byte	0xf3
 2942 01cf 01       		.uleb128 0x1
 2943 01d0 50       		.byte	0x50
 2944 01d1 9F       		.byte	0x9f
 2945 01d2 00000000 		.4byte	0
 2946 01d6 00000000 		.4byte	0
 2947              	.LLST15:
 2948 01da 08000000 		.4byte	.LVL29
 2949 01de 1F000000 		.4byte	.LVL31-1
 2950 01e2 0100     		.2byte	0x1
 2951 01e4 50       		.byte	0x50
 2952 01e5 00000000 		.4byte	0
 2953 01e9 00000000 		.4byte	0
 2954              	.LLST16:
 2955 01ed 00000000 		.4byte	.LVL32
ARM GAS  C:\Users\Ade0n\AppData\Local\Temp\ccqKniWt.s 			page 78


 2956 01f1 07000000 		.4byte	.LVL33-1
 2957 01f5 0100     		.2byte	0x1
 2958 01f7 50       		.byte	0x50
 2959 01f8 07000000 		.4byte	.LVL33-1
 2960 01fc 16000000 		.4byte	.LVL34
 2961 0200 0100     		.2byte	0x1
 2962 0202 54       		.byte	0x54
 2963 0203 16000000 		.4byte	.LVL34
 2964 0207 28000000 		.4byte	.LFE14
 2965 020b 0400     		.2byte	0x4
 2966 020d F3       		.byte	0xf3
 2967 020e 01       		.uleb128 0x1
 2968 020f 50       		.byte	0x50
 2969 0210 9F       		.byte	0x9f
 2970 0211 00000000 		.4byte	0
 2971 0215 00000000 		.4byte	0
 2972              	.LLST17:
 2973 0219 08000000 		.4byte	.LVL33
 2974 021d 1B000000 		.4byte	.LVL35-1
 2975 0221 0100     		.2byte	0x1
 2976 0223 50       		.byte	0x50
 2977 0224 00000000 		.4byte	0
 2978 0228 00000000 		.4byte	0
 2979              	.LLST18:
 2980 022c 00000000 		.4byte	.LVL36
 2981 0230 02000000 		.4byte	.LVL37
 2982 0234 0100     		.2byte	0x1
 2983 0236 50       		.byte	0x50
 2984 0237 02000000 		.4byte	.LVL37
 2985 023b 10000000 		.4byte	.LFE15
 2986 023f 0400     		.2byte	0x4
 2987 0241 F3       		.byte	0xf3
 2988 0242 01       		.uleb128 0x1
 2989 0243 50       		.byte	0x50
 2990 0244 9F       		.byte	0x9f
 2991 0245 00000000 		.4byte	0
 2992 0249 00000000 		.4byte	0
 2993              	.LLST19:
 2994 024d 00000000 		.4byte	.LVL38
 2995 0251 07000000 		.4byte	.LVL39-1
 2996 0255 0100     		.2byte	0x1
 2997 0257 50       		.byte	0x50
 2998 0258 07000000 		.4byte	.LVL39-1
 2999 025c 16000000 		.4byte	.LVL40
 3000 0260 0100     		.2byte	0x1
 3001 0262 54       		.byte	0x54
 3002 0263 16000000 		.4byte	.LVL40
 3003 0267 28000000 		.4byte	.LFE17
 3004 026b 0400     		.2byte	0x4
 3005 026d F3       		.byte	0xf3
 3006 026e 01       		.uleb128 0x1
 3007 026f 50       		.byte	0x50
 3008 0270 9F       		.byte	0x9f
 3009 0271 00000000 		.4byte	0
 3010 0275 00000000 		.4byte	0
 3011              	.LLST20:
 3012 0279 08000000 		.4byte	.LVL39
ARM GAS  C:\Users\Ade0n\AppData\Local\Temp\ccqKniWt.s 			page 79


 3013 027d 1B000000 		.4byte	.LVL41-1
 3014 0281 0100     		.2byte	0x1
 3015 0283 50       		.byte	0x50
 3016 0284 00000000 		.4byte	0
 3017 0288 00000000 		.4byte	0
 3018              	.LLST21:
 3019 028c 00000000 		.4byte	.LVL42
 3020 0290 02000000 		.4byte	.LVL43
 3021 0294 0100     		.2byte	0x1
 3022 0296 50       		.byte	0x50
 3023 0297 02000000 		.4byte	.LVL43
 3024 029b 10000000 		.4byte	.LFE18
 3025 029f 0400     		.2byte	0x4
 3026 02a1 F3       		.byte	0xf3
 3027 02a2 01       		.uleb128 0x1
 3028 02a3 50       		.byte	0x50
 3029 02a4 9F       		.byte	0x9f
 3030 02a5 00000000 		.4byte	0
 3031 02a9 00000000 		.4byte	0
 3032              	.LLST22:
 3033 02ad 00000000 		.4byte	.LVL44
 3034 02b1 07000000 		.4byte	.LVL45-1
 3035 02b5 0100     		.2byte	0x1
 3036 02b7 50       		.byte	0x50
 3037 02b8 07000000 		.4byte	.LVL45-1
 3038 02bc 16000000 		.4byte	.LVL46
 3039 02c0 0100     		.2byte	0x1
 3040 02c2 54       		.byte	0x54
 3041 02c3 16000000 		.4byte	.LVL46
 3042 02c7 24000000 		.4byte	.LFE20
 3043 02cb 0400     		.2byte	0x4
 3044 02cd F3       		.byte	0xf3
 3045 02ce 01       		.uleb128 0x1
 3046 02cf 50       		.byte	0x50
 3047 02d0 9F       		.byte	0x9f
 3048 02d1 00000000 		.4byte	0
 3049 02d5 00000000 		.4byte	0
 3050              	.LLST23:
 3051 02d9 08000000 		.4byte	.LVL45
 3052 02dd 1D000000 		.4byte	.LVL47-1
 3053 02e1 0100     		.2byte	0x1
 3054 02e3 50       		.byte	0x50
 3055 02e4 00000000 		.4byte	0
 3056 02e8 00000000 		.4byte	0
 3057              	.LLST24:
 3058 02ec 00000000 		.4byte	.LVL48
 3059 02f0 02000000 		.4byte	.LVL49
 3060 02f4 0100     		.2byte	0x1
 3061 02f6 50       		.byte	0x50
 3062 02f7 02000000 		.4byte	.LVL49
 3063 02fb 10000000 		.4byte	.LFE21
 3064 02ff 0400     		.2byte	0x4
 3065 0301 F3       		.byte	0xf3
 3066 0302 01       		.uleb128 0x1
 3067 0303 50       		.byte	0x50
 3068 0304 9F       		.byte	0x9f
 3069 0305 00000000 		.4byte	0
ARM GAS  C:\Users\Ade0n\AppData\Local\Temp\ccqKniWt.s 			page 80


 3070 0309 00000000 		.4byte	0
 3071              	.LLST25:
 3072 030d 00000000 		.4byte	.LVL50
 3073 0311 07000000 		.4byte	.LVL51-1
 3074 0315 0100     		.2byte	0x1
 3075 0317 50       		.byte	0x50
 3076 0318 07000000 		.4byte	.LVL51-1
 3077 031c 1A000000 		.4byte	.LVL52
 3078 0320 0100     		.2byte	0x1
 3079 0322 54       		.byte	0x54
 3080 0323 1A000000 		.4byte	.LVL52
 3081 0327 28000000 		.4byte	.LFE23
 3082 032b 0400     		.2byte	0x4
 3083 032d F3       		.byte	0xf3
 3084 032e 01       		.uleb128 0x1
 3085 032f 50       		.byte	0x50
 3086 0330 9F       		.byte	0x9f
 3087 0331 00000000 		.4byte	0
 3088 0335 00000000 		.4byte	0
 3089              	.LLST26:
 3090 0339 08000000 		.4byte	.LVL51
 3091 033d 21000000 		.4byte	.LVL53-1
 3092 0341 0100     		.2byte	0x1
 3093 0343 50       		.byte	0x50
 3094 0344 00000000 		.4byte	0
 3095 0348 00000000 		.4byte	0
 3096              	.LLST27:
 3097 034c 00000000 		.4byte	.LVL54
 3098 0350 02000000 		.4byte	.LVL55
 3099 0354 0100     		.2byte	0x1
 3100 0356 50       		.byte	0x50
 3101 0357 02000000 		.4byte	.LVL55
 3102 035b 10000000 		.4byte	.LFE24
 3103 035f 0400     		.2byte	0x4
 3104 0361 F3       		.byte	0xf3
 3105 0362 01       		.uleb128 0x1
 3106 0363 50       		.byte	0x50
 3107 0364 9F       		.byte	0x9f
 3108 0365 00000000 		.4byte	0
 3109 0369 00000000 		.4byte	0
 3110              	.LLST28:
 3111 036d 00000000 		.4byte	.LVL56
 3112 0371 02000000 		.4byte	.LVL57
 3113 0375 0100     		.2byte	0x1
 3114 0377 50       		.byte	0x50
 3115 0378 02000000 		.4byte	.LVL57
 3116 037c 10000000 		.4byte	.LFE26
 3117 0380 0400     		.2byte	0x4
 3118 0382 F3       		.byte	0xf3
 3119 0383 01       		.uleb128 0x1
 3120 0384 50       		.byte	0x50
 3121 0385 9F       		.byte	0x9f
 3122 0386 00000000 		.4byte	0
 3123 038a 00000000 		.4byte	0
 3124              	.LLST29:
 3125 038e 00000000 		.4byte	.LVL58
 3126 0392 07000000 		.4byte	.LVL59-1
ARM GAS  C:\Users\Ade0n\AppData\Local\Temp\ccqKniWt.s 			page 81


 3127 0396 0100     		.2byte	0x1
 3128 0398 50       		.byte	0x50
 3129 0399 07000000 		.4byte	.LVL59-1
 3130 039d 16000000 		.4byte	.LVL60
 3131 03a1 0100     		.2byte	0x1
 3132 03a3 54       		.byte	0x54
 3133 03a4 16000000 		.4byte	.LVL60
 3134 03a8 24000000 		.4byte	.LFE30
 3135 03ac 0400     		.2byte	0x4
 3136 03ae F3       		.byte	0xf3
 3137 03af 01       		.uleb128 0x1
 3138 03b0 50       		.byte	0x50
 3139 03b1 9F       		.byte	0x9f
 3140 03b2 00000000 		.4byte	0
 3141 03b6 00000000 		.4byte	0
 3142              	.LLST30:
 3143 03ba 08000000 		.4byte	.LVL59
 3144 03be 1B000000 		.4byte	.LVL61-1
 3145 03c2 0100     		.2byte	0x1
 3146 03c4 50       		.byte	0x50
 3147 03c5 00000000 		.4byte	0
 3148 03c9 00000000 		.4byte	0
 3149              	.LLST31:
 3150 03cd 00000000 		.4byte	.LVL62
 3151 03d1 07000000 		.4byte	.LVL63-1
 3152 03d5 0100     		.2byte	0x1
 3153 03d7 50       		.byte	0x50
 3154 03d8 07000000 		.4byte	.LVL63-1
 3155 03dc 16000000 		.4byte	.LVL64
 3156 03e0 0100     		.2byte	0x1
 3157 03e2 54       		.byte	0x54
 3158 03e3 16000000 		.4byte	.LVL64
 3159 03e7 24000000 		.4byte	.LFE31
 3160 03eb 0400     		.2byte	0x4
 3161 03ed F3       		.byte	0xf3
 3162 03ee 01       		.uleb128 0x1
 3163 03ef 50       		.byte	0x50
 3164 03f0 9F       		.byte	0x9f
 3165 03f1 00000000 		.4byte	0
 3166 03f5 00000000 		.4byte	0
 3167              	.LLST32:
 3168 03f9 08000000 		.4byte	.LVL63
 3169 03fd 1D000000 		.4byte	.LVL65-1
 3170 0401 0100     		.2byte	0x1
 3171 0403 50       		.byte	0x50
 3172 0404 00000000 		.4byte	0
 3173 0408 00000000 		.4byte	0
 3174              	.LLST33:
 3175 040c 00000000 		.4byte	.LVL66
 3176 0410 07000000 		.4byte	.LVL67-1
 3177 0414 0100     		.2byte	0x1
 3178 0416 50       		.byte	0x50
 3179 0417 07000000 		.4byte	.LVL67-1
 3180 041b 16000000 		.4byte	.LVL68
 3181 041f 0100     		.2byte	0x1
 3182 0421 54       		.byte	0x54
 3183 0422 16000000 		.4byte	.LVL68
ARM GAS  C:\Users\Ade0n\AppData\Local\Temp\ccqKniWt.s 			page 82


 3184 0426 28000000 		.4byte	.LFE32
 3185 042a 0400     		.2byte	0x4
 3186 042c F3       		.byte	0xf3
 3187 042d 01       		.uleb128 0x1
 3188 042e 50       		.byte	0x50
 3189 042f 9F       		.byte	0x9f
 3190 0430 00000000 		.4byte	0
 3191 0434 00000000 		.4byte	0
 3192              	.LLST34:
 3193 0438 08000000 		.4byte	.LVL67
 3194 043c 1D000000 		.4byte	.LVL69-1
 3195 0440 0100     		.2byte	0x1
 3196 0442 50       		.byte	0x50
 3197 0443 00000000 		.4byte	0
 3198 0447 00000000 		.4byte	0
 3199              	.LLST35:
 3200 044b 00000000 		.4byte	.LVL70
 3201 044f 07000000 		.4byte	.LVL71-1
 3202 0453 0100     		.2byte	0x1
 3203 0455 50       		.byte	0x50
 3204 0456 07000000 		.4byte	.LVL71-1
 3205 045a 16000000 		.4byte	.LVL72
 3206 045e 0100     		.2byte	0x1
 3207 0460 54       		.byte	0x54
 3208 0461 16000000 		.4byte	.LVL72
 3209 0465 24000000 		.4byte	.LFE33
 3210 0469 0400     		.2byte	0x4
 3211 046b F3       		.byte	0xf3
 3212 046c 01       		.uleb128 0x1
 3213 046d 50       		.byte	0x50
 3214 046e 9F       		.byte	0x9f
 3215 046f 00000000 		.4byte	0
 3216 0473 00000000 		.4byte	0
 3217              	.LLST36:
 3218 0477 08000000 		.4byte	.LVL71
 3219 047b 1D000000 		.4byte	.LVL73-1
 3220 047f 0100     		.2byte	0x1
 3221 0481 50       		.byte	0x50
 3222 0482 00000000 		.4byte	0
 3223 0486 00000000 		.4byte	0
 3224              	.LLST37:
 3225 048a 00000000 		.4byte	.LVL74
 3226 048e 07000000 		.4byte	.LVL75-1
 3227 0492 0100     		.2byte	0x1
 3228 0494 50       		.byte	0x50
 3229 0495 07000000 		.4byte	.LVL75-1
 3230 0499 16000000 		.4byte	.LVL76
 3231 049d 0100     		.2byte	0x1
 3232 049f 54       		.byte	0x54
 3233 04a0 16000000 		.4byte	.LVL76
 3234 04a4 24000000 		.4byte	.LFE34
 3235 04a8 0400     		.2byte	0x4
 3236 04aa F3       		.byte	0xf3
 3237 04ab 01       		.uleb128 0x1
 3238 04ac 50       		.byte	0x50
 3239 04ad 9F       		.byte	0x9f
 3240 04ae 00000000 		.4byte	0
ARM GAS  C:\Users\Ade0n\AppData\Local\Temp\ccqKniWt.s 			page 83


 3241 04b2 00000000 		.4byte	0
 3242              	.LLST38:
 3243 04b6 08000000 		.4byte	.LVL75
 3244 04ba 1D000000 		.4byte	.LVL77-1
 3245 04be 0100     		.2byte	0x1
 3246 04c0 50       		.byte	0x50
 3247 04c1 00000000 		.4byte	0
 3248 04c5 00000000 		.4byte	0
 3249              	.LLST39:
 3250 04c9 00000000 		.4byte	.LVL78
 3251 04cd 09000000 		.4byte	.LVL79-1
 3252 04d1 0100     		.2byte	0x1
 3253 04d3 50       		.byte	0x50
 3254 04d4 09000000 		.4byte	.LVL79-1
 3255 04d8 0C000000 		.4byte	.LVL80
 3256 04dc 0100     		.2byte	0x1
 3257 04de 54       		.byte	0x54
 3258 04df 0C000000 		.4byte	.LVL80
 3259 04e3 1C000000 		.4byte	.LFE35
 3260 04e7 0400     		.2byte	0x4
 3261 04e9 F3       		.byte	0xf3
 3262 04ea 01       		.uleb128 0x1
 3263 04eb 50       		.byte	0x50
 3264 04ec 9F       		.byte	0x9f
 3265 04ed 00000000 		.4byte	0
 3266 04f1 00000000 		.4byte	0
 3267              	.LLST40:
 3268 04f5 00000000 		.4byte	.LVL78
 3269 04f9 09000000 		.4byte	.LVL79-1
 3270 04fd 0100     		.2byte	0x1
 3271 04ff 51       		.byte	0x51
 3272 0500 09000000 		.4byte	.LVL79-1
 3273 0504 14000000 		.4byte	.LVL82
 3274 0508 0100     		.2byte	0x1
 3275 050a 55       		.byte	0x55
 3276 050b 14000000 		.4byte	.LVL82
 3277 050f 1C000000 		.4byte	.LFE35
 3278 0513 0400     		.2byte	0x4
 3279 0515 F3       		.byte	0xf3
 3280 0516 01       		.uleb128 0x1
 3281 0517 51       		.byte	0x51
 3282 0518 9F       		.byte	0x9f
 3283 0519 00000000 		.4byte	0
 3284 051d 00000000 		.4byte	0
 3285              	.LLST41:
 3286 0521 0A000000 		.4byte	.LVL79
 3287 0525 13000000 		.4byte	.LVL81-1
 3288 0529 0100     		.2byte	0x1
 3289 052b 50       		.byte	0x50
 3290 052c 00000000 		.4byte	0
 3291 0530 00000000 		.4byte	0
 3292              	.LLST42:
 3293 0534 06000000 		.4byte	.LVL83
 3294 0538 13000000 		.4byte	.LVL84-1
 3295 053c 0100     		.2byte	0x1
 3296 053e 50       		.byte	0x50
 3297 053f 00000000 		.4byte	0
ARM GAS  C:\Users\Ade0n\AppData\Local\Temp\ccqKniWt.s 			page 84


 3298 0543 00000000 		.4byte	0
 3299              		.section	.debug_aranges,"",%progbits
 3300 0000 54010000 		.4byte	0x154
 3301 0004 0200     		.2byte	0x2
 3302 0006 00000000 		.4byte	.Ldebug_info0
 3303 000a 04       		.byte	0x4
 3304 000b 00       		.byte	0
 3305 000c 0000     		.2byte	0
 3306 000e 0000     		.2byte	0
 3307 0010 00000000 		.4byte	.LFB5
 3308 0014 1C000000 		.4byte	.LFE5-.LFB5
 3309 0018 00000000 		.4byte	.LFB6
 3310 001c 28000000 		.4byte	.LFE6-.LFB6
 3311 0020 00000000 		.4byte	.LFB7
 3312 0024 28000000 		.4byte	.LFE7-.LFB7
 3313 0028 00000000 		.4byte	.LFB8
 3314 002c 28000000 		.4byte	.LFE8-.LFB8
 3315 0030 00000000 		.4byte	.LFB9
 3316 0034 30000000 		.4byte	.LFE9-.LFB9
 3317 0038 00000000 		.4byte	.LFB10
 3318 003c 10000000 		.4byte	.LFE10-.LFB10
 3319 0040 00000000 		.4byte	.LFB11
 3320 0044 28000000 		.4byte	.LFE11-.LFB11
 3321 0048 00000000 		.4byte	.LFB12
 3322 004c 28000000 		.4byte	.LFE12-.LFB12
 3323 0050 00000000 		.4byte	.LFB13
 3324 0054 2C000000 		.4byte	.LFE13-.LFB13
 3325 0058 00000000 		.4byte	.LFB14
 3326 005c 28000000 		.4byte	.LFE14-.LFB14
 3327 0060 00000000 		.4byte	.LFB15
 3328 0064 10000000 		.4byte	.LFE15-.LFB15
 3329 0068 00000000 		.4byte	.LFB16
 3330 006c 10000000 		.4byte	.LFE16-.LFB16
 3331 0070 00000000 		.4byte	.LFB17
 3332 0074 28000000 		.4byte	.LFE17-.LFB17
 3333 0078 00000000 		.4byte	.LFB18
 3334 007c 10000000 		.4byte	.LFE18-.LFB18
 3335 0080 00000000 		.4byte	.LFB19
 3336 0084 10000000 		.4byte	.LFE19-.LFB19
 3337 0088 00000000 		.4byte	.LFB20
 3338 008c 24000000 		.4byte	.LFE20-.LFB20
 3339 0090 00000000 		.4byte	.LFB21
 3340 0094 10000000 		.4byte	.LFE21-.LFB21
 3341 0098 00000000 		.4byte	.LFB22
 3342 009c 10000000 		.4byte	.LFE22-.LFB22
 3343 00a0 00000000 		.4byte	.LFB23
 3344 00a4 28000000 		.4byte	.LFE23-.LFB23
 3345 00a8 00000000 		.4byte	.LFB24
 3346 00ac 10000000 		.4byte	.LFE24-.LFB24
 3347 00b0 00000000 		.4byte	.LFB25
 3348 00b4 10000000 		.4byte	.LFE25-.LFB25
 3349 00b8 00000000 		.4byte	.LFB26
 3350 00bc 10000000 		.4byte	.LFE26-.LFB26
 3351 00c0 00000000 		.4byte	.LFB27
 3352 00c4 10000000 		.4byte	.LFE27-.LFB27
 3353 00c8 00000000 		.4byte	.LFB28
 3354 00cc 10000000 		.4byte	.LFE28-.LFB28
ARM GAS  C:\Users\Ade0n\AppData\Local\Temp\ccqKniWt.s 			page 85


 3355 00d0 00000000 		.4byte	.LFB29
 3356 00d4 10000000 		.4byte	.LFE29-.LFB29
 3357 00d8 00000000 		.4byte	.LFB30
 3358 00dc 24000000 		.4byte	.LFE30-.LFB30
 3359 00e0 00000000 		.4byte	.LFB31
 3360 00e4 24000000 		.4byte	.LFE31-.LFB31
 3361 00e8 00000000 		.4byte	.LFB32
 3362 00ec 28000000 		.4byte	.LFE32-.LFB32
 3363 00f0 00000000 		.4byte	.LFB33
 3364 00f4 24000000 		.4byte	.LFE33-.LFB33
 3365 00f8 00000000 		.4byte	.LFB34
 3366 00fc 24000000 		.4byte	.LFE34-.LFB34
 3367 0100 00000000 		.4byte	.LFB35
 3368 0104 1C000000 		.4byte	.LFE35-.LFB35
 3369 0108 00000000 		.4byte	.LFB3
 3370 010c 24000000 		.4byte	.LFE3-.LFB3
 3371 0110 00000000 		.4byte	.LFB36
 3372 0114 14000000 		.4byte	.LFE36-.LFB36
 3373 0118 00000000 		.4byte	.LFB37
 3374 011c 0C000000 		.4byte	.LFE37-.LFB37
 3375 0120 00000000 		.4byte	.LFB2
 3376 0124 2C000000 		.4byte	.LFE2-.LFB2
 3377 0128 00000000 		.4byte	.LFB4
 3378 012c 20000000 		.4byte	.LFE4-.LFB4
 3379 0130 00000000 		.4byte	.LFB38
 3380 0134 0C000000 		.4byte	.LFE38-.LFB38
 3381 0138 00000000 		.4byte	.LFB39
 3382 013c 0C000000 		.4byte	.LFE39-.LFB39
 3383 0140 00000000 		.4byte	.LFB40
 3384 0144 0C000000 		.4byte	.LFE40-.LFB40
 3385 0148 00000000 		.4byte	.LFB41
 3386 014c 0C000000 		.4byte	.LFE41-.LFB41
 3387 0150 00000000 		.4byte	0
 3388 0154 00000000 		.4byte	0
 3389              		.section	.debug_ranges,"",%progbits
 3390              	.Ldebug_ranges0:
 3391 0000 00000000 		.4byte	.LFB5
 3392 0004 1C000000 		.4byte	.LFE5
 3393 0008 00000000 		.4byte	.LFB6
 3394 000c 28000000 		.4byte	.LFE6
 3395 0010 00000000 		.4byte	.LFB7
 3396 0014 28000000 		.4byte	.LFE7
 3397 0018 00000000 		.4byte	.LFB8
 3398 001c 28000000 		.4byte	.LFE8
 3399 0020 00000000 		.4byte	.LFB9
 3400 0024 30000000 		.4byte	.LFE9
 3401 0028 00000000 		.4byte	.LFB10
 3402 002c 10000000 		.4byte	.LFE10
 3403 0030 00000000 		.4byte	.LFB11
 3404 0034 28000000 		.4byte	.LFE11
 3405 0038 00000000 		.4byte	.LFB12
 3406 003c 28000000 		.4byte	.LFE12
 3407 0040 00000000 		.4byte	.LFB13
 3408 0044 2C000000 		.4byte	.LFE13
 3409 0048 00000000 		.4byte	.LFB14
 3410 004c 28000000 		.4byte	.LFE14
 3411 0050 00000000 		.4byte	.LFB15
ARM GAS  C:\Users\Ade0n\AppData\Local\Temp\ccqKniWt.s 			page 86


 3412 0054 10000000 		.4byte	.LFE15
 3413 0058 00000000 		.4byte	.LFB16
 3414 005c 10000000 		.4byte	.LFE16
 3415 0060 00000000 		.4byte	.LFB17
 3416 0064 28000000 		.4byte	.LFE17
 3417 0068 00000000 		.4byte	.LFB18
 3418 006c 10000000 		.4byte	.LFE18
 3419 0070 00000000 		.4byte	.LFB19
 3420 0074 10000000 		.4byte	.LFE19
 3421 0078 00000000 		.4byte	.LFB20
 3422 007c 24000000 		.4byte	.LFE20
 3423 0080 00000000 		.4byte	.LFB21
 3424 0084 10000000 		.4byte	.LFE21
 3425 0088 00000000 		.4byte	.LFB22
 3426 008c 10000000 		.4byte	.LFE22
 3427 0090 00000000 		.4byte	.LFB23
 3428 0094 28000000 		.4byte	.LFE23
 3429 0098 00000000 		.4byte	.LFB24
 3430 009c 10000000 		.4byte	.LFE24
 3431 00a0 00000000 		.4byte	.LFB25
 3432 00a4 10000000 		.4byte	.LFE25
 3433 00a8 00000000 		.4byte	.LFB26
 3434 00ac 10000000 		.4byte	.LFE26
 3435 00b0 00000000 		.4byte	.LFB27
 3436 00b4 10000000 		.4byte	.LFE27
 3437 00b8 00000000 		.4byte	.LFB28
 3438 00bc 10000000 		.4byte	.LFE28
 3439 00c0 00000000 		.4byte	.LFB29
 3440 00c4 10000000 		.4byte	.LFE29
 3441 00c8 00000000 		.4byte	.LFB30
 3442 00cc 24000000 		.4byte	.LFE30
 3443 00d0 00000000 		.4byte	.LFB31
 3444 00d4 24000000 		.4byte	.LFE31
 3445 00d8 00000000 		.4byte	.LFB32
 3446 00dc 28000000 		.4byte	.LFE32
 3447 00e0 00000000 		.4byte	.LFB33
 3448 00e4 24000000 		.4byte	.LFE33
 3449 00e8 00000000 		.4byte	.LFB34
 3450 00ec 24000000 		.4byte	.LFE34
 3451 00f0 00000000 		.4byte	.LFB35
 3452 00f4 1C000000 		.4byte	.LFE35
 3453 00f8 00000000 		.4byte	.LFB3
 3454 00fc 24000000 		.4byte	.LFE3
 3455 0100 00000000 		.4byte	.LFB36
 3456 0104 14000000 		.4byte	.LFE36
 3457 0108 00000000 		.4byte	.LFB37
 3458 010c 0C000000 		.4byte	.LFE37
 3459 0110 00000000 		.4byte	.LFB2
 3460 0114 2C000000 		.4byte	.LFE2
 3461 0118 00000000 		.4byte	.LFB4
 3462 011c 20000000 		.4byte	.LFE4
 3463 0120 00000000 		.4byte	.LFB38
 3464 0124 0C000000 		.4byte	.LFE38
 3465 0128 00000000 		.4byte	.LFB39
 3466 012c 0C000000 		.4byte	.LFE39
 3467 0130 00000000 		.4byte	.LFB40
 3468 0134 0C000000 		.4byte	.LFE40
ARM GAS  C:\Users\Ade0n\AppData\Local\Temp\ccqKniWt.s 			page 87


 3469 0138 00000000 		.4byte	.LFB41
 3470 013c 0C000000 		.4byte	.LFE41
 3471 0140 00000000 		.4byte	0
 3472 0144 00000000 		.4byte	0
 3473              		.section	.debug_line,"",%progbits
 3474              	.Ldebug_line0:
 3475 0000 81030000 		.section	.debug_str,"MS",%progbits,1
 3475      02005900 
 3475      00000201 
 3475      FB0E0D00 
 3475      01010101 
 3476              	.LASF38:
 3477 0000 636F756E 		.ascii	"count\000"
 3477      7400
 3478              	.LASF78:
 3479 0006 43794578 		.ascii	"CyExitCriticalSection\000"
 3479      69744372 
 3479      69746963 
 3479      616C5365 
 3479      6374696F 
 3480              	.LASF50:
 3481 001c 54696D65 		.ascii	"Timer_OutputSpeed_SetPeriodSwap\000"
 3481      725F4F75 
 3481      74707574 
 3481      53706565 
 3481      645F5365 
 3482              	.LASF27:
 3483 003c 54696D65 		.ascii	"Timer_OutputSpeed_SetPWMMode\000"
 3483      725F4F75 
 3483      74707574 
 3483      53706565 
 3483      645F5365 
 3484              	.LASF31:
 3485 0059 54696D65 		.ascii	"Timer_OutputSpeed_SetPWMStopOnKill\000"
 3485      725F4F75 
 3485      74707574 
 3485      53706565 
 3485      645F5365 
 3486              	.LASF79:
 3487 007c 474E5520 		.ascii	"GNU C11 5.4.1 20160609 (release) [ARM/embedded-5-br"
 3487      43313120 
 3487      352E342E 
 3487      31203230 
 3487      31363036 
 3488 00af 616E6368 		.ascii	"anch revision 237715] -mcpu=cortex-m0 -mthumb -g -O"
 3488      20726576 
 3488      6973696F 
 3488      6E203233 
 3488      37373135 
 3489 00e2 67202D66 		.ascii	"g -ffunction-sections -ffat-lto-objects\000"
 3489      66756E63 
 3489      74696F6E 
 3489      2D736563 
 3489      74696F6E 
 3490              	.LASF42:
 3491 010a 70657269 		.ascii	"period\000"
 3491      6F6400
ARM GAS  C:\Users\Ade0n\AppData\Local\Temp\ccqKniWt.s 			page 88


 3492              	.LASF39:
 3493 0111 54696D65 		.ascii	"Timer_OutputSpeed_SetCounterMode\000"
 3493      725F4F75 
 3493      74707574 
 3493      53706565 
 3493      645F5365 
 3494              	.LASF7:
 3495 0132 6C6F6E67 		.ascii	"long long unsigned int\000"
 3495      206C6F6E 
 3495      6720756E 
 3495      7369676E 
 3495      65642069 
 3496              	.LASF22:
 3497 0149 71644D6F 		.ascii	"qdMode\000"
 3497      646500
 3498              	.LASF71:
 3499 0150 54696D65 		.ascii	"Timer_OutputSpeed_Init\000"
 3499      725F4F75 
 3499      74707574 
 3499      53706565 
 3499      645F496E 
 3500              	.LASF6:
 3501 0167 6C6F6E67 		.ascii	"long long int\000"
 3501      206C6F6E 
 3501      6720696E 
 3501      7400
 3502              	.LASF0:
 3503 0175 7369676E 		.ascii	"signed char\000"
 3503      65642063 
 3503      68617200 
 3504              	.LASF76:
 3505 0181 54696D65 		.ascii	"Timer_OutputSpeed_SetInterrupt\000"
 3505      725F4F75 
 3505      74707574 
 3505      53706565 
 3505      645F5365 
 3506              	.LASF4:
 3507 01a0 6C6F6E67 		.ascii	"long int\000"
 3507      20696E74 
 3507      00
 3508              	.LASF59:
 3509 01a9 54696D65 		.ascii	"Timer_OutputSpeed_SetCaptureMode\000"
 3509      725F4F75 
 3509      74707574 
 3509      53706565 
 3509      645F5365 
 3510              	.LASF20:
 3511 01ca 54696D65 		.ascii	"Timer_OutputSpeed_SetQDMode\000"
 3511      725F4F75 
 3511      74707574 
 3511      53706565 
 3511      645F5365 
 3512              	.LASF9:
 3513 01e6 75696E74 		.ascii	"uint8\000"
 3513      3800
 3514              	.LASF81:
 3515 01ec 433A5C55 		.ascii	"C:\\Users\\Ade0n\\Desktop\\PR\\CyberPong\\CyberPong"
ARM GAS  C:\Users\Ade0n\AppData\Local\Temp\ccqKniWt.s 			page 89


 3515      73657273 
 3515      5C416465 
 3515      306E5C44 
 3515      65736B74 
 3516 0219 2E637964 		.ascii	".cydsn\000"
 3516      736E00
 3517              	.LASF62:
 3518 0220 54696D65 		.ascii	"Timer_OutputSpeed_SetStartMode\000"
 3518      725F4F75 
 3518      74707574 
 3518      53706565 
 3518      645F5365 
 3519              	.LASF58:
 3520 023f 54696D65 		.ascii	"Timer_OutputSpeed_ReadCaptureBuf\000"
 3520      725F4F75 
 3520      74707574 
 3520      53706565 
 3520      645F5265 
 3521              	.LASF10:
 3522 0260 75696E74 		.ascii	"uint32\000"
 3522      333200
 3523              	.LASF60:
 3524 0267 74726967 		.ascii	"triggerMode\000"
 3524      6765724D 
 3524      6F646500 
 3525              	.LASF36:
 3526 0273 6D61736B 		.ascii	"mask\000"
 3526      00
 3527              	.LASF64:
 3528 0278 54696D65 		.ascii	"Timer_OutputSpeed_SetCountMode\000"
 3528      725F4F75 
 3528      74707574 
 3528      53706565 
 3528      645F5365 
 3529              	.LASF34:
 3530 0297 64656164 		.ascii	"deadTime\000"
 3530      54696D65 
 3530      00
 3531              	.LASF8:
 3532 02a0 756E7369 		.ascii	"unsigned int\000"
 3532      676E6564 
 3532      20696E74 
 3532      00
 3533              	.LASF69:
 3534 02ad 54696D65 		.ascii	"Timer_OutputSpeed_SetInterruptMode\000"
 3534      725F4F75 
 3534      74707574 
 3534      53706565 
 3534      645F5365 
 3535              	.LASF66:
 3536 02d0 636F6D6D 		.ascii	"command\000"
 3536      616E6400 
 3537              	.LASF45:
 3538 02d8 54696D65 		.ascii	"Timer_OutputSpeed_SetCompareSwap\000"
 3538      725F4F75 
 3538      74707574 
 3538      53706565 
ARM GAS  C:\Users\Ade0n\AppData\Local\Temp\ccqKniWt.s 			page 90


 3538      645F5365 
 3539              	.LASF5:
 3540 02f9 6C6F6E67 		.ascii	"long unsigned int\000"
 3540      20756E73 
 3540      69676E65 
 3540      6420696E 
 3540      7400
 3541              	.LASF28:
 3542 030b 6D6F6465 		.ascii	"modeMask\000"
 3542      4D61736B 
 3542      00
 3543              	.LASF77:
 3544 0314 4379456E 		.ascii	"CyEnterCriticalSection\000"
 3544      74657243 
 3544      72697469 
 3544      63616C53 
 3544      65637469 
 3545              	.LASF51:
 3546 032b 54696D65 		.ascii	"Timer_OutputSpeed_WriteCompare\000"
 3546      725F4F75 
 3546      74707574 
 3546      53706565 
 3546      645F5772 
 3547              	.LASF3:
 3548 034a 73686F72 		.ascii	"short unsigned int\000"
 3548      7420756E 
 3548      7369676E 
 3548      65642069 
 3548      6E7400
 3549              	.LASF53:
 3550 035d 54696D65 		.ascii	"Timer_OutputSpeed_ReadCompare\000"
 3550      725F4F75 
 3550      74707574 
 3550      53706565 
 3550      645F5265 
 3551              	.LASF26:
 3552 037b 6F6E6553 		.ascii	"oneShotEnable\000"
 3552      686F7445 
 3552      6E61626C 
 3552      6500
 3553              	.LASF43:
 3554 0389 54696D65 		.ascii	"Timer_OutputSpeed_ReadCounter\000"
 3554      725F4F75 
 3554      74707574 
 3554      53706565 
 3554      645F5265 
 3555              	.LASF29:
 3556 03a7 54696D65 		.ascii	"Timer_OutputSpeed_SetPWMSyncKill\000"
 3556      725F4F75 
 3556      74707574 
 3556      53706565 
 3556      645F5365 
 3557              	.LASF14:
 3558 03c8 72656733 		.ascii	"reg32\000"
 3558      3200
 3559              	.LASF40:
 3560 03ce 636F756E 		.ascii	"counterMode\000"
ARM GAS  C:\Users\Ade0n\AppData\Local\Temp\ccqKniWt.s 			page 91


 3560      7465724D 
 3560      6F646500 
 3561              	.LASF16:
 3562 03da 73697A65 		.ascii	"sizetype\000"
 3562      74797065 
 3562      00
 3563              	.LASF72:
 3564 03e3 54696D65 		.ascii	"Timer_OutputSpeed_Start\000"
 3564      725F4F75 
 3564      74707574 
 3564      53706565 
 3564      645F5374 
 3565              	.LASF15:
 3566 03fb 6C6F6E67 		.ascii	"long double\000"
 3566      20646F75 
 3566      626C6500 
 3567              	.LASF52:
 3568 0407 636F6D70 		.ascii	"compare\000"
 3568      61726500 
 3569              	.LASF65:
 3570 040f 54696D65 		.ascii	"Timer_OutputSpeed_TriggerCommand\000"
 3570      725F4F75 
 3570      74707574 
 3570      53706565 
 3570      645F5472 
 3571              	.LASF74:
 3572 0430 54696D65 		.ascii	"Timer_OutputSpeed_GetInterruptSource\000"
 3572      725F4F75 
 3572      74707574 
 3572      53706565 
 3572      645F4765 
 3573              	.LASF75:
 3574 0455 54696D65 		.ascii	"Timer_OutputSpeed_ClearInterrupt\000"
 3574      725F4F75 
 3574      74707574 
 3574      53706565 
 3574      645F436C 
 3575              	.LASF11:
 3576 0476 666C6F61 		.ascii	"float\000"
 3576      7400
 3577              	.LASF24:
 3578 047c 70726573 		.ascii	"prescaler\000"
 3578      63616C65 
 3578      7200
 3579              	.LASF63:
 3580 0486 54696D65 		.ascii	"Timer_OutputSpeed_SetStopMode\000"
 3580      725F4F75 
 3580      74707574 
 3580      53706565 
 3580      645F5365 
 3581              	.LASF25:
 3582 04a4 54696D65 		.ascii	"Timer_OutputSpeed_SetOneShot\000"
 3582      725F4F75 
 3582      74707574 
 3582      53706565 
 3582      645F5365 
 3583              	.LASF56:
ARM GAS  C:\Users\Ade0n\AppData\Local\Temp\ccqKniWt.s 			page 92


 3584 04c1 54696D65 		.ascii	"Timer_OutputSpeed_ReadCompareBuf\000"
 3584      725F4F75 
 3584      74707574 
 3584      53706565 
 3584      645F5265 
 3585              	.LASF35:
 3586 04e2 54696D65 		.ascii	"Timer_OutputSpeed_SetPWMInvert\000"
 3586      725F4F75 
 3586      74707574 
 3586      53706565 
 3586      645F5365 
 3587              	.LASF1:
 3588 0501 756E7369 		.ascii	"unsigned char\000"
 3588      676E6564 
 3588      20636861 
 3588      7200
 3589              	.LASF82:
 3590 050f 54696D65 		.ascii	"Timer_OutputSpeed_initVar\000"
 3590      725F4F75 
 3590      74707574 
 3590      53706565 
 3590      645F696E 
 3591              	.LASF32:
 3592 0529 73746F70 		.ascii	"stopOnKillEnable\000"
 3592      4F6E4B69 
 3592      6C6C456E 
 3592      61626C65 
 3592      00
 3593              	.LASF2:
 3594 053a 73686F72 		.ascii	"short int\000"
 3594      7420696E 
 3594      7400
 3595              	.LASF61:
 3596 0544 54696D65 		.ascii	"Timer_OutputSpeed_SetReloadMode\000"
 3596      725F4F75 
 3596      74707574 
 3596      53706565 
 3596      645F5365 
 3597              	.LASF68:
 3598 0564 54696D65 		.ascii	"Timer_OutputSpeed_ReadStatus\000"
 3598      725F4F75 
 3598      74707574 
 3598      53706565 
 3598      645F5265 
 3599              	.LASF70:
 3600 0581 696E7465 		.ascii	"interruptMask\000"
 3600      72727570 
 3600      744D6173 
 3600      6B00
 3601              	.LASF67:
 3602 058f 54696D65 		.ascii	"Timer_OutputSpeed_Enable\000"
 3602      725F4F75 
 3602      74707574 
 3602      53706565 
 3602      645F456E 
 3603              	.LASF17:
 3604 05a8 54696D65 		.ascii	"Timer_OutputSpeed_Stop\000"
ARM GAS  C:\Users\Ade0n\AppData\Local\Temp\ccqKniWt.s 			page 93


 3604      725F4F75 
 3604      74707574 
 3604      53706565 
 3604      645F5374 
 3605              	.LASF33:
 3606 05bf 54696D65 		.ascii	"Timer_OutputSpeed_SetPWMDeadTime\000"
 3606      725F4F75 
 3606      74707574 
 3606      53706565 
 3606      645F5365 
 3607              	.LASF18:
 3608 05e0 54696D65 		.ascii	"Timer_OutputSpeed_SetMode\000"
 3608      725F4F75 
 3608      74707574 
 3608      53706565 
 3608      645F5365 
 3609              	.LASF13:
 3610 05fa 63686172 		.ascii	"char\000"
 3610      00
 3611              	.LASF41:
 3612 05ff 54696D65 		.ascii	"Timer_OutputSpeed_WritePeriod\000"
 3612      725F4F75 
 3612      74707574 
 3612      53706565 
 3612      645F5772 
 3613              	.LASF21:
 3614 061d 6D6F6465 		.ascii	"mode\000"
 3614      00
 3615              	.LASF80:
 3616 0622 47656E65 		.ascii	"Generated_Source\\PSoC4\\Timer_OutputSpeed.c\000"
 3616      72617465 
 3616      645F536F 
 3616      75726365 
 3616      5C50536F 
 3617              	.LASF23:
 3618 064d 54696D65 		.ascii	"Timer_OutputSpeed_SetPrescaler\000"
 3618      725F4F75 
 3618      74707574 
 3618      53706565 
 3618      645F5365 
 3619              	.LASF55:
 3620 066c 636F6D70 		.ascii	"compareBuf\000"
 3620      61726542 
 3620      756600
 3621              	.LASF47:
 3622 0677 54696D65 		.ascii	"Timer_OutputSpeed_WritePeriodBuf\000"
 3622      725F4F75 
 3622      74707574 
 3622      53706565 
 3622      645F5772 
 3623              	.LASF19:
 3624 0698 656E6162 		.ascii	"enableInterrupts\000"
 3624      6C65496E 
 3624      74657272 
 3624      75707473 
 3624      00
 3625              	.LASF44:
ARM GAS  C:\Users\Ade0n\AppData\Local\Temp\ccqKniWt.s 			page 94


 3626 06a9 54696D65 		.ascii	"Timer_OutputSpeed_ReadPeriod\000"
 3626      725F4F75 
 3626      74707574 
 3626      53706565 
 3626      645F5265 
 3627              	.LASF73:
 3628 06c6 54696D65 		.ascii	"Timer_OutputSpeed_GetInterruptSourceMasked\000"
 3628      725F4F75 
 3628      74707574 
 3628      53706565 
 3628      645F4765 
 3629              	.LASF57:
 3630 06f1 54696D65 		.ascii	"Timer_OutputSpeed_ReadCapture\000"
 3630      725F4F75 
 3630      74707574 
 3630      53706565 
 3630      645F5265 
 3631              	.LASF30:
 3632 070f 73796E63 		.ascii	"syncKillEnable\000"
 3632      4B696C6C 
 3632      456E6162 
 3632      6C6500
 3633              	.LASF46:
 3634 071e 73776170 		.ascii	"swapEnable\000"
 3634      456E6162 
 3634      6C6500
 3635              	.LASF49:
 3636 0729 54696D65 		.ascii	"Timer_OutputSpeed_ReadPeriodBuf\000"
 3636      725F4F75 
 3636      74707574 
 3636      53706565 
 3636      645F5265 
 3637              	.LASF37:
 3638 0749 54696D65 		.ascii	"Timer_OutputSpeed_WriteCounter\000"
 3638      725F4F75 
 3638      74707574 
 3638      53706565 
 3638      645F5772 
 3639              	.LASF12:
 3640 0768 646F7562 		.ascii	"double\000"
 3640      6C6500
 3641              	.LASF48:
 3642 076f 70657269 		.ascii	"periodBuf\000"
 3642      6F644275 
 3642      6600
 3643              	.LASF54:
 3644 0779 54696D65 		.ascii	"Timer_OutputSpeed_WriteCompareBuf\000"
 3644      725F4F75 
 3644      74707574 
 3644      53706565 
 3644      645F5772 
 3645              		.ident	"GCC: (GNU Tools for ARM Embedded Processors) 5.4.1 20160609 (release) [ARM/embedded-5-bran
