ARM GAS  C:\Users\Ade0n\AppData\Local\Temp\ccvgW31W.s 			page 1


   1              		.syntax unified
   2              		.cpu cortex-m3
   3              		.fpu softvfp
   4              		.eabi_attribute 20, 1
   5              		.eabi_attribute 21, 1
   6              		.eabi_attribute 23, 3
   7              		.eabi_attribute 24, 1
   8              		.eabi_attribute 25, 1
   9              		.eabi_attribute 26, 1
  10              		.eabi_attribute 30, 1
  11              		.eabi_attribute 34, 1
  12              		.eabi_attribute 18, 4
  13              		.thumb
  14              		.syntax unified
  15              		.file	"FanController_INT.c"
  16              		.text
  17              	.Ltext0:
  18              		.cfi_sections	.debug_frame
  19              		.section	.text.FanController_PID_CONTROL_ISR,"ax",%progbits
  20              		.align	2
  21              		.global	FanController_PID_CONTROL_ISR
  22              		.thumb
  23              		.thumb_func
  24              		.type	FanController_PID_CONTROL_ISR, %function
  25              	FanController_PID_CONTROL_ISR:
  26              	.LFB0:
  27              		.file 1 "Generated_Source\\PSoC5\\FanController_INT.c"
   1:Generated_Source\PSoC5/FanController_INT.c **** /*******************************************************************************
   2:Generated_Source\PSoC5/FanController_INT.c **** * File Name: FanController_INT.c
   3:Generated_Source\PSoC5/FanController_INT.c **** * Version 4.10
   4:Generated_Source\PSoC5/FanController_INT.c **** *
   5:Generated_Source\PSoC5/FanController_INT.c **** * Description:
   6:Generated_Source\PSoC5/FanController_INT.c **** *  This file contains the Interrupt Service Routines implementation for
   7:Generated_Source\PSoC5/FanController_INT.c **** *  Fan Controller component.
   8:Generated_Source\PSoC5/FanController_INT.c **** *
   9:Generated_Source\PSoC5/FanController_INT.c **** * Note:
  10:Generated_Source\PSoC5/FanController_INT.c **** *
  11:Generated_Source\PSoC5/FanController_INT.c **** *******************************************************************************
  12:Generated_Source\PSoC5/FanController_INT.c **** * Copyright 2008-2017, Cypress Semiconductor Corporation.  All rights reserved.
  13:Generated_Source\PSoC5/FanController_INT.c **** * You may use this file only in accordance with the license, terms, conditions,
  14:Generated_Source\PSoC5/FanController_INT.c **** * disclaimers, and limitations in the end user license agreement accompanying
  15:Generated_Source\PSoC5/FanController_INT.c **** * the software package with which this file was provided.
  16:Generated_Source\PSoC5/FanController_INT.c **** ********************************************************************************/
  17:Generated_Source\PSoC5/FanController_INT.c **** 
  18:Generated_Source\PSoC5/FanController_INT.c **** #include "CyLib.h"
  19:Generated_Source\PSoC5/FanController_INT.c **** #include "FanController.h"
  20:Generated_Source\PSoC5/FanController_INT.c **** #include "cyapicallbacks.h"
  21:Generated_Source\PSoC5/FanController_INT.c **** 
  22:Generated_Source\PSoC5/FanController_INT.c **** 
  23:Generated_Source\PSoC5/FanController_INT.c **** #if(FanController_IS_AUTO_FIRMWARE_MODE)
  24:Generated_Source\PSoC5/FanController_INT.c ****     volatile uint16 FanController_speedStatus = 0u;
  25:Generated_Source\PSoC5/FanController_INT.c **** #endif /* (FanController_IS_AUTO_FIRMWARE_MODE) */
  26:Generated_Source\PSoC5/FanController_INT.c **** 
  27:Generated_Source\PSoC5/FanController_INT.c **** 
  28:Generated_Source\PSoC5/FanController_INT.c **** #if(CY_PSOC4)
  29:Generated_Source\PSoC5/FanController_INT.c ****     /********************************************************************************
  30:Generated_Source\PSoC5/FanController_INT.c ****     *
ARM GAS  C:\Users\Ade0n\AppData\Local\Temp\ccvgW31W.s 			page 2


  31:Generated_Source\PSoC5/FanController_INT.c ****     * Summary:
  32:Generated_Source\PSoC5/FanController_INT.c ****     *  Interrupt Service Routine for transferring actual speed from tachometer.
  33:Generated_Source\PSoC5/FanController_INT.c ****     *
  34:Generated_Source\PSoC5/FanController_INT.c ****     * Parameters:
  35:Generated_Source\PSoC5/FanController_INT.c ****     *  None
  36:Generated_Source\PSoC5/FanController_INT.c ****     *
  37:Generated_Source\PSoC5/FanController_INT.c ****     * Return:
  38:Generated_Source\PSoC5/FanController_INT.c ****     *  None
  39:Generated_Source\PSoC5/FanController_INT.c ****     *
  40:Generated_Source\PSoC5/FanController_INT.c ****     * Reentrant:
  41:Generated_Source\PSoC5/FanController_INT.c ****     *  No
  42:Generated_Source\PSoC5/FanController_INT.c ****     *
  43:Generated_Source\PSoC5/FanController_INT.c ****     *******************************************************************************/
  44:Generated_Source\PSoC5/FanController_INT.c ****     CY_ISR(FanController_DATA_SEND_ISR)
  45:Generated_Source\PSoC5/FanController_INT.c ****     {
  46:Generated_Source\PSoC5/FanController_INT.c ****         uint8 fanNum;
  47:Generated_Source\PSoC5/FanController_INT.c ****         uint16 actSpeed;
  48:Generated_Source\PSoC5/FanController_INT.c **** 
  49:Generated_Source\PSoC5/FanController_INT.c ****         #ifdef FanController_DATA_SEND_ISR_ENTRY_CALLBACK
  50:Generated_Source\PSoC5/FanController_INT.c ****             FanController_DATA_SEND_ISR_EntryCallback();
  51:Generated_Source\PSoC5/FanController_INT.c ****         #endif /* FanController_DATA_SEND_ISR_ENTRY_CALLBACK */
  52:Generated_Source\PSoC5/FanController_INT.c **** 
  53:Generated_Source\PSoC5/FanController_INT.c ****         /* Get the number of active fan */
  54:Generated_Source\PSoC5/FanController_INT.c ****         fanNum = FanController_TACH_ADDR_CONTROL_REG & FanController_TACH_CNTL_NUM_FANS_MASK;
  55:Generated_Source\PSoC5/FanController_INT.c ****         
  56:Generated_Source\PSoC5/FanController_INT.c ****         /* Get measured actual speed period for a specific fan */
  57:Generated_Source\PSoC5/FanController_INT.c ****         actSpeed = CY_GET_REG16(FanController_TACH_STORED_ACT_PERIOD_PTR);
  58:Generated_Source\PSoC5/FanController_INT.c ****         
  59:Generated_Source\PSoC5/FanController_INT.c ****         /* Put down the measured speed to the proper location in RAM */
  60:Generated_Source\PSoC5/FanController_INT.c ****         FanController_fanControl.actualPeriod[fanNum] = actSpeed;
  61:Generated_Source\PSoC5/FanController_INT.c **** 
  62:Generated_Source\PSoC5/FanController_INT.c ****         /* Software stall detection */
  63:Generated_Source\PSoC5/FanController_INT.c ****         if(0u == actSpeed)
  64:Generated_Source\PSoC5/FanController_INT.c ****         {
  65:Generated_Source\PSoC5/FanController_INT.c ****             FanController_stallStatus |= (uint16) ((((uint16) 1u) << fanNum));
  66:Generated_Source\PSoC5/FanController_INT.c ****         }
  67:Generated_Source\PSoC5/FanController_INT.c **** 
  68:Generated_Source\PSoC5/FanController_INT.c ****         /* Calculate the new fan number value */
  69:Generated_Source\PSoC5/FanController_INT.c ****         fanNum = ((fanNum == 0u) ? ((uint8)(FanController_NUMBER_OF_FANS - 1u)) : (fanNum - 1u));
  70:Generated_Source\PSoC5/FanController_INT.c ****         
  71:Generated_Source\PSoC5/FanController_INT.c ****         /* Clear the previous fan number value in the control register */
  72:Generated_Source\PSoC5/FanController_INT.c ****         FanController_TACH_ADDR_CONTROL_REG &= ((uint8) ~FanController_TACH_CNTL_NUM_FANS_MASK);
  73:Generated_Source\PSoC5/FanController_INT.c **** 
  74:Generated_Source\PSoC5/FanController_INT.c ****         /* Set new fan number value and End-Of-Measurement bit if required */
  75:Generated_Source\PSoC5/FanController_INT.c ****         FanController_TACH_ADDR_CONTROL_REG |= 
  76:Generated_Source\PSoC5/FanController_INT.c ****                 fanNum | ((fanNum == ((uint8)(FanController_NUMBER_OF_FANS - 1u))) ? FanController_
  77:Generated_Source\PSoC5/FanController_INT.c **** 
  78:Generated_Source\PSoC5/FanController_INT.c ****         /* In case if the last fan in the sequence was measured it is required
  79:Generated_Source\PSoC5/FanController_INT.c ****         * to generate the "eoc" pulse from Global Control Register.
  80:Generated_Source\PSoC5/FanController_INT.c ****         */
  81:Generated_Source\PSoC5/FanController_INT.c ****         if(((uint8)(FanController_NUMBER_OF_FANS - 1u)) == fanNum)
  82:Generated_Source\PSoC5/FanController_INT.c ****         {
  83:Generated_Source\PSoC5/FanController_INT.c ****             FanController_GLOBAL_CONTROL_REG |= FanController_SW_EOC;
  84:Generated_Source\PSoC5/FanController_INT.c ****             
  85:Generated_Source\PSoC5/FanController_INT.c ****             /* Also set stall bit in Global Control Register if any of the fans were stalled */
  86:Generated_Source\PSoC5/FanController_INT.c ****             if (0u != (FanController_stallStatus & FanController_alertMask))
  87:Generated_Source\PSoC5/FanController_INT.c ****             {
ARM GAS  C:\Users\Ade0n\AppData\Local\Temp\ccvgW31W.s 			page 3


  88:Generated_Source\PSoC5/FanController_INT.c ****                 FanController_GLOBAL_CONTROL_REG |= FanController_SW_STALL;
  89:Generated_Source\PSoC5/FanController_INT.c ****             }
  90:Generated_Source\PSoC5/FanController_INT.c ****         }
  91:Generated_Source\PSoC5/FanController_INT.c ****         
  92:Generated_Source\PSoC5/FanController_INT.c ****         #ifdef FanController_DATA_SEND_ISR_EXIT_CALLBACK
  93:Generated_Source\PSoC5/FanController_INT.c ****             FanController_DATA_SEND_ISR_ExitCallback();
  94:Generated_Source\PSoC5/FanController_INT.c ****         #endif /* FanController_DATA_SEND_ISR_EXIT_CALLBACK */
  95:Generated_Source\PSoC5/FanController_INT.c ****     }
  96:Generated_Source\PSoC5/FanController_INT.c **** #endif /* (CY_PSOC4) */
  97:Generated_Source\PSoC5/FanController_INT.c **** 
  98:Generated_Source\PSoC5/FanController_INT.c **** 
  99:Generated_Source\PSoC5/FanController_INT.c **** #if(FanController_IS_AUTO_FIRMWARE_MODE)
 100:Generated_Source\PSoC5/FanController_INT.c ****     /*******************************************************************************
 101:Generated_Source\PSoC5/FanController_INT.c ****     *
 102:Generated_Source\PSoC5/FanController_INT.c ****     * Summary:
 103:Generated_Source\PSoC5/FanController_INT.c ****     *  Interrupt Service Routine for implementation of PID Firmware Controlling
 104:Generated_Source\PSoC5/FanController_INT.c ****     *  algorithm.
 105:Generated_Source\PSoC5/FanController_INT.c ****     *
 106:Generated_Source\PSoC5/FanController_INT.c ****     * Parameters:
 107:Generated_Source\PSoC5/FanController_INT.c ****     *  None
 108:Generated_Source\PSoC5/FanController_INT.c ****     *
 109:Generated_Source\PSoC5/FanController_INT.c ****     * Return:
 110:Generated_Source\PSoC5/FanController_INT.c ****     *  None
 111:Generated_Source\PSoC5/FanController_INT.c ****     *
 112:Generated_Source\PSoC5/FanController_INT.c ****     * Reentrant:
 113:Generated_Source\PSoC5/FanController_INT.c ****     *  No
 114:Generated_Source\PSoC5/FanController_INT.c ****     *
 115:Generated_Source\PSoC5/FanController_INT.c ****     * Theory:
 116:Generated_Source\PSoC5/FanController_INT.c ****     *  PID interrupt occurs in constant periods of time that is configured through
 117:Generated_Source\PSoC5/FanController_INT.c ****     *  the component customizer.
 118:Generated_Source\PSoC5/FanController_INT.c ****     *
 119:Generated_Source\PSoC5/FanController_INT.c ****     *******************************************************************************/
 120:Generated_Source\PSoC5/FanController_INT.c ****     CY_ISR(FanController_PID_CONTROL_ISR)
 121:Generated_Source\PSoC5/FanController_INT.c ****     {
  28              		.loc 1 121 0
  29              		.cfi_startproc
  30              		@ args = 0, pretend = 0, frame = 0
  31              		@ frame_needed = 0, uses_anonymous_args = 0
  32 0000 F8B5     		push	{r3, r4, r5, r6, r7, lr}
  33              		.cfi_def_cfa_offset 24
  34              		.cfi_offset 3, -24
  35              		.cfi_offset 4, -20
  36              		.cfi_offset 5, -16
  37              		.cfi_offset 6, -12
  38              		.cfi_offset 7, -8
  39              		.cfi_offset 14, -4
  40              	.LVL0:
 122:Generated_Source\PSoC5/FanController_INT.c ****         uint8 i;
 123:Generated_Source\PSoC5/FanController_INT.c ****         int16 pidErrorZ0;
 124:Generated_Source\PSoC5/FanController_INT.c ****         uint32 newCompare;
 125:Generated_Source\PSoC5/FanController_INT.c ****         int16 periodError;
 126:Generated_Source\PSoC5/FanController_INT.c ****         uint32 currActSpeed;
 127:Generated_Source\PSoC5/FanController_INT.c ****         uint32 tmpCompare;
 128:Generated_Source\PSoC5/FanController_INT.c ****         uint16 mask;
 129:Generated_Source\PSoC5/FanController_INT.c **** 
 130:Generated_Source\PSoC5/FanController_INT.c ****         /***************************************
 131:Generated_Source\PSoC5/FanController_INT.c ****         *   PID Parameters
ARM GAS  C:\Users\Ade0n\AppData\Local\Temp\ccvgW31W.s 			page 4


 132:Generated_Source\PSoC5/FanController_INT.c ****         ***************************************/
 133:Generated_Source\PSoC5/FanController_INT.c ****         /* The error history */
 134:Generated_Source\PSoC5/FanController_INT.c ****         static int16 FanController_pidErrorZ1[FanController_NUMBER_OF_FANS] = {0};
 135:Generated_Source\PSoC5/FanController_INT.c ****         static int16 FanController_pidErrorZ2[FanController_NUMBER_OF_FANS] = {0};
 136:Generated_Source\PSoC5/FanController_INT.c **** 
 137:Generated_Source\PSoC5/FanController_INT.c ****         /* The compensator integrator */
 138:Generated_Source\PSoC5/FanController_INT.c ****         static uint32 FanController_pidArea[FanController_NUMBER_OF_FANS] = {0u};
 139:Generated_Source\PSoC5/FanController_INT.c **** 
 140:Generated_Source\PSoC5/FanController_INT.c ****         /* Holds result of PID algorithm execution for currently active fan */
 141:Generated_Source\PSoC5/FanController_INT.c ****         static uint16 FanController_pidOut;
 142:Generated_Source\PSoC5/FanController_INT.c **** 
 143:Generated_Source\PSoC5/FanController_INT.c ****         /* Fans speed regulation counters */
 144:Generated_Source\PSoC5/FanController_INT.c ****         static uint8 FanController_spdErrCount[FanController_NUMBER_OF_FANS] = {0u};
 145:Generated_Source\PSoC5/FanController_INT.c **** 
 146:Generated_Source\PSoC5/FanController_INT.c ****         #ifdef FanController_PID_CONTROL_ISR_ENTRY_CALLBACK
 147:Generated_Source\PSoC5/FanController_INT.c ****             FanController_PID_CONTROL_ISR_EntryCallback();
 148:Generated_Source\PSoC5/FanController_INT.c ****         #endif /* FanController_PID_CONTROL_ISR_ENTRY_CALLBACK */
 149:Generated_Source\PSoC5/FanController_INT.c ****         
 150:Generated_Source\PSoC5/FanController_INT.c ****         for(i = 0u; i < FanController_NUMBER_OF_FANS; i++)
  41              		.loc 1 150 0
  42 0002 0025     		movs	r5, #0
  43 0004 8BE0     		b	.L2
  44              	.LVL1:
  45              	.L11:
 151:Generated_Source\PSoC5/FanController_INT.c ****         {
 152:Generated_Source\PSoC5/FanController_INT.c ****             /* Calculate the error in number of cycles of tachometer clock */
 153:Generated_Source\PSoC5/FanController_INT.c ****             #if(CY_PSOC3)
 154:Generated_Source\PSoC5/FanController_INT.c ****                 if(0u != (FanController_DMA_STATUS_REG & FanController_DMA1))
 155:Generated_Source\PSoC5/FanController_INT.c ****                 {
 156:Generated_Source\PSoC5/FanController_INT.c ****                     /* If DMA writes to actualPeriodDma1 (DMA1 state) then read actualPeriodDma2. *
 157:Generated_Source\PSoC5/FanController_INT.c ****                     currActSpeed =
 158:Generated_Source\PSoC5/FanController_INT.c ****                         (FanController_RPM_PERIOD_CONV_FACTOR / FanController_fanControl.actualPeri
 159:Generated_Source\PSoC5/FanController_INT.c ****                 }
 160:Generated_Source\PSoC5/FanController_INT.c ****                 else
 161:Generated_Source\PSoC5/FanController_INT.c ****                 {
 162:Generated_Source\PSoC5/FanController_INT.c ****                     /* If DMA writes to actualPeriodDma2 (DMA2 state) then read actualPeriodDma1. *
 163:Generated_Source\PSoC5/FanController_INT.c ****                     currActSpeed =
 164:Generated_Source\PSoC5/FanController_INT.c ****                         (FanController_RPM_PERIOD_CONV_FACTOR / FanController_fanControl.actualPeri
 165:Generated_Source\PSoC5/FanController_INT.c ****                 }
 166:Generated_Source\PSoC5/FanController_INT.c ****             #else
 167:Generated_Source\PSoC5/FanController_INT.c ****                currActSpeed =
 168:Generated_Source\PSoC5/FanController_INT.c ****                     (FanController_RPM_PERIOD_CONV_FACTOR / (uint32)FanController_fanControl.actual
  46              		.loc 1 168 0
  47 0006 2C46     		mov	r4, r5
  48 0008 4B4B     		ldr	r3, .L16
  49 000a 33F81530 		ldrh	r3, [r3, r5, lsl #1]
 167:Generated_Source\PSoC5/FanController_INT.c ****                     (FanController_RPM_PERIOD_CONV_FACTOR / (uint32)FanController_fanControl.actual
  50              		.loc 1 167 0
  51 000e 4B4E     		ldr	r6, .L16+4
  52 0010 B6FBF3F6 		udiv	r6, r6, r3
  53              	.LVL2:
 169:Generated_Source\PSoC5/FanController_INT.c ****             #endif /* (CY_PSOC3) */
 170:Generated_Source\PSoC5/FanController_INT.c **** 
 171:Generated_Source\PSoC5/FanController_INT.c ****             periodError = (int16) ((int32) FanController_desiredFansSpeed[i] - (int32) currActSpeed
  54              		.loc 1 171 0
  55 0014 4A4B     		ldr	r3, .L16+8
  56 0016 33F81530 		ldrh	r3, [r3, r5, lsl #1]
ARM GAS  C:\Users\Ade0n\AppData\Local\Temp\ccvgW31W.s 			page 5


  57 001a 9B1B     		subs	r3, r3, r6
  58 001c 1BB2     		sxth	r3, r3
  59              	.LVL3:
 172:Generated_Source\PSoC5/FanController_INT.c **** 
 173:Generated_Source\PSoC5/FanController_INT.c ****             /* The error in RPM */
 174:Generated_Source\PSoC5/FanController_INT.c ****             pidErrorZ0 = periodError;
 175:Generated_Source\PSoC5/FanController_INT.c **** 
 176:Generated_Source\PSoC5/FanController_INT.c ****             /* Saturate... Limit the error within the design range of the compensator */
 177:Generated_Source\PSoC5/FanController_INT.c ****             if(FanController_PID_ERROR_SAT_L > pidErrorZ0)
  60              		.loc 1 177 0
  61 001e 13F5805F 		cmn	r3, #4096
  62 0022 03DB     		blt	.L13
 178:Generated_Source\PSoC5/FanController_INT.c ****             {
 179:Generated_Source\PSoC5/FanController_INT.c ****                 pidErrorZ0 = FanController_PID_ERROR_SAT_L;
 180:Generated_Source\PSoC5/FanController_INT.c ****             }
 181:Generated_Source\PSoC5/FanController_INT.c ****             else if(FanController_PID_ERROR_SAT_H < pidErrorZ0)
  63              		.loc 1 181 0
  64 0024 B3F5805F 		cmp	r3, #4096
  65 0028 02DC     		bgt	.L14
  66 002a 03E0     		b	.L3
  67              	.L13:
 179:Generated_Source\PSoC5/FanController_INT.c ****             }
  68              		.loc 1 179 0
  69 002c 454B     		ldr	r3, .L16+12
  70              	.LVL4:
  71 002e 01E0     		b	.L3
  72              	.LVL5:
  73              	.L14:
 182:Generated_Source\PSoC5/FanController_INT.c ****             {
 183:Generated_Source\PSoC5/FanController_INT.c ****                 pidErrorZ0 = FanController_PID_ERROR_SAT_H;
  74              		.loc 1 183 0
  75 0030 4FF48053 		mov	r3, #4096
  76              	.LVL6:
  77              	.L3:
 184:Generated_Source\PSoC5/FanController_INT.c ****             }
 185:Generated_Source\PSoC5/FanController_INT.c ****             else
 186:Generated_Source\PSoC5/FanController_INT.c ****             {
 187:Generated_Source\PSoC5/FanController_INT.c ****                 /* Do nothing, the error is in range */
 188:Generated_Source\PSoC5/FanController_INT.c ****             }
 189:Generated_Source\PSoC5/FanController_INT.c **** 
 190:Generated_Source\PSoC5/FanController_INT.c ****             /* Process PID compensation */
 191:Generated_Source\PSoC5/FanController_INT.c ****             FanController_pidArea[i] = (uint32) ((int32) FanController_pidArea[i] +
  78              		.loc 1 191 0
  79 0034 444F     		ldr	r7, .L16+16
  80 0036 57F82410 		ldr	r1, [r7, r4, lsl #2]
 192:Generated_Source\PSoC5/FanController_INT.c ****                                             ((int32) pidErrorZ0 * (int32) FanController_pidA1[i]));
  81              		.loc 1 192 0
  82 003a 444A     		ldr	r2, .L16+20
  83 003c 32F91420 		ldrsh	r2, [r2, r4, lsl #1]
 191:Generated_Source\PSoC5/FanController_INT.c ****                                             ((int32) pidErrorZ0 * (int32) FanController_pidA1[i]));
  84              		.loc 1 191 0
  85 0040 02FB0312 		mla	r2, r2, r3, r1
 193:Generated_Source\PSoC5/FanController_INT.c ****             FanController_pidArea[i] = (uint32) ((int32) FanController_pidArea[i] +
 194:Generated_Source\PSoC5/FanController_INT.c ****                                             ((int32) FanController_pidErrorZ1[i] *
  86              		.loc 1 194 0
  87 0044 07EB4400 		add	r0, r7, r4, lsl #1
  88 0048 B0F910E0 		ldrsh	lr, [r0, #16]
ARM GAS  C:\Users\Ade0n\AppData\Local\Temp\ccvgW31W.s 			page 6


 195:Generated_Source\PSoC5/FanController_INT.c ****                                             (int32) FanController_pidA2[i]));
  89              		.loc 1 195 0
  90 004c 4049     		ldr	r1, .L16+24
  91 004e 31F91410 		ldrsh	r1, [r1, r4, lsl #1]
 193:Generated_Source\PSoC5/FanController_INT.c ****             FanController_pidArea[i] = (uint32) ((int32) FanController_pidArea[i] +
  92              		.loc 1 193 0
  93 0052 01FB0E22 		mla	r2, r1, lr, r2
 196:Generated_Source\PSoC5/FanController_INT.c ****             FanController_pidArea[i] = (uint32) ((int32) FanController_pidArea[i] +
 197:Generated_Source\PSoC5/FanController_INT.c ****                                             ((int32) FanController_pidErrorZ2[i] *
  94              		.loc 1 197 0
  95 0056 B0F91810 		ldrsh	r1, [r0, #24]
 198:Generated_Source\PSoC5/FanController_INT.c ****                                             (int32) FanController_pidA3[i]));
  96              		.loc 1 198 0
  97 005a DFF808C1 		ldr	ip, .L16+44
  98 005e 3CF914C0 		ldrsh	ip, [ip, r4, lsl #1]
 196:Generated_Source\PSoC5/FanController_INT.c ****             FanController_pidArea[i] = (uint32) ((int32) FanController_pidArea[i] +
  99              		.loc 1 196 0
 100 0062 0CFB0122 		mla	r2, ip, r1, r2
 101 0066 47F82420 		str	r2, [r7, r4, lsl #2]
 199:Generated_Source\PSoC5/FanController_INT.c **** 
 200:Generated_Source\PSoC5/FanController_INT.c ****             /* Save error history */
 201:Generated_Source\PSoC5/FanController_INT.c ****             FanController_pidErrorZ2[i] = FanController_pidErrorZ1[i];
 102              		.loc 1 201 0
 103 006a A0F818E0 		strh	lr, [r0, #24]	@ movhi
 202:Generated_Source\PSoC5/FanController_INT.c ****             FanController_pidErrorZ1[i] = pidErrorZ0;
 104              		.loc 1 202 0
 105 006e 0382     		strh	r3, [r0, #16]	@ movhi
 203:Generated_Source\PSoC5/FanController_INT.c **** 
 204:Generated_Source\PSoC5/FanController_INT.c ****             /* Saturate... Limit the error within the design range of the compensator */
 205:Generated_Source\PSoC5/FanController_INT.c ****             if(((int32) FanController_outputSatL[i]) > ((int32) FanController_pidArea[i]))
 106              		.loc 1 205 0
 107 0070 384B     		ldr	r3, .L16+28
 108              	.LVL7:
 109 0072 53F82430 		ldr	r3, [r3, r4, lsl #2]
 110 0076 9A42     		cmp	r2, r3
 111 0078 02DA     		bge	.L4
 206:Generated_Source\PSoC5/FanController_INT.c ****             {
 207:Generated_Source\PSoC5/FanController_INT.c ****                 FanController_pidArea[i] = FanController_outputSatL[i];
 112              		.loc 1 207 0
 113 007a 47F82430 		str	r3, [r7, r4, lsl #2]
 114 007e 07E0     		b	.L5
 115              	.L4:
 208:Generated_Source\PSoC5/FanController_INT.c ****             }
 209:Generated_Source\PSoC5/FanController_INT.c ****             else if(((int32) FanController_outputSatH[i]) < ((int32) FanController_pidArea[i]))
 116              		.loc 1 209 0
 117 0080 354B     		ldr	r3, .L16+32
 118 0082 53F82430 		ldr	r3, [r3, r4, lsl #2]
 119 0086 9A42     		cmp	r2, r3
 120 0088 02DD     		ble	.L5
 210:Generated_Source\PSoC5/FanController_INT.c ****             {
 211:Generated_Source\PSoC5/FanController_INT.c ****                 FanController_pidArea[i] = FanController_outputSatH[i];
 121              		.loc 1 211 0
 122 008a 2F4A     		ldr	r2, .L16+16
 123 008c 42F82430 		str	r3, [r2, r4, lsl #2]
 124              	.L5:
 212:Generated_Source\PSoC5/FanController_INT.c ****             }
 213:Generated_Source\PSoC5/FanController_INT.c ****             else
ARM GAS  C:\Users\Ade0n\AppData\Local\Temp\ccvgW31W.s 			page 7


 214:Generated_Source\PSoC5/FanController_INT.c ****             {
 215:Generated_Source\PSoC5/FanController_INT.c ****                 /* Do nothing, the error is in range */
 216:Generated_Source\PSoC5/FanController_INT.c ****             }
 217:Generated_Source\PSoC5/FanController_INT.c **** 
 218:Generated_Source\PSoC5/FanController_INT.c ****             /* Get the algorithm result */
 219:Generated_Source\PSoC5/FanController_INT.c ****             FanController_pidOut = (uint16) (FanController_pidArea[i] >> FanController_PID_POST_GAI
 125              		.loc 1 219 0
 126 0090 2D4B     		ldr	r3, .L16+16
 127 0092 53F82430 		ldr	r3, [r3, r4, lsl #2]
 128 0096 1A0C     		lsrs	r2, r3, #16
 220:Generated_Source\PSoC5/FanController_INT.c **** 
 221:Generated_Source\PSoC5/FanController_INT.c ****             #if (!CY_PSOC4)
 222:Generated_Source\PSoC5/FanController_INT.c ****                 /* Get compare from UDB PWMs */
 223:Generated_Source\PSoC5/FanController_INT.c ****                 #if(FanController_PWMRES == FanController_PWMRES_EIGHTBIT)
 224:Generated_Source\PSoC5/FanController_INT.c ****                     tmpCompare = CY_GET_REG8(FanController_fanDriverRegs[i].pwmSetDutyReg);
 225:Generated_Source\PSoC5/FanController_INT.c ****                 #else
 226:Generated_Source\PSoC5/FanController_INT.c ****                     tmpCompare = CY_GET_REG16(FanController_fanDriverRegs[i].pwmSetDutyReg);
 129              		.loc 1 226 0
 130 0098 304B     		ldr	r3, .L16+36
 131 009a 53F82410 		ldr	r1, [r3, r4, lsl #2]
 132 009e 0B88     		ldrh	r3, [r1]
 133 00a0 9BB2     		uxth	r3, r3
 134              	.LVL8:
 227:Generated_Source\PSoC5/FanController_INT.c ****                 #endif /* FanController_PWMRES == FanController_PWMRES_EIGHTBIT */
 228:Generated_Source\PSoC5/FanController_INT.c ****             #else
 229:Generated_Source\PSoC5/FanController_INT.c ****                 /* Get compare from TCPWMs */
 230:Generated_Source\PSoC5/FanController_INT.c ****                 tmpCompare = CY_GET_REG32(FanController_fanDriverRegs[i].pwmSetDutyReg);
 231:Generated_Source\PSoC5/FanController_INT.c ****             #endif /* (!CY_PSOC4) */
 232:Generated_Source\PSoC5/FanController_INT.c **** 
 233:Generated_Source\PSoC5/FanController_INT.c ****             /* Assign new compare value for fas' PWM with PID out */
 234:Generated_Source\PSoC5/FanController_INT.c ****             newCompare = FanController_pidOut;
 235:Generated_Source\PSoC5/FanController_INT.c **** 
 236:Generated_Source\PSoC5/FanController_INT.c ****             if (0u == (FanController_GLOBAL_CONTROL_REG & FanController_OVERRIDE))
 135              		.loc 1 236 0
 136 00a2 2F48     		ldr	r0, .L16+40
 137              	.LVL9:
 138 00a4 0078     		ldrb	r0, [r0]	@ zero_extendqisi2
 139 00a6 10F0400F 		tst	r0, #64
 140 00aa 00D1     		bne	.L6
 237:Generated_Source\PSoC5/FanController_INT.c ****             {
 238:Generated_Source\PSoC5/FanController_INT.c ****                 /* If override bit is cleared then set the newly tuned compare value */
 239:Generated_Source\PSoC5/FanController_INT.c ****                 #if (!CY_PSOC4)
 240:Generated_Source\PSoC5/FanController_INT.c ****                     #if(FanController_PWMRES == FanController_PWMRES_EIGHTBIT)
 241:Generated_Source\PSoC5/FanController_INT.c ****                         CY_SET_REG8(FanController_fanDriverRegs[i].pwmSetDutyReg, (uint8) newCompar
 242:Generated_Source\PSoC5/FanController_INT.c ****                     #else
 243:Generated_Source\PSoC5/FanController_INT.c ****                         CY_SET_REG16(FanController_fanDriverRegs[i].pwmSetDutyReg, (uint16) newComp
 141              		.loc 1 243 0
 142 00ac 0A80     		strh	r2, [r1]	@ movhi
 143              	.LVL10:
 144              	.L6:
 244:Generated_Source\PSoC5/FanController_INT.c ****                     #endif /* FanController_PWMRES == FanController_PWMRES_EIGHTBIT */
 245:Generated_Source\PSoC5/FanController_INT.c ****                 #else
 246:Generated_Source\PSoC5/FanController_INT.c ****                     CY_SET_REG32(FanController_fanDriverRegs[i].pwmSetDutyReg, newCompare);
 247:Generated_Source\PSoC5/FanController_INT.c ****                 #endif /* (!CY_PSOC4) */
 248:Generated_Source\PSoC5/FanController_INT.c ****             }
 249:Generated_Source\PSoC5/FanController_INT.c **** 
 250:Generated_Source\PSoC5/FanController_INT.c ****             /*************************************
ARM GAS  C:\Users\Ade0n\AppData\Local\Temp\ccvgW31W.s 			page 8


 251:Generated_Source\PSoC5/FanController_INT.c ****             * Speed regulation status
 252:Generated_Source\PSoC5/FanController_INT.c ****             **************************************/
 253:Generated_Source\PSoC5/FanController_INT.c ****             /* Analyze compare and result from PID */
 254:Generated_Source\PSoC5/FanController_INT.c ****             if ((FanController_PWM_PERIOD == tmpCompare) &&
 145              		.loc 1 254 0
 146 00ae B3F5707F 		cmp	r3, #960
 147 00b2 0CD1     		bne	.L7
 255:Generated_Source\PSoC5/FanController_INT.c ****                 (currActSpeed < FanController_desiredFansSpeed[i]))
 148              		.loc 1 255 0 discriminator 1
 149 00b4 224A     		ldr	r2, .L16+8
 150              	.LVL11:
 151 00b6 32F81420 		ldrh	r2, [r2, r4, lsl #1]
 254:Generated_Source\PSoC5/FanController_INT.c ****                 (currActSpeed < FanController_desiredFansSpeed[i]))
 152              		.loc 1 254 0 discriminator 1
 153 00ba 9642     		cmp	r6, r2
 154 00bc 07D2     		bcs	.L7
 256:Generated_Source\PSoC5/FanController_INT.c ****             {
 257:Generated_Source\PSoC5/FanController_INT.c ****                 /* Increase speed failure counter */
 258:Generated_Source\PSoC5/FanController_INT.c ****                 FanController_spdErrCount[i]++;
 155              		.loc 1 258 0
 156 00be 224B     		ldr	r3, .L16+16
 157              	.LVL12:
 158 00c0 2344     		add	r3, r3, r4
 159 00c2 93F82020 		ldrb	r2, [r3, #32]	@ zero_extendqisi2
 160 00c6 0132     		adds	r2, r2, #1
 161 00c8 83F82020 		strb	r2, [r3, #32]
 162 00cc 16E0     		b	.L8
 163              	.LVL13:
 164              	.L7:
 259:Generated_Source\PSoC5/FanController_INT.c ****             }
 260:Generated_Source\PSoC5/FanController_INT.c ****             else if ((0u == tmpCompare) &&
 165              		.loc 1 260 0
 166 00ce 83B9     		cbnz	r3, .L9
 261:Generated_Source\PSoC5/FanController_INT.c ****                 (currActSpeed > FanController_desiredFansSpeed[i]))
 167              		.loc 1 261 0 discriminator 1
 168 00d0 1B4B     		ldr	r3, .L16+8
 169              	.LVL14:
 170 00d2 33F81430 		ldrh	r3, [r3, r4, lsl #1]
 260:Generated_Source\PSoC5/FanController_INT.c ****                 (currActSpeed > FanController_desiredFansSpeed[i]))
 171              		.loc 1 260 0 discriminator 1
 172 00d6 9E42     		cmp	r6, r3
 173 00d8 0BD9     		bls	.L9
 262:Generated_Source\PSoC5/FanController_INT.c ****             {
 263:Generated_Source\PSoC5/FanController_INT.c ****                 /* Avoid overflow */
 264:Generated_Source\PSoC5/FanController_INT.c ****                 if (FanController_spdErrCount[i] < FanController_MAX_SPEED_ERRORS)
 174              		.loc 1 264 0
 175 00da 1B4B     		ldr	r3, .L16+16
 176 00dc 2344     		add	r3, r3, r4
 177 00de 93F82030 		ldrb	r3, [r3, #32]	@ zero_extendqisi2
 178 00e2 FF2B     		cmp	r3, #255
 179 00e4 0AD0     		beq	.L8
 265:Generated_Source\PSoC5/FanController_INT.c ****                 {
 266:Generated_Source\PSoC5/FanController_INT.c ****                     /* Increase speed failure counter */
 267:Generated_Source\PSoC5/FanController_INT.c ****                     FanController_spdErrCount[i]++;
 180              		.loc 1 267 0
 181 00e6 184A     		ldr	r2, .L16+16
 182 00e8 2244     		add	r2, r2, r4
ARM GAS  C:\Users\Ade0n\AppData\Local\Temp\ccvgW31W.s 			page 9


 183 00ea 0133     		adds	r3, r3, #1
 184 00ec 82F82030 		strb	r3, [r2, #32]
 185 00f0 04E0     		b	.L8
 186              	.L9:
 268:Generated_Source\PSoC5/FanController_INT.c ****                 }
 269:Generated_Source\PSoC5/FanController_INT.c ****             }
 270:Generated_Source\PSoC5/FanController_INT.c ****             else
 271:Generated_Source\PSoC5/FanController_INT.c ****             {
 272:Generated_Source\PSoC5/FanController_INT.c ****                 /* Clear speed failure counter */
 273:Generated_Source\PSoC5/FanController_INT.c ****                 FanController_spdErrCount[i] = 0u;
 187              		.loc 1 273 0
 188 00f2 154B     		ldr	r3, .L16+16
 189 00f4 2344     		add	r3, r3, r4
 190 00f6 0022     		movs	r2, #0
 191 00f8 83F82020 		strb	r2, [r3, #32]
 192              	.L8:
 274:Generated_Source\PSoC5/FanController_INT.c ****             }
 275:Generated_Source\PSoC5/FanController_INT.c **** 
 276:Generated_Source\PSoC5/FanController_INT.c ****             if (FanController_SPEED_ERRORS_TRESHOLD < FanController_spdErrCount[i])
 193              		.loc 1 276 0
 194 00fc 124B     		ldr	r3, .L16+16
 195 00fe 2344     		add	r3, r3, r4
 196 0100 93F82030 		ldrb	r3, [r3, #32]	@ zero_extendqisi2
 197 0104 102B     		cmp	r3, #16
 198 0106 08D9     		bls	.L10
 277:Generated_Source\PSoC5/FanController_INT.c ****             {
 278:Generated_Source\PSoC5/FanController_INT.c ****                 /* The number of speed errors is above threshold so set the
 279:Generated_Source\PSoC5/FanController_INT.c ****                 * respective speed error bit in the software speed status but
 280:Generated_Source\PSoC5/FanController_INT.c ****                 * only if respective bit is set in the alert mask register.
 281:Generated_Source\PSoC5/FanController_INT.c ****                 */
 282:Generated_Source\PSoC5/FanController_INT.c ****                 mask = FanController_GetAlertMask();
 199              		.loc 1 282 0
 200 0108 FFF7FEFF 		bl	FanController_GetAlertMask
 201              	.LVL15:
 283:Generated_Source\PSoC5/FanController_INT.c **** 
 284:Generated_Source\PSoC5/FanController_INT.c ****                 FanController_speedStatus = (uint16) ((((uint16) 1u) << i)) & mask;
 202              		.loc 1 284 0
 203 010c 0123     		movs	r3, #1
 204 010e 03FA04F4 		lsl	r4, r3, r4
 205 0112 2040     		ands	r0, r0, r4
 206              	.LVL16:
 207 0114 84B2     		uxth	r4, r0
 208 0116 0C4B     		ldr	r3, .L16+16
 209 0118 9C84     		strh	r4, [r3, #36]	@ movhi
 210              	.L10:
 150:Generated_Source\PSoC5/FanController_INT.c ****         {
 211              		.loc 1 150 0 discriminator 2
 212 011a 0135     		adds	r5, r5, #1
 213              	.LVL17:
 214 011c EDB2     		uxtb	r5, r5
 215              	.LVL18:
 216              	.L2:
 150:Generated_Source\PSoC5/FanController_INT.c ****         {
 217              		.loc 1 150 0 is_stmt 0 discriminator 1
 218 011e 032D     		cmp	r5, #3
 219 0120 7FF671AF 		bls	.L11
 285:Generated_Source\PSoC5/FanController_INT.c ****             }
ARM GAS  C:\Users\Ade0n\AppData\Local\Temp\ccvgW31W.s 			page 10


 286:Generated_Source\PSoC5/FanController_INT.c ****         }
 287:Generated_Source\PSoC5/FanController_INT.c **** 
 288:Generated_Source\PSoC5/FanController_INT.c ****         /* If software speed status register is not zero then simulate
 289:Generated_Source\PSoC5/FanController_INT.c ****         * hardware failure event. This will generate a pulse that goes to
 290:Generated_Source\PSoC5/FanController_INT.c ****         * Alert Status register.
 291:Generated_Source\PSoC5/FanController_INT.c ****         */
 292:Generated_Source\PSoC5/FanController_INT.c ****         if (0u !=FanController_speedStatus)
 220              		.loc 1 292 0 is_stmt 1
 221 0124 084B     		ldr	r3, .L16+16
 222 0126 9B8C     		ldrh	r3, [r3, #36]
 223 0128 9BB2     		uxth	r3, r3
 224 012a 23B1     		cbz	r3, .L1
 293:Generated_Source\PSoC5/FanController_INT.c ****         {
 294:Generated_Source\PSoC5/FanController_INT.c ****             FanController_GLOBAL_CONTROL_REG |= FanController_SW_SPEED_ERROR;
 225              		.loc 1 294 0
 226 012c 0C4A     		ldr	r2, .L16+40
 227 012e 1378     		ldrb	r3, [r2]	@ zero_extendqisi2
 228 0130 43F01003 		orr	r3, r3, #16
 229 0134 1370     		strb	r3, [r2]
 230              	.L1:
 231 0136 F8BD     		pop	{r3, r4, r5, r6, r7, pc}
 232              	.LVL19:
 233              	.L17:
 234              		.align	2
 235              	.L16:
 236 0138 00000000 		.word	FanController_fanControl
 237 013c 80C3C901 		.word	30000000
 238 0140 00000000 		.word	FanController_desiredFansSpeed
 239 0144 00F0FFFF 		.word	-4096
 240 0148 00000000 		.word	.LANCHOR0
 241 014c 00000000 		.word	FanController_pidA1
 242 0150 00000000 		.word	FanController_pidA2
 243 0154 00000000 		.word	FanController_outputSatL
 244 0158 00000000 		.word	FanController_outputSatH
 245 015c 00000000 		.word	FanController_fanDriverRegs
 246 0160 74640040 		.word	1073767540
 247 0164 00000000 		.word	FanController_pidA3
 248              		.cfi_endproc
 249              	.LFE0:
 250              		.size	FanController_PID_CONTROL_ISR, .-FanController_PID_CONTROL_ISR
 251              		.global	FanController_speedStatus
 252              		.bss
 253              		.align	2
 254              		.set	.LANCHOR0,. + 0
 255              		.type	FanController_pidArea.5120, %object
 256              		.size	FanController_pidArea.5120, 16
 257              	FanController_pidArea.5120:
 258 0000 00000000 		.space	16
 258      00000000 
 258      00000000 
 258      00000000 
 259              		.type	FanController_pidErrorZ1.5118, %object
 260              		.size	FanController_pidErrorZ1.5118, 8
 261              	FanController_pidErrorZ1.5118:
 262 0010 00000000 		.space	8
 262      00000000 
 263              		.type	FanController_pidErrorZ2.5119, %object
ARM GAS  C:\Users\Ade0n\AppData\Local\Temp\ccvgW31W.s 			page 11


 264              		.size	FanController_pidErrorZ2.5119, 8
 265              	FanController_pidErrorZ2.5119:
 266 0018 00000000 		.space	8
 266      00000000 
 267              		.type	FanController_spdErrCount.5122, %object
 268              		.size	FanController_spdErrCount.5122, 4
 269              	FanController_spdErrCount.5122:
 270 0020 00000000 		.space	4
 271              		.type	FanController_speedStatus, %object
 272              		.size	FanController_speedStatus, 2
 273              	FanController_speedStatus:
 274 0024 0000     		.space	2
 275              		.text
 276              	.Letext0:
 277              		.file 2 "Generated_Source\\PSoC5\\cytypes.h"
 278              		.file 3 "Generated_Source\\PSoC5\\FanController.h"