ARM GAS  C:\Users\Ade0n\AppData\Local\Temp\cc7Ther5.s 			page 1


   1              		.syntax unified
   2              		.cpu cortex-m3
   3              		.fpu softvfp
   4              		.eabi_attribute 20, 1
   5              		.eabi_attribute 21, 1
   6              		.eabi_attribute 23, 3
   7              		.eabi_attribute 24, 1
   8              		.eabi_attribute 25, 1
   9              		.eabi_attribute 26, 1
  10              		.eabi_attribute 30, 1
  11              		.eabi_attribute 34, 1
  12              		.eabi_attribute 18, 4
  13              		.thumb
  14              		.syntax unified
  15              		.file	"main.c"
  16              		.text
  17              	.Ltext0:
  18              		.cfi_sections	.debug_frame
  19              		.section	.text.print_all_speed,"ax",%progbits
  20              		.align	2
  21              		.global	print_all_speed
  22              		.thumb
  23              		.thumb_func
  24              		.type	print_all_speed, %function
  25              	print_all_speed:
  26              	.LFB64:
  27              		.file 1 "main.c"
   1:main.c        **** /* ========================================
   2:main.c        ****  *
   3:main.c        ****  * Copyright YOUR COMPANY, THE YEAR
   4:main.c        ****  * All Rights Reserved
   5:main.c        ****  * UNPUBLISHED, LICENSED SOFTWARE.
   6:main.c        ****  *
   7:main.c        ****  * CONFIDENTIAL AND PROPRIETARY INFORMATION
   8:main.c        ****  * WHICH IS THE PROPERTY OF your company.
   9:main.c        ****  *
  10:main.c        ****  * ========================================
  11:main.c        **** */
  12:main.c        **** #include "project.h"
  13:main.c        **** #include <stdio.h>
  14:main.c        **** #include "main_data.h"
  15:main.c        **** 
  16:main.c        **** int8 print_speed = 0;
  17:main.c        **** int8 read_motor_speeds = 0;
  18:main.c        **** uint16_t current_desired_speed;
  19:main.c        **** 
  20:main.c        **** 
  21:main.c        **** void print_all_speed() {
  28              		.loc 1 21 0
  29              		.cfi_startproc
  30              		@ args = 0, pretend = 0, frame = 0
  31              		@ frame_needed = 0, uses_anonymous_args = 0
  32 0000 2DE9F041 		push	{r4, r5, r6, r7, r8, lr}
  33              		.cfi_def_cfa_offset 24
  34              		.cfi_offset 4, -24
  35              		.cfi_offset 5, -20
  36              		.cfi_offset 6, -16
ARM GAS  C:\Users\Ade0n\AppData\Local\Temp\cc7Ther5.s 			page 2


  37              		.cfi_offset 7, -12
  38              		.cfi_offset 8, -8
  39              		.cfi_offset 14, -4
  40              	.LVL0:
  41              	.LBB2:
  22:main.c        ****     // Print all the speeds through UART in a line.
  23:main.c        ****     for (int i = 1; i < MOTOR_COUNT + 1; i++) {
  42              		.loc 1 23 0
  43 0004 0125     		movs	r5, #1
  44 0006 23E0     		b	.L2
  45              	.LVL1:
  46              	.L3:
  24:main.c        ****         current_rpm = FanController_GetActualSpeed(i);
  47              		.loc 1 24 0 discriminator 3
  48 0008 5FFA85F8 		uxtb	r8, r5
  49 000c 4046     		mov	r0, r8
  50 000e FFF7FEFF 		bl	FanController_GetActualSpeed
  51              	.LVL2:
  52 0012 0246     		mov	r2, r0
  53 0014 134F     		ldr	r7, .L5
  54 0016 3860     		str	r0, [r7]
  25:main.c        ****         sprintf(uart_rpm_buff, "%u", current_rpm);
  55              		.loc 1 25 0 discriminator 3
  56 0018 134E     		ldr	r6, .L5+4
  57 001a 144C     		ldr	r4, .L5+8
  58 001c 3146     		mov	r1, r6
  59 001e 2046     		mov	r0, r4
  60 0020 FFF7FEFF 		bl	sprintf
  61              	.LVL3:
  26:main.c        ****         UART_PutString(uart_rpm_buff);
  62              		.loc 1 26 0 discriminator 3
  63 0024 2046     		mov	r0, r4
  64 0026 FFF7FEFF 		bl	UART_PutString
  65              	.LVL4:
  27:main.c        ****         UART_PutChar(' ');
  66              		.loc 1 27 0 discriminator 3
  67 002a 2020     		movs	r0, #32
  68 002c FFF7FEFF 		bl	UART_PutChar
  69              	.LVL5:
  28:main.c        ****         
  29:main.c        ****         current_rpm = FanController_GetDesiredSpeed(i);
  70              		.loc 1 29 0 discriminator 3
  71 0030 4046     		mov	r0, r8
  72 0032 FFF7FEFF 		bl	FanController_GetDesiredSpeed
  73              	.LVL6:
  74 0036 0246     		mov	r2, r0
  75 0038 3860     		str	r0, [r7]
  30:main.c        ****         sprintf(uart_rpm_buff, "%u", current_rpm);
  76              		.loc 1 30 0 discriminator 3
  77 003a 3146     		mov	r1, r6
  78 003c 2046     		mov	r0, r4
  79 003e FFF7FEFF 		bl	sprintf
  80              	.LVL7:
  31:main.c        ****         UART_PutString(uart_rpm_buff);
  81              		.loc 1 31 0 discriminator 3
  82 0042 2046     		mov	r0, r4
  83 0044 FFF7FEFF 		bl	UART_PutString
ARM GAS  C:\Users\Ade0n\AppData\Local\Temp\cc7Ther5.s 			page 3


  84              	.LVL8:
  32:main.c        ****         UART_PutChar(' ');
  85              		.loc 1 32 0 discriminator 3
  86 0048 2020     		movs	r0, #32
  87 004a FFF7FEFF 		bl	UART_PutChar
  88              	.LVL9:
  23:main.c        ****         current_rpm = FanController_GetActualSpeed(i);
  89              		.loc 1 23 0 discriminator 3
  90 004e 0135     		adds	r5, r5, #1
  91              	.LVL10:
  92              	.L2:
  23:main.c        ****         current_rpm = FanController_GetActualSpeed(i);
  93              		.loc 1 23 0 is_stmt 0 discriminator 1
  94 0050 042D     		cmp	r5, #4
  95 0052 D9DD     		ble	.L3
  96              	.LBE2:
  33:main.c        ****     }
  34:main.c        ****     UART_PutChar('\n');
  97              		.loc 1 34 0 is_stmt 1
  98 0054 0A20     		movs	r0, #10
  99 0056 FFF7FEFF 		bl	UART_PutChar
 100              	.LVL11:
  35:main.c        ****     UART_PutChar('\r');
 101              		.loc 1 35 0
 102 005a 0D20     		movs	r0, #13
 103 005c FFF7FEFF 		bl	UART_PutChar
 104              	.LVL12:
 105 0060 BDE8F081 		pop	{r4, r5, r6, r7, r8, pc}
 106              	.LVL13:
 107              	.L6:
 108              		.align	2
 109              	.L5:
 110 0064 00000000 		.word	current_rpm
 111 0068 00000000 		.word	.LC0
 112 006c 00000000 		.word	uart_rpm_buff
 113              		.cfi_endproc
 114              	.LFE64:
 115              		.size	print_all_speed, .-print_all_speed
 116              		.section	.text.write_motor_speed,"ax",%progbits
 117              		.align	2
 118              		.global	write_motor_speed
 119              		.thumb
 120              		.thumb_func
 121              		.type	write_motor_speed, %function
 122              	write_motor_speed:
 123              	.LFB65:
  36:main.c        **** }
  37:main.c        **** 
  38:main.c        **** void write_motor_speed() {
 124              		.loc 1 38 0
 125              		.cfi_startproc
 126              		@ args = 0, pretend = 0, frame = 0
 127              		@ frame_needed = 0, uses_anonymous_args = 0
 128 0000 10B5     		push	{r4, lr}
 129              		.cfi_def_cfa_offset 8
 130              		.cfi_offset 4, -8
 131              		.cfi_offset 14, -4
ARM GAS  C:\Users\Ade0n\AppData\Local\Temp\cc7Ther5.s 			page 4


 132              	.LVL14:
 133              	.LBB3:
  39:main.c        ****     // Write the speed of all motors
  40:main.c        ****     for (int i = 0; i < MOTOR_COUNT; i++) {
 134              		.loc 1 40 0
 135 0002 0024     		movs	r4, #0
 136 0004 0EE0     		b	.L8
 137              	.LVL15:
 138              	.L10:
  41:main.c        ****         if (motor_speeds[i] > MIN_RPM && motor_speeds[i] < MAX_RPM) {
 139              		.loc 1 41 0
 140 0006 094B     		ldr	r3, .L12
 141 0008 33F81410 		ldrh	r1, [r3, r4, lsl #1]
 142 000c A1F2D173 		subw	r3, r1, #2001
 143 0010 9BB2     		uxth	r3, r3
 144 0012 40F62C12 		movw	r2, #2348
 145 0016 9342     		cmp	r3, r2
 146 0018 03D8     		bhi	.L9
  42:main.c        ****             FanController_SetDesiredSpeed(i+1, motor_speeds[i]);
 147              		.loc 1 42 0
 148 001a 601C     		adds	r0, r4, #1
 149 001c C0B2     		uxtb	r0, r0
 150 001e FFF7FEFF 		bl	FanController_SetDesiredSpeed
 151              	.LVL16:
 152              	.L9:
  40:main.c        ****         if (motor_speeds[i] > MIN_RPM && motor_speeds[i] < MAX_RPM) {
 153              		.loc 1 40 0 discriminator 2
 154 0022 0134     		adds	r4, r4, #1
 155              	.LVL17:
 156              	.L8:
  40:main.c        ****         if (motor_speeds[i] > MIN_RPM && motor_speeds[i] < MAX_RPM) {
 157              		.loc 1 40 0 is_stmt 0 discriminator 1
 158 0024 032C     		cmp	r4, #3
 159 0026 EEDD     		ble	.L10
 160              	.LBE3:
  43:main.c        ****         } else {
  44:main.c        ****             continue;
  45:main.c        ****         }
  46:main.c        ****     }
  47:main.c        **** }
 161              		.loc 1 47 0 is_stmt 1
 162 0028 10BD     		pop	{r4, pc}
 163              	.LVL18:
 164              	.L13:
 165 002a 00BF     		.align	2
 166              	.L12:
 167 002c 00000000 		.word	motor_speeds
 168              		.cfi_endproc
 169              	.LFE65:
 170              		.size	write_motor_speed, .-write_motor_speed
 171              		.section	.text.Timer_Isr_Handler,"ax",%progbits
 172              		.align	2
 173              		.global	Timer_Isr_Handler
 174              		.thumb
 175              		.thumb_func
 176              		.type	Timer_Isr_Handler, %function
 177              	Timer_Isr_Handler:
ARM GAS  C:\Users\Ade0n\AppData\Local\Temp\cc7Ther5.s 			page 5


 178              	.LFB66:
  48:main.c        **** 
  49:main.c        **** 
  50:main.c        **** CY_ISR(Timer_Isr_Handler) {
 179              		.loc 1 50 0
 180              		.cfi_startproc
 181              		@ args = 0, pretend = 0, frame = 0
 182              		@ frame_needed = 0, uses_anonymous_args = 0
 183 0000 08B5     		push	{r3, lr}
 184              		.cfi_def_cfa_offset 8
 185              		.cfi_offset 3, -8
 186              		.cfi_offset 14, -4
  51:main.c        ****     current_desired_speed = FanController_GetDesiredSpeed(1);
 187              		.loc 1 51 0
 188 0002 0120     		movs	r0, #1
 189 0004 FFF7FEFF 		bl	FanController_GetDesiredSpeed
 190              	.LVL19:
 191 0008 0A4B     		ldr	r3, .L18
 192 000a 1880     		strh	r0, [r3]	@ movhi
  52:main.c        ****     
  53:main.c        ****     if (current_desired_speed == 3000) {
 193              		.loc 1 53 0
 194 000c 40F6B833 		movw	r3, #3000
 195 0010 9842     		cmp	r0, r3
 196 0012 05D1     		bne	.L15
  54:main.c        ****         FanController_SetDesiredSpeed(1, 4000);
 197              		.loc 1 54 0
 198 0014 4FF47A61 		mov	r1, #4000
 199 0018 0120     		movs	r0, #1
 200 001a FFF7FEFF 		bl	FanController_SetDesiredSpeed
 201              	.LVL20:
 202 001e 08BD     		pop	{r3, pc}
 203              	.L15:
  55:main.c        ****     } else if (current_desired_speed == 4000) {
 204              		.loc 1 55 0
 205 0020 B0F57A6F 		cmp	r0, #4000
 206 0024 04D1     		bne	.L14
  56:main.c        ****         FanController_SetDesiredSpeed(1, 3000);
 207              		.loc 1 56 0
 208 0026 40F6B831 		movw	r1, #3000
 209 002a 0120     		movs	r0, #1
 210 002c FFF7FEFF 		bl	FanController_SetDesiredSpeed
 211              	.LVL21:
 212              	.L14:
 213 0030 08BD     		pop	{r3, pc}
 214              	.L19:
 215 0032 00BF     		.align	2
 216              	.L18:
 217 0034 00000000 		.word	current_desired_speed
 218              		.cfi_endproc
 219              	.LFE66:
 220              		.size	Timer_Isr_Handler, .-Timer_Isr_Handler
 221              		.section	.text.Ouput_Speed_Isr_handler,"ax",%progbits
 222              		.align	2
 223              		.global	Ouput_Speed_Isr_handler
 224              		.thumb
 225              		.thumb_func
ARM GAS  C:\Users\Ade0n\AppData\Local\Temp\cc7Ther5.s 			page 6


 226              		.type	Ouput_Speed_Isr_handler, %function
 227              	Ouput_Speed_Isr_handler:
 228              	.LFB67:
  57:main.c        ****     }
  58:main.c        ****     //Timer_ChangeSpeed_ClearInterrupt(Timer_ChangeSpeed_INTR_MASK_TC);
  59:main.c        **** 
  60:main.c        **** }
  61:main.c        **** 
  62:main.c        **** 
  63:main.c        **** CY_ISR(Ouput_Speed_Isr_handler) {
 229              		.loc 1 63 0
 230              		.cfi_startproc
 231              		@ args = 0, pretend = 0, frame = 0
 232              		@ frame_needed = 0, uses_anonymous_args = 0
  64:main.c        ****     
  65:main.c        ****     if (print_speed) {
 233              		.loc 1 65 0
 234 0000 154B     		ldr	r3, .L24
 235 0002 93F90030 		ldrsb	r3, [r3]
 236 0006 2BB3     		cbz	r3, .L23
  63:main.c        ****     
 237              		.loc 1 63 0
 238 0008 70B5     		push	{r4, r5, r6, lr}
 239              		.cfi_def_cfa_offset 16
 240              		.cfi_offset 4, -16
 241              		.cfi_offset 5, -12
 242              		.cfi_offset 6, -8
 243              		.cfi_offset 14, -4
  66:main.c        ****         current_rpm = FanController_GetActualSpeed(1);
 244              		.loc 1 66 0
 245 000a 0120     		movs	r0, #1
 246 000c FFF7FEFF 		bl	FanController_GetActualSpeed
 247              	.LVL22:
 248 0010 0246     		mov	r2, r0
 249 0012 124E     		ldr	r6, .L24+4
 250 0014 3060     		str	r0, [r6]
  67:main.c        ****         sprintf(uart_rpm_buff, "%u", current_rpm);
 251              		.loc 1 67 0
 252 0016 124D     		ldr	r5, .L24+8
 253 0018 124C     		ldr	r4, .L24+12
 254 001a 2946     		mov	r1, r5
 255 001c 2046     		mov	r0, r4
 256 001e FFF7FEFF 		bl	sprintf
 257              	.LVL23:
  68:main.c        ****         UART_PutString(uart_rpm_buff);
 258              		.loc 1 68 0
 259 0022 2046     		mov	r0, r4
 260 0024 FFF7FEFF 		bl	UART_PutString
 261              	.LVL24:
  69:main.c        ****         UART_PutChar(' ');
 262              		.loc 1 69 0
 263 0028 2020     		movs	r0, #32
 264 002a FFF7FEFF 		bl	UART_PutChar
 265              	.LVL25:
  70:main.c        ****         
  71:main.c        ****         current_rpm = FanController_GetDesiredSpeed(1);
 266              		.loc 1 71 0
ARM GAS  C:\Users\Ade0n\AppData\Local\Temp\cc7Ther5.s 			page 7


 267 002e 0120     		movs	r0, #1
 268 0030 FFF7FEFF 		bl	FanController_GetDesiredSpeed
 269              	.LVL26:
 270 0034 0246     		mov	r2, r0
 271 0036 3060     		str	r0, [r6]
  72:main.c        ****         sprintf(uart_rpm_buff, "%u", current_rpm);
 272              		.loc 1 72 0
 273 0038 2946     		mov	r1, r5
 274 003a 2046     		mov	r0, r4
 275 003c FFF7FEFF 		bl	sprintf
 276              	.LVL27:
  73:main.c        ****         UART_PutString(uart_rpm_buff);
 277              		.loc 1 73 0
 278 0040 2046     		mov	r0, r4
 279 0042 FFF7FEFF 		bl	UART_PutString
 280              	.LVL28:
  74:main.c        ****         UART_PutChar('\n');
 281              		.loc 1 74 0
 282 0046 0A20     		movs	r0, #10
 283 0048 FFF7FEFF 		bl	UART_PutChar
 284              	.LVL29:
  75:main.c        ****         UART_PutChar('\r');
 285              		.loc 1 75 0
 286 004c 0D20     		movs	r0, #13
 287 004e FFF7FEFF 		bl	UART_PutChar
 288              	.LVL30:
 289 0052 70BD     		pop	{r4, r5, r6, pc}
 290              	.L23:
 291              		.cfi_def_cfa_offset 0
 292              		.cfi_restore 4
 293              		.cfi_restore 5
 294              		.cfi_restore 6
 295              		.cfi_restore 14
 296 0054 7047     		bx	lr
 297              	.L25:
 298 0056 00BF     		.align	2
 299              	.L24:
 300 0058 00000000 		.word	.LANCHOR0
 301 005c 00000000 		.word	current_rpm
 302 0060 00000000 		.word	.LC0
 303 0064 00000000 		.word	uart_rpm_buff
 304              		.cfi_endproc
 305              	.LFE67:
 306              		.size	Ouput_Speed_Isr_handler, .-Ouput_Speed_Isr_handler
 307              		.section	.text.main,"ax",%progbits
 308              		.align	2
 309              		.global	main
 310              		.thumb
 311              		.thumb_func
 312              		.type	main, %function
 313              	main:
 314              	.LFB68:
  76:main.c        ****     }
  77:main.c        ****     //Timer_OutputSpeed_ClearInterrupt(Timer_ChangeSpeed_INTR_MASK_TC);
  78:main.c        **** }
  79:main.c        **** 
  80:main.c        **** 
ARM GAS  C:\Users\Ade0n\AppData\Local\Temp\cc7Ther5.s 			page 8


  81:main.c        **** int main(void)
  82:main.c        **** {
 315              		.loc 1 82 0
 316              		.cfi_startproc
 317              		@ args = 0, pretend = 0, frame = 0
 318              		@ frame_needed = 0, uses_anonymous_args = 0
 319 0000 70B5     		push	{r4, r5, r6, lr}
 320              		.cfi_def_cfa_offset 16
 321              		.cfi_offset 4, -16
 322              		.cfi_offset 5, -12
 323              		.cfi_offset 6, -8
 324              		.cfi_offset 14, -4
  83:main.c        ****     CyGlobalIntEnable; /* Enable global interrupts. */
 325              		.loc 1 83 0
 326              		.syntax unified
 327              	@ 83 "main.c" 1
 328 0002 62B6     		CPSIE   i
 329              	@ 0 "" 2
  84:main.c        ****     
  85:main.c        ****     // Initialize some variables
  86:main.c        ****     current_rpm = 0;
 330              		.loc 1 86 0
 331              		.thumb
 332              		.syntax unified
 333 0004 0025     		movs	r5, #0
 334 0006 224B     		ldr	r3, .L37
 335 0008 1D60     		str	r5, [r3]
  87:main.c        ****     
  88:main.c        **** 
  89:main.c        ****     /* Start Everything Up */
  90:main.c        ****     FanController_Start();
 336              		.loc 1 90 0
 337 000a FFF7FEFF 		bl	FanController_Start
 338              	.LVL31:
  91:main.c        ****     UART_Start();
 339              		.loc 1 91 0
 340 000e FFF7FEFF 		bl	UART_Start
 341              	.LVL32:
  92:main.c        ****     //Timer_ChangeSpeed_Start();
  93:main.c        ****     //Timer_OutputSpeed_Start();
  94:main.c        ****     // ISR_Timer_StartEx(Timer_Isr_Handler);
  95:main.c        ****     //ISR_OutSpeed_StartEx(Ouput_Speed_Isr_handler);
  96:main.c        **** 
  97:main.c        ****     char ch;
  98:main.c        ****     int16 speed_buf = 0;
  99:main.c        ****     int8 speed_idx = 0;
 342              		.loc 1 99 0
 343 0012 2E46     		mov	r6, r5
 344              	.LVL33:
 345              	.L27:
 100:main.c        ****     for(;;)
 101:main.c        ****     {   
 102:main.c        ****         ch = UART_GetChar();
 346              		.loc 1 102 0
 347 0014 FFF7FEFF 		bl	UART_GetChar
 348              	.LVL34:
 349 0018 0446     		mov	r4, r0
ARM GAS  C:\Users\Ade0n\AppData\Local\Temp\cc7Ther5.s 			page 9


 350              	.LVL35:
 103:main.c        ****         if(ch == 'p'){print_speed = 0;}
 351              		.loc 1 103 0
 352 001a 7028     		cmp	r0, #112
 353 001c 03D1     		bne	.L28
 354              		.loc 1 103 0 is_stmt 0 discriminator 1
 355 001e 0022     		movs	r2, #0
 356 0020 1C4B     		ldr	r3, .L37+4
 357 0022 1A70     		strb	r2, [r3]
 358 0024 29E0     		b	.L29
 359              	.L28:
 104:main.c        ****         else if(ch == 's'){print_speed = 1;}
 360              		.loc 1 104 0 is_stmt 1
 361 0026 7328     		cmp	r0, #115
 362 0028 03D1     		bne	.L30
 363              		.loc 1 104 0 is_stmt 0 discriminator 1
 364 002a 0122     		movs	r2, #1
 365 002c 194B     		ldr	r3, .L37+4
 366 002e 1A70     		strb	r2, [r3]
 367 0030 23E0     		b	.L29
 368              	.L30:
 105:main.c        ****         else if (ch == ' ') {
 369              		.loc 1 105 0 is_stmt 1
 370 0032 2028     		cmp	r0, #32
 371 0034 06D1     		bne	.L31
 106:main.c        ****             motor_speeds[speed_idx] = speed_buf;
 372              		.loc 1 106 0
 373 0036 184B     		ldr	r3, .L37+8
 374 0038 23F81650 		strh	r5, [r3, r6, lsl #1]	@ movhi
 107:main.c        ****             speed_idx++;
 375              		.loc 1 107 0
 376 003c 0136     		adds	r6, r6, #1
 377              	.LVL36:
 378 003e 76B2     		sxtb	r6, r6
 379              	.LVL37:
 108:main.c        ****             speed_buf = 0;
 380              		.loc 1 108 0
 381 0040 0025     		movs	r5, #0
 382 0042 1AE0     		b	.L29
 383              	.LVL38:
 384              	.L31:
 109:main.c        ****         }
 110:main.c        ****         //else if(ch == '\r' && speed_buf > 2000 && speed_buf < 4350){
 111:main.c        ****             // FanController_SetDesiredSpeed(1, speed_buf);
 112:main.c        ****          //   speed_buf = 0;
 113:main.c        ****          //   UART_UartPutChar('\n');
 114:main.c        ****         //}
 115:main.c        ****         else if(ch == '\r'){
 385              		.loc 1 115 0
 386 0044 0D28     		cmp	r0, #13
 387 0046 0CD1     		bne	.L32
 116:main.c        ****             if (speed_idx == MOTOR_COUNT - 1) {
 388              		.loc 1 116 0
 389 0048 032E     		cmp	r6, #3
 390 004a 02D1     		bne	.L33
 117:main.c        ****                 motor_speeds[speed_idx] = speed_buf;
 391              		.loc 1 117 0
ARM GAS  C:\Users\Ade0n\AppData\Local\Temp\cc7Ther5.s 			page 10


 392 004c 124B     		ldr	r3, .L37+8
 393 004e 23F81650 		strh	r5, [r3, r6, lsl #1]	@ movhi
 394              	.L33:
 118:main.c        ****             }
 119:main.c        ****             write_motor_speed();
 395              		.loc 1 119 0
 396 0052 FFF7FEFF 		bl	write_motor_speed
 397              	.LVL39:
 120:main.c        ****             speed_buf = 0;
 121:main.c        ****             speed_idx = 0;
 122:main.c        ****             UART_PutChar('\n');
 398              		.loc 1 122 0
 399 0056 0A20     		movs	r0, #10
 400 0058 FFF7FEFF 		bl	UART_PutChar
 401              	.LVL40:
 121:main.c        ****             UART_PutChar('\n');
 402              		.loc 1 121 0
 403 005c 0026     		movs	r6, #0
 120:main.c        ****             speed_buf = 0;
 404              		.loc 1 120 0
 405 005e 3546     		mov	r5, r6
 406 0060 0BE0     		b	.L29
 407              	.LVL41:
 408              	.L32:
 123:main.c        ****         }
 124:main.c        ****         else if(ch < 58 && ch > 47){
 409              		.loc 1 124 0
 410 0062 A0F13003 		sub	r3, r0, #48
 411 0066 DBB2     		uxtb	r3, r3
 412 0068 092B     		cmp	r3, #9
 413 006a 06D8     		bhi	.L29
 125:main.c        ****             speed_buf *= 10;
 414              		.loc 1 125 0
 415 006c 05EB8505 		add	r5, r5, r5, lsl #2
 416              	.LVL42:
 417 0070 6B00     		lsls	r3, r5, #1
 418 0072 9DB2     		uxth	r5, r3
 419              	.LVL43:
 126:main.c        ****             speed_buf += ch - '0';
 420              		.loc 1 126 0
 421 0074 0544     		add	r5, r5, r0
 422              	.LVL44:
 423 0076 303D     		subs	r5, r5, #48
 424 0078 2DB2     		sxth	r5, r5
 425              	.LVL45:
 426              	.L29:
 127:main.c        ****         }
 128:main.c        ****         if(print_speed){
 427              		.loc 1 128 0
 428 007a 064B     		ldr	r3, .L37+4
 429 007c 93F90030 		ldrsb	r3, [r3]
 430 0080 13B1     		cbz	r3, .L34
 129:main.c        ****             print_all_speed(); 
 431              		.loc 1 129 0
 432 0082 FFF7FEFF 		bl	print_all_speed
 433              	.LVL46:
 434 0086 C5E7     		b	.L27
ARM GAS  C:\Users\Ade0n\AppData\Local\Temp\cc7Ther5.s 			page 11


 435              	.L34:
 130:main.c        ****         }
 131:main.c        ****         else{
 132:main.c        ****             UART_PutChar(ch);
 436              		.loc 1 132 0
 437 0088 2046     		mov	r0, r4
 438 008a FFF7FEFF 		bl	UART_PutChar
 439              	.LVL47:
 440 008e C1E7     		b	.L27
 441              	.L38:
 442              		.align	2
 443              	.L37:
 444 0090 00000000 		.word	current_rpm
 445 0094 00000000 		.word	.LANCHOR0
 446 0098 00000000 		.word	motor_speeds
 447              		.cfi_endproc
 448              	.LFE68:
 449              		.size	main, .-main
 450              		.comm	current_desired_speed,2,2
 451              		.global	read_motor_speeds
 452              		.global	print_speed
 453              		.comm	motor_speeds,8,4
 454              		.comm	uart_rpm_buff,4,4
 455              		.comm	current_rpm,4,4
 456              		.section	.rodata.str1.4,"aMS",%progbits,1
 457              		.align	2
 458              	.LC0:
 459 0000 257500   		.ascii	"%u\000"
 460              		.bss
 461              		.set	.LANCHOR0,. + 0
 462              		.type	print_speed, %object
 463              		.size	print_speed, 1
 464              	print_speed:
 465 0000 00       		.space	1
 466              		.type	read_motor_speeds, %object
 467              		.size	read_motor_speeds, 1
 468              	read_motor_speeds:
 469 0001 00       		.space	1
 470              		.text
 471              	.Letext0:
 472              		.file 2 "c:\\program files (x86)\\cypress\\psoc creator\\4.4\\psoc creator\\import\\gnu\\arm\\5.4.
 473              		.file 3 "c:\\program files (x86)\\cypress\\psoc creator\\4.4\\psoc creator\\import\\gnu\\arm\\5.4.
 474              		.file 4 "Generated_Source\\PSoC5/cytypes.h"
 475              		.file 5 "Generated_Source\\PSoC5/core_cm3.h"
 476              		.file 6 "main_data.h"
 477              		.file 7 "Generated_Source\\PSoC5/FanController.h"
 478              		.file 8 "c:\\program files (x86)\\cypress\\psoc creator\\4.4\\psoc creator\\import\\gnu\\arm\\5.4.
 479              		.file 9 "Generated_Source\\PSoC5/UART.h"